SF:/home/runner/work/mostrix/mostrix/src/db.rs
FN:13,_RNCNCNvNtCsaruqlPBEY0K_7mostrix2db7init_db00B7_
FN:20,_RNCNCNvNtCsaruqlPBEY0K_7mostrix2db7init_db0s_0B7_
FN:126,_RNCNvNCNvNtCsaruqlPBEY0K_7mostrix2db10migrate_db019check_column_exists0B9_
FN:119,_RNCNvNtCsaruqlPBEY0K_7mostrix2db10migrate_db0B5_
FN:346,_RNCNvNtCsaruqlPBEY0K_7mostrix2db22sqlite_runtime_version0B5_
FN:362,_RNCNvNtCsaruqlPBEY0K_7mostrix2db44orders_table_rebuild_without_suppress_column0B5_
FN:9,_RNCNvNtCsaruqlPBEY0K_7mostrix2db7init_db0B5_
FN:355,_RNCNvNtCsaruqlPBEY0K_7mostrix2db23sqlite_version_at_least0B5_
FN:357,_RNCNvNtCsaruqlPBEY0K_7mostrix2db23sqlite_version_at_leasts0_0B5_
FN:356,_RNCNvNtCsaruqlPBEY0K_7mostrix2db23sqlite_version_at_leasts_0B5_
FN:122,_RNvNCNvNtCsaruqlPBEY0K_7mostrix2db10migrate_db019check_column_exists
FN:119,_RNvNtCsaruqlPBEY0K_7mostrix2db10migrate_db
FN:346,_RNvNtCsaruqlPBEY0K_7mostrix2db22sqlite_runtime_version
FN:353,_RNvNtCsaruqlPBEY0K_7mostrix2db23sqlite_version_at_least
FN:362,_RNvNtCsaruqlPBEY0K_7mostrix2db44orders_table_rebuild_without_suppress_column
FN:9,_RNvNtCsaruqlPBEY0K_7mostrix2db7init_db
FN:13,_RNCNCNvNtCs3smmrQNj5EW_7mostrix2db7init_db00B7_
FN:20,_RNCNCNvNtCs3smmrQNj5EW_7mostrix2db7init_db0s_0B7_
FN:126,_RNCNvNCNvNtCs3smmrQNj5EW_7mostrix2db10migrate_db019check_column_exists0B9_
FN:119,_RNCNvNtCs3smmrQNj5EW_7mostrix2db10migrate_db0B5_
FN:346,_RNCNvNtCs3smmrQNj5EW_7mostrix2db22sqlite_runtime_version0B5_
FN:355,_RNCNvNtCs3smmrQNj5EW_7mostrix2db23sqlite_version_at_least0B5_
FN:357,_RNCNvNtCs3smmrQNj5EW_7mostrix2db23sqlite_version_at_leasts0_0B5_
FN:356,_RNCNvNtCs3smmrQNj5EW_7mostrix2db23sqlite_version_at_leasts_0B5_
FN:362,_RNCNvNtCs3smmrQNj5EW_7mostrix2db44orders_table_rebuild_without_suppress_column0B5_
FN:9,_RNCNvNtCs3smmrQNj5EW_7mostrix2db7init_db0B5_
FN:431,_RNCNvNtNtCs3smmrQNj5EW_7mostrix2db5testss_12test_init_db0B7_
FN:122,_RNvNCNvNtCs3smmrQNj5EW_7mostrix2db10migrate_db019check_column_exists
FN:119,_RNvNtCs3smmrQNj5EW_7mostrix2db10migrate_db
FN:346,_RNvNtCs3smmrQNj5EW_7mostrix2db22sqlite_runtime_version
FN:353,_RNvNtCs3smmrQNj5EW_7mostrix2db23sqlite_version_at_least
FN:362,_RNvNtCs3smmrQNj5EW_7mostrix2db44orders_table_rebuild_without_suppress_column
FN:9,_RNvNtCs3smmrQNj5EW_7mostrix2db7init_db
FN:431,_RNvNtNtCs3smmrQNj5EW_7mostrix2db5testss_12test_init_db
FN:423,_RNvNtNtCs3smmrQNj5EW_7mostrix2db5testss_55sqlite_version_at_least_matches_drop_column_requirement
FN:13,_RNCNCNvNtCs1oYyZhp1ftr_7mostrix2db7init_db00B7_
FN:20,_RNCNCNvNtCs1oYyZhp1ftr_7mostrix2db7init_db0s_0B7_
FN:126,_RNCNvNCNvNtCs1oYyZhp1ftr_7mostrix2db10migrate_db019check_column_exists0B9_
FN:119,_RNCNvNtCs1oYyZhp1ftr_7mostrix2db10migrate_db0B5_
FN:346,_RNCNvNtCs1oYyZhp1ftr_7mostrix2db22sqlite_runtime_version0B5_
FN:355,_RNCNvNtCs1oYyZhp1ftr_7mostrix2db23sqlite_version_at_least0B5_
FN:357,_RNCNvNtCs1oYyZhp1ftr_7mostrix2db23sqlite_version_at_leasts0_0B5_
FN:356,_RNCNvNtCs1oYyZhp1ftr_7mostrix2db23sqlite_version_at_leasts_0B5_
FN:362,_RNCNvNtCs1oYyZhp1ftr_7mostrix2db44orders_table_rebuild_without_suppress_column0B5_
FN:9,_RNCNvNtCs1oYyZhp1ftr_7mostrix2db7init_db0B5_
FN:122,_RNvNCNvNtCs1oYyZhp1ftr_7mostrix2db10migrate_db019check_column_exists
FN:119,_RNvNtCs1oYyZhp1ftr_7mostrix2db10migrate_db
FN:346,_RNvNtCs1oYyZhp1ftr_7mostrix2db22sqlite_runtime_version
FN:353,_RNvNtCs1oYyZhp1ftr_7mostrix2db23sqlite_version_at_least
FN:362,_RNvNtCs1oYyZhp1ftr_7mostrix2db44orders_table_rebuild_without_suppress_column
FN:9,_RNvNtCs1oYyZhp1ftr_7mostrix2db7init_db
FN:13,_RNCNCNvNtCsbwworP4HFOr_7mostrix2db7init_db00B7_
FN:20,_RNCNCNvNtCsbwworP4HFOr_7mostrix2db7init_db0s_0B7_
FN:126,_RNCNvNCNvNtCsbwworP4HFOr_7mostrix2db10migrate_db019check_column_exists0B9_
FN:119,_RNCNvNtCsbwworP4HFOr_7mostrix2db10migrate_db0B5_
FN:346,_RNCNvNtCsbwworP4HFOr_7mostrix2db22sqlite_runtime_version0B5_
FN:355,_RNCNvNtCsbwworP4HFOr_7mostrix2db23sqlite_version_at_least0B5_
FN:357,_RNCNvNtCsbwworP4HFOr_7mostrix2db23sqlite_version_at_leasts0_0B5_
FN:356,_RNCNvNtCsbwworP4HFOr_7mostrix2db23sqlite_version_at_leasts_0B5_
FN:362,_RNCNvNtCsbwworP4HFOr_7mostrix2db44orders_table_rebuild_without_suppress_column0B5_
FN:9,_RNCNvNtCsbwworP4HFOr_7mostrix2db7init_db0B5_
FN:431,_RNCNvNtNtCsbwworP4HFOr_7mostrix2db5testss_12test_init_db0B7_
FN:122,_RNvNCNvNtCsbwworP4HFOr_7mostrix2db10migrate_db019check_column_exists
FN:119,_RNvNtCsbwworP4HFOr_7mostrix2db10migrate_db
FN:346,_RNvNtCsbwworP4HFOr_7mostrix2db22sqlite_runtime_version
FN:353,_RNvNtCsbwworP4HFOr_7mostrix2db23sqlite_version_at_least
FN:362,_RNvNtCsbwworP4HFOr_7mostrix2db44orders_table_rebuild_without_suppress_column
FN:9,_RNvNtCsbwworP4HFOr_7mostrix2db7init_db
FN:431,_RNvNtNtCsbwworP4HFOr_7mostrix2db5testss_12test_init_db
FN:423,_RNvNtNtCsbwworP4HFOr_7mostrix2db5testss_55sqlite_version_at_least_matches_drop_column_requirement
FNDA:0,_RNCNCNvNtCsaruqlPBEY0K_7mostrix2db7init_db00B7_
FNDA:0,_RNCNCNvNtCsaruqlPBEY0K_7mostrix2db7init_db0s_0B7_
FNDA:0,_RNCNvNCNvNtCsaruqlPBEY0K_7mostrix2db10migrate_db019check_column_exists0B9_
FNDA:0,_RNCNvNtCsaruqlPBEY0K_7mostrix2db10migrate_db0B5_
FNDA:0,_RNCNvNtCsaruqlPBEY0K_7mostrix2db22sqlite_runtime_version0B5_
FNDA:0,_RNCNvNtCsaruqlPBEY0K_7mostrix2db44orders_table_rebuild_without_suppress_column0B5_
FNDA:0,_RNCNvNtCsaruqlPBEY0K_7mostrix2db7init_db0B5_
FNDA:0,_RNCNvNtCsaruqlPBEY0K_7mostrix2db23sqlite_version_at_least0B5_
FNDA:0,_RNCNvNtCsaruqlPBEY0K_7mostrix2db23sqlite_version_at_leasts0_0B5_
FNDA:0,_RNCNvNtCsaruqlPBEY0K_7mostrix2db23sqlite_version_at_leasts_0B5_
FNDA:0,_RNvNCNvNtCsaruqlPBEY0K_7mostrix2db10migrate_db019check_column_exists
FNDA:0,_RNvNtCsaruqlPBEY0K_7mostrix2db10migrate_db
FNDA:0,_RNvNtCsaruqlPBEY0K_7mostrix2db22sqlite_runtime_version
FNDA:0,_RNvNtCsaruqlPBEY0K_7mostrix2db23sqlite_version_at_least
FNDA:0,_RNvNtCsaruqlPBEY0K_7mostrix2db44orders_table_rebuild_without_suppress_column
FNDA:0,_RNvNtCsaruqlPBEY0K_7mostrix2db7init_db
FNDA:0,_RNCNCNvNtCs3smmrQNj5EW_7mostrix2db7init_db00B7_
FNDA:0,_RNCNCNvNtCs3smmrQNj5EW_7mostrix2db7init_db0s_0B7_
FNDA:0,_RNCNvNCNvNtCs3smmrQNj5EW_7mostrix2db10migrate_db019check_column_exists0B9_
FNDA:0,_RNCNvNtCs3smmrQNj5EW_7mostrix2db10migrate_db0B5_
FNDA:0,_RNCNvNtCs3smmrQNj5EW_7mostrix2db22sqlite_runtime_version0B5_
FNDA:4,_RNCNvNtCs3smmrQNj5EW_7mostrix2db23sqlite_version_at_least0B5_
FNDA:4,_RNCNvNtCs3smmrQNj5EW_7mostrix2db23sqlite_version_at_leasts0_0B5_
FNDA:4,_RNCNvNtCs3smmrQNj5EW_7mostrix2db23sqlite_version_at_leasts_0B5_
FNDA:0,_RNCNvNtCs3smmrQNj5EW_7mostrix2db44orders_table_rebuild_without_suppress_column0B5_
FNDA:1,_RNCNvNtCs3smmrQNj5EW_7mostrix2db7init_db0B5_
FNDA:1,_RNCNvNtNtCs3smmrQNj5EW_7mostrix2db5testss_12test_init_db0B7_
FNDA:0,_RNvNCNvNtCs3smmrQNj5EW_7mostrix2db10migrate_db019check_column_exists
FNDA:0,_RNvNtCs3smmrQNj5EW_7mostrix2db10migrate_db
FNDA:0,_RNvNtCs3smmrQNj5EW_7mostrix2db22sqlite_runtime_version
FNDA:4,_RNvNtCs3smmrQNj5EW_7mostrix2db23sqlite_version_at_least
FNDA:0,_RNvNtCs3smmrQNj5EW_7mostrix2db44orders_table_rebuild_without_suppress_column
FNDA:1,_RNvNtCs3smmrQNj5EW_7mostrix2db7init_db
FNDA:1,_RNvNtNtCs3smmrQNj5EW_7mostrix2db5testss_12test_init_db
FNDA:1,_RNvNtNtCs3smmrQNj5EW_7mostrix2db5testss_55sqlite_version_at_least_matches_drop_column_requirement
FNDA:0,_RNCNCNvNtCs1oYyZhp1ftr_7mostrix2db7init_db00B7_
FNDA:0,_RNCNCNvNtCs1oYyZhp1ftr_7mostrix2db7init_db0s_0B7_
FNDA:0,_RNCNvNCNvNtCs1oYyZhp1ftr_7mostrix2db10migrate_db019check_column_exists0B9_
FNDA:0,_RNCNvNtCs1oYyZhp1ftr_7mostrix2db10migrate_db0B5_
FNDA:0,_RNCNvNtCs1oYyZhp1ftr_7mostrix2db22sqlite_runtime_version0B5_
FNDA:0,_RNCNvNtCs1oYyZhp1ftr_7mostrix2db23sqlite_version_at_least0B5_
FNDA:0,_RNCNvNtCs1oYyZhp1ftr_7mostrix2db23sqlite_version_at_leasts0_0B5_
FNDA:0,_RNCNvNtCs1oYyZhp1ftr_7mostrix2db23sqlite_version_at_leasts_0B5_
FNDA:0,_RNCNvNtCs1oYyZhp1ftr_7mostrix2db44orders_table_rebuild_without_suppress_column0B5_
FNDA:0,_RNCNvNtCs1oYyZhp1ftr_7mostrix2db7init_db0B5_
FNDA:0,_RNvNCNvNtCs1oYyZhp1ftr_7mostrix2db10migrate_db019check_column_exists
FNDA:0,_RNvNtCs1oYyZhp1ftr_7mostrix2db10migrate_db
FNDA:0,_RNvNtCs1oYyZhp1ftr_7mostrix2db22sqlite_runtime_version
FNDA:0,_RNvNtCs1oYyZhp1ftr_7mostrix2db23sqlite_version_at_least
FNDA:0,_RNvNtCs1oYyZhp1ftr_7mostrix2db44orders_table_rebuild_without_suppress_column
FNDA:0,_RNvNtCs1oYyZhp1ftr_7mostrix2db7init_db
FNDA:0,_RNCNCNvNtCsbwworP4HFOr_7mostrix2db7init_db00B7_
FNDA:0,_RNCNCNvNtCsbwworP4HFOr_7mostrix2db7init_db0s_0B7_
FNDA:13,_RNCNvNCNvNtCsbwworP4HFOr_7mostrix2db10migrate_db019check_column_exists0B9_
FNDA:1,_RNCNvNtCsbwworP4HFOr_7mostrix2db10migrate_db0B5_
FNDA:0,_RNCNvNtCsbwworP4HFOr_7mostrix2db22sqlite_runtime_version0B5_
FNDA:4,_RNCNvNtCsbwworP4HFOr_7mostrix2db23sqlite_version_at_least0B5_
FNDA:4,_RNCNvNtCsbwworP4HFOr_7mostrix2db23sqlite_version_at_leasts0_0B5_
FNDA:4,_RNCNvNtCsbwworP4HFOr_7mostrix2db23sqlite_version_at_leasts_0B5_
FNDA:0,_RNCNvNtCsbwworP4HFOr_7mostrix2db44orders_table_rebuild_without_suppress_column0B5_
FNDA:1,_RNCNvNtCsbwworP4HFOr_7mostrix2db7init_db0B5_
FNDA:1,_RNCNvNtNtCsbwworP4HFOr_7mostrix2db5testss_12test_init_db0B7_
FNDA:13,_RNvNCNvNtCsbwworP4HFOr_7mostrix2db10migrate_db019check_column_exists
FNDA:1,_RNvNtCsbwworP4HFOr_7mostrix2db10migrate_db
FNDA:0,_RNvNtCsbwworP4HFOr_7mostrix2db22sqlite_runtime_version
FNDA:4,_RNvNtCsbwworP4HFOr_7mostrix2db23sqlite_version_at_least
FNDA:0,_RNvNtCsbwworP4HFOr_7mostrix2db44orders_table_rebuild_without_suppress_column
FNDA:1,_RNvNtCsbwworP4HFOr_7mostrix2db7init_db
FNDA:1,_RNvNtNtCsbwworP4HFOr_7mostrix2db5testss_12test_init_db
FNDA:1,_RNvNtNtCsbwworP4HFOr_7mostrix2db5testss_55sqlite_version_at_least_matches_drop_column_requirement
FNF:19
FNH:13
DA:9,2
DA:11,2
DA:12,2
DA:13,2
DA:14,2
DA:15,2
DA:16,2
DA:17,2
DA:18,2
DA:19,2
DA:20,2
DA:22,2
DA:23,1
DA:24,1
DA:26,2
DA:27,1
DA:28,0
DA:29,0
DA:30,1
DA:32,1
DA:34,1
DA:35,1
DA:36,1
DA:37,1
DA:38,1
DA:39,1
DA:40,1
DA:41,1
DA:42,1
DA:43,1
DA:44,1
DA:45,1
DA:46,1
DA:47,1
DA:48,1
DA:49,1
DA:50,1
DA:51,1
DA:52,1
DA:53,1
DA:54,1
DA:55,1
DA:56,1
DA:57,1
DA:58,1
DA:59,1
DA:60,1
DA:61,1
DA:62,1
DA:63,1
DA:64,1
DA:65,1
DA:66,1
DA:67,1
DA:68,1
DA:69,1
DA:70,1
DA:71,1
DA:72,1
DA:73,1
DA:74,1
DA:75,1
DA:76,1
DA:77,1
DA:78,1
DA:79,1
DA:80,1
DA:81,1
DA:82,1
DA:83,1
DA:84,1
DA:85,1
DA:86,1
DA:87,1
DA:88,1
DA:89,1
DA:90,1
DA:91,1
DA:92,1
DA:93,1
DA:94,1
DA:95,1
DA:96,1
DA:97,1
DA:98,1
DA:101,1
DA:102,1
DA:103,1
DA:104,1
DA:105,1
DA:106,1
DA:107,0
DA:109,1
DA:112,1
DA:115,2
DA:116,2
DA:119,1
DA:122,13
DA:123,13
DA:124,13
DA:125,13
DA:126,13
DA:127,13
DA:128,13
DA:129,13
DA:130,13
DA:131,13
DA:132,13
DA:134,13
DA:135,12
DA:136,1
DA:140,1
DA:141,1
DA:142,1
DA:145,0
DA:149,13
DA:152,1
DA:153,1
DA:154,1
DA:155,1
DA:156,1
DA:157,1
DA:158,1
DA:159,1
DA:160,1
DA:161,1
DA:162,1
DA:163,1
DA:164,1
DA:165,1
DA:166,1
DA:167,1
DA:168,1
DA:169,1
DA:172,1
DA:173,1
DA:174,1
DA:175,1
DA:176,1
DA:177,1
DA:178,1
DA:179,1
DA:180,1
DA:181,1
DA:182,1
DA:183,1
DA:185,0
DA:188,0
DA:190,0
DA:191,0
DA:192,0
DA:193,0
DA:194,0
DA:195,0
DA:196,0
DA:197,0
DA:198,0
DA:200,0
DA:201,0
DA:202,0
DA:203,0
DA:204,0
DA:205,0
DA:206,0
DA:207,0
DA:208,0
DA:210,0
DA:211,0
DA:212,0
DA:213,0
DA:214,0
DA:215,0
DA:216,0
DA:217,0
DA:218,0
DA:220,0
DA:223,0
DA:224,0
DA:225,0
DA:226,0
DA:227,0
DA:228,0
DA:229,0
DA:231,0
DA:232,0
DA:233,0
DA:234,0
DA:235,0
DA:236,0
DA:237,0
DA:238,0
DA:240,0
DA:241,0
DA:242,0
DA:243,0
DA:244,0
DA:245,0
DA:246,0
DA:247,0
DA:248,0
DA:250,0
DA:251,0
DA:252,0
DA:253,0
DA:254,0
DA:255,0
DA:256,0
DA:257,0
DA:258,0
DA:260,0
DA:261,0
DA:262,0
DA:263,0
DA:264,0
DA:265,0
DA:266,0
DA:267,0
DA:268,0
DA:270,0
DA:271,0
DA:272,0
DA:273,0
DA:274,0
DA:275,0
DA:276,0
DA:277,0
DA:278,0
DA:280,0
DA:281,0
DA:282,0
DA:283,0
DA:284,0
DA:285,0
DA:286,0
DA:287,0
DA:288,0
DA:290,0
DA:291,0
DA:292,0
DA:293,0
DA:294,0
DA:295,0
DA:296,0
DA:297,0
DA:298,0
DA:300,0
DA:301,0
DA:302,0
DA:303,0
DA:304,0
DA:305,0
DA:306,0
DA:307,0
DA:308,0
DA:310,0
DA:311,0
DA:312,0
DA:313,0
DA:314,0
DA:315,0
DA:316,0
DA:317,0
DA:318,0
DA:320,0
DA:321,0
DA:322,1
DA:326,1
DA:327,0
DA:328,0
DA:329,0
DA:330,0
DA:331,0
DA:332,0
DA:334,0
DA:335,0
DA:337,0
DA:338,0
DA:340,1
DA:342,1
DA:343,1
DA:346,0
DA:347,0
DA:348,0
DA:349,0
DA:350,0
DA:351,0
DA:353,8
DA:354,8
DA:355,8
DA:356,8
DA:357,8
DA:358,8
DA:359,8
DA:362,0
DA:363,0
DA:364,0
DA:365,0
DA:366,0
DA:367,0
DA:368,0
DA:369,0
DA:370,0
DA:371,0
DA:372,0
DA:373,0
DA:374,0
DA:375,0
DA:376,0
DA:377,0
DA:378,0
DA:379,0
DA:380,0
DA:381,0
DA:382,0
DA:383,0
DA:384,0
DA:385,0
DA:386,0
DA:387,0
DA:388,0
DA:389,0
DA:390,0
DA:391,0
DA:392,0
DA:393,0
DA:394,0
DA:395,0
DA:396,0
DA:397,0
DA:398,0
DA:399,0
DA:400,0
DA:401,0
DA:402,0
DA:403,0
DA:404,0
DA:405,0
DA:406,0
DA:407,0
DA:408,0
DA:409,0
DA:410,0
DA:411,0
DA:412,0
DA:413,0
DA:414,0
DA:415,0
DA:416,0
DA:423,2
DA:424,2
DA:425,2
DA:426,2
DA:427,2
DA:428,2
DA:431,2
DA:432,2
DA:433,2
DA:434,2
DA:435,2
DA:436,2
DA:437,2
DA:438,2
DA:439,2
BRF:0
BRH:0
LF:375
LH:174
end_of_record
SF:/home/runner/work/mostrix/mostrix/src/main.rs
FN:709,_RNCNCNCNvCs1oYyZhp1ftr_7mostrix4main0s7_00B7_
FN:237,_RNCNCNvCs1oYyZhp1ftr_7mostrix4main00B5_
FN:286,_RNCNCNvCs1oYyZhp1ftr_7mostrix4main0s0_0B5_
FN:290,_RNCNCNvCs1oYyZhp1ftr_7mostrix4main0s1_0B5_
FN:294,_RNCNCNvCs1oYyZhp1ftr_7mostrix4main0s2_0B5_
FN:297,_RNCNCNvCs1oYyZhp1ftr_7mostrix4main0s3_0B5_
FN:302,_RNCNCNvCs1oYyZhp1ftr_7mostrix4main0s4_0B5_
FN:303,_RNCNCNvCs1oYyZhp1ftr_7mostrix4main0s5_0B5_
FN:304,_RNCNCNvCs1oYyZhp1ftr_7mostrix4main0s6_0B5_
FN:707,_RNCNCNvCs1oYyZhp1ftr_7mostrix4main0s7_0B5_
FN:722,_RNCNCNvCs1oYyZhp1ftr_7mostrix4main0s8_0B5_
FN:740,_RNCNCNvCs1oYyZhp1ftr_7mostrix4main0s9_0B5_
FN:239,_RNCNCNvCs1oYyZhp1ftr_7mostrix4main0s_0B5_
FN:774,_RNCNCNvCs1oYyZhp1ftr_7mostrix4main0sa_0B5_
FN:368,_RNCNCNvCs1oYyZhp1ftr_7mostrix4main0sg_0B5_
FN:468,_RNCNCNvCs1oYyZhp1ftr_7mostrix4main0sh_0B5_
FN:153,_RNCNvCs1oYyZhp1ftr_7mostrix12setup_logger0B3_
FN:57,_RNCNvCs1oYyZhp1ftr_7mostrix18apply_order_result0B3_
FN:132,_RNCNvCs1oYyZhp1ftr_7mostrix24drain_order_result_queue0B3_
FN:173,_RNCNvCs1oYyZhp1ftr_7mostrix33apply_pasted_text_to_active_input0B3_
FN:197,_RNCNvCs1oYyZhp1ftr_7mostrix33apply_pasted_text_to_active_inputs0_0B3_
FN:206,_RNCNvCs1oYyZhp1ftr_7mostrix33apply_pasted_text_to_active_inputs1_0B3_
FN:215,_RNCNvCs1oYyZhp1ftr_7mostrix33apply_pasted_text_to_active_inputs2_0B3_
FN:185,_RNCNvCs1oYyZhp1ftr_7mostrix33apply_pasted_text_to_active_inputs_0B3_
FN:225,_RNCNvCs1oYyZhp1ftr_7mostrix4main0B3_
FN:143,_RNvCs1oYyZhp1ftr_7mostrix12setup_logger
FN:57,_RNvCs1oYyZhp1ftr_7mostrix18apply_order_result
FN:128,_RNvCs1oYyZhp1ftr_7mostrix24drain_order_result_queue
FN:96,_RNvCs1oYyZhp1ftr_7mostrix27drain_save_attachment_queue
FN:167,_RNvCs1oYyZhp1ftr_7mostrix33apply_pasted_text_to_active_input
FN:106,_RNvCs1oYyZhp1ftr_7mostrix33drain_send_order_attachment_queue
FN:225,_RNvCs1oYyZhp1ftr_7mostrix4main
FN:709,_RNCNCNCNvCsbwworP4HFOr_7mostrix4main0s7_00B7_
FN:237,_RNCNCNvCsbwworP4HFOr_7mostrix4main00B5_
FN:286,_RNCNCNvCsbwworP4HFOr_7mostrix4main0s0_0B5_
FN:290,_RNCNCNvCsbwworP4HFOr_7mostrix4main0s1_0B5_
FN:294,_RNCNCNvCsbwworP4HFOr_7mostrix4main0s2_0B5_
FN:297,_RNCNCNvCsbwworP4HFOr_7mostrix4main0s3_0B5_
FN:302,_RNCNCNvCsbwworP4HFOr_7mostrix4main0s4_0B5_
FN:303,_RNCNCNvCsbwworP4HFOr_7mostrix4main0s5_0B5_
FN:304,_RNCNCNvCsbwworP4HFOr_7mostrix4main0s6_0B5_
FN:707,_RNCNCNvCsbwworP4HFOr_7mostrix4main0s7_0B5_
FN:722,_RNCNCNvCsbwworP4HFOr_7mostrix4main0s8_0B5_
FN:740,_RNCNCNvCsbwworP4HFOr_7mostrix4main0s9_0B5_
FN:239,_RNCNCNvCsbwworP4HFOr_7mostrix4main0s_0B5_
FN:774,_RNCNCNvCsbwworP4HFOr_7mostrix4main0sa_0B5_
FN:368,_RNCNCNvCsbwworP4HFOr_7mostrix4main0sg_0B5_
FN:468,_RNCNCNvCsbwworP4HFOr_7mostrix4main0sh_0B5_
FN:153,_RNCNvCsbwworP4HFOr_7mostrix12setup_logger0B3_
FN:57,_RNCNvCsbwworP4HFOr_7mostrix18apply_order_result0B3_
FN:132,_RNCNvCsbwworP4HFOr_7mostrix24drain_order_result_queue0B3_
FN:173,_RNCNvCsbwworP4HFOr_7mostrix33apply_pasted_text_to_active_input0B3_
FN:197,_RNCNvCsbwworP4HFOr_7mostrix33apply_pasted_text_to_active_inputs0_0B3_
FN:206,_RNCNvCsbwworP4HFOr_7mostrix33apply_pasted_text_to_active_inputs1_0B3_
FN:215,_RNCNvCsbwworP4HFOr_7mostrix33apply_pasted_text_to_active_inputs2_0B3_
FN:185,_RNCNvCsbwworP4HFOr_7mostrix33apply_pasted_text_to_active_inputs_0B3_
FN:225,_RNCNvCsbwworP4HFOr_7mostrix4main0B3_
FN:143,_RNvCsbwworP4HFOr_7mostrix12setup_logger
FN:57,_RNvCsbwworP4HFOr_7mostrix18apply_order_result
FN:128,_RNvCsbwworP4HFOr_7mostrix24drain_order_result_queue
FN:96,_RNvCsbwworP4HFOr_7mostrix27drain_save_attachment_queue
FN:167,_RNvCsbwworP4HFOr_7mostrix33apply_pasted_text_to_active_input
FN:106,_RNvCsbwworP4HFOr_7mostrix33drain_send_order_attachment_queue
FN:225,_RNvCsbwworP4HFOr_7mostrix4main
FNDA:0,_RNCNCNCNvCs1oYyZhp1ftr_7mostrix4main0s7_00B7_
FNDA:0,_RNCNCNvCs1oYyZhp1ftr_7mostrix4main00B5_
FNDA:0,_RNCNCNvCs1oYyZhp1ftr_7mostrix4main0s0_0B5_
FNDA:0,_RNCNCNvCs1oYyZhp1ftr_7mostrix4main0s1_0B5_
FNDA:0,_RNCNCNvCs1oYyZhp1ftr_7mostrix4main0s2_0B5_
FNDA:0,_RNCNCNvCs1oYyZhp1ftr_7mostrix4main0s3_0B5_
FNDA:0,_RNCNCNvCs1oYyZhp1ftr_7mostrix4main0s4_0B5_
FNDA:0,_RNCNCNvCs1oYyZhp1ftr_7mostrix4main0s5_0B5_
FNDA:0,_RNCNCNvCs1oYyZhp1ftr_7mostrix4main0s6_0B5_
FNDA:0,_RNCNCNvCs1oYyZhp1ftr_7mostrix4main0s7_0B5_
FNDA:0,_RNCNCNvCs1oYyZhp1ftr_7mostrix4main0s8_0B5_
FNDA:0,_RNCNCNvCs1oYyZhp1ftr_7mostrix4main0s9_0B5_
FNDA:0,_RNCNCNvCs1oYyZhp1ftr_7mostrix4main0s_0B5_
FNDA:0,_RNCNCNvCs1oYyZhp1ftr_7mostrix4main0sa_0B5_
FNDA:0,_RNCNCNvCs1oYyZhp1ftr_7mostrix4main0sg_0B5_
FNDA:0,_RNCNCNvCs1oYyZhp1ftr_7mostrix4main0sh_0B5_
FNDA:0,_RNCNvCs1oYyZhp1ftr_7mostrix12setup_logger0B3_
FNDA:0,_RNCNvCs1oYyZhp1ftr_7mostrix18apply_order_result0B3_
FNDA:0,_RNCNvCs1oYyZhp1ftr_7mostrix24drain_order_result_queue0B3_
FNDA:0,_RNCNvCs1oYyZhp1ftr_7mostrix33apply_pasted_text_to_active_input0B3_
FNDA:0,_RNCNvCs1oYyZhp1ftr_7mostrix33apply_pasted_text_to_active_inputs0_0B3_
FNDA:0,_RNCNvCs1oYyZhp1ftr_7mostrix33apply_pasted_text_to_active_inputs1_0B3_
FNDA:0,_RNCNvCs1oYyZhp1ftr_7mostrix33apply_pasted_text_to_active_inputs2_0B3_
FNDA:0,_RNCNvCs1oYyZhp1ftr_7mostrix33apply_pasted_text_to_active_inputs_0B3_
FNDA:0,_RNCNvCs1oYyZhp1ftr_7mostrix4main0B3_
FNDA:0,_RNvCs1oYyZhp1ftr_7mostrix12setup_logger
FNDA:0,_RNvCs1oYyZhp1ftr_7mostrix18apply_order_result
FNDA:0,_RNvCs1oYyZhp1ftr_7mostrix24drain_order_result_queue
FNDA:0,_RNvCs1oYyZhp1ftr_7mostrix27drain_save_attachment_queue
FNDA:0,_RNvCs1oYyZhp1ftr_7mostrix33apply_pasted_text_to_active_input
FNDA:0,_RNvCs1oYyZhp1ftr_7mostrix33drain_send_order_attachment_queue
FNDA:0,_RNvCs1oYyZhp1ftr_7mostrix4main
FNDA:0,_RNCNCNCNvCsbwworP4HFOr_7mostrix4main0s7_00B7_
FNDA:0,_RNCNCNvCsbwworP4HFOr_7mostrix4main00B5_
FNDA:0,_RNCNCNvCsbwworP4HFOr_7mostrix4main0s0_0B5_
FNDA:0,_RNCNCNvCsbwworP4HFOr_7mostrix4main0s1_0B5_
FNDA:0,_RNCNCNvCsbwworP4HFOr_7mostrix4main0s2_0B5_
FNDA:0,_RNCNCNvCsbwworP4HFOr_7mostrix4main0s3_0B5_
FNDA:0,_RNCNCNvCsbwworP4HFOr_7mostrix4main0s4_0B5_
FNDA:0,_RNCNCNvCsbwworP4HFOr_7mostrix4main0s5_0B5_
FNDA:0,_RNCNCNvCsbwworP4HFOr_7mostrix4main0s6_0B5_
FNDA:0,_RNCNCNvCsbwworP4HFOr_7mostrix4main0s7_0B5_
FNDA:0,_RNCNCNvCsbwworP4HFOr_7mostrix4main0s8_0B5_
FNDA:0,_RNCNCNvCsbwworP4HFOr_7mostrix4main0s9_0B5_
FNDA:0,_RNCNCNvCsbwworP4HFOr_7mostrix4main0s_0B5_
FNDA:0,_RNCNCNvCsbwworP4HFOr_7mostrix4main0sa_0B5_
FNDA:0,_RNCNCNvCsbwworP4HFOr_7mostrix4main0sg_0B5_
FNDA:0,_RNCNCNvCsbwworP4HFOr_7mostrix4main0sh_0B5_
FNDA:0,_RNCNvCsbwworP4HFOr_7mostrix12setup_logger0B3_
FNDA:0,_RNCNvCsbwworP4HFOr_7mostrix18apply_order_result0B3_
FNDA:0,_RNCNvCsbwworP4HFOr_7mostrix24drain_order_result_queue0B3_
FNDA:0,_RNCNvCsbwworP4HFOr_7mostrix33apply_pasted_text_to_active_input0B3_
FNDA:0,_RNCNvCsbwworP4HFOr_7mostrix33apply_pasted_text_to_active_inputs0_0B3_
FNDA:0,_RNCNvCsbwworP4HFOr_7mostrix33apply_pasted_text_to_active_inputs1_0B3_
FNDA:0,_RNCNvCsbwworP4HFOr_7mostrix33apply_pasted_text_to_active_inputs2_0B3_
FNDA:0,_RNCNvCsbwworP4HFOr_7mostrix33apply_pasted_text_to_active_inputs_0B3_
FNDA:0,_RNCNvCsbwworP4HFOr_7mostrix4main0B3_
FNDA:0,_RNvCsbwworP4HFOr_7mostrix12setup_logger
FNDA:0,_RNvCsbwworP4HFOr_7mostrix18apply_order_result
FNDA:0,_RNvCsbwworP4HFOr_7mostrix24drain_order_result_queue
FNDA:0,_RNvCsbwworP4HFOr_7mostrix27drain_save_attachment_queue
FNDA:0,_RNvCsbwworP4HFOr_7mostrix33apply_pasted_text_to_active_input
FNDA:0,_RNvCsbwworP4HFOr_7mostrix33drain_send_order_attachment_queue
FNDA:0,_RNvCsbwworP4HFOr_7mostrix4main
FNF:32
FNH:0
DA:57,0
DA:58,0
DA:59,0
DA:60,0
DA:61,0
DA:62,0
DA:63,0
DA:67,0
DA:68,0
DA:69,0
DA:71,0
DA:72,0
DA:73,0
DA:74,0
DA:75,0
DA:76,0
DA:78,0
DA:79,0
DA:80,0
DA:81,0
DA:82,0
DA:83,0
DA:84,0
DA:85,0
DA:88,0
DA:89,0
DA:92,0
DA:93,0
DA:96,0
DA:97,0
DA:98,0
DA:99,0
DA:100,0
DA:101,0
DA:102,0
DA:103,0
DA:106,0
DA:107,0
DA:108,0
DA:109,0
DA:110,0
DA:111,0
DA:112,0
DA:113,0
DA:114,0
DA:115,0
DA:116,0
DA:117,0
DA:118,0
DA:119,0
DA:120,0
DA:121,0
DA:122,0
DA:123,0
DA:124,0
DA:125,0
DA:128,0
DA:129,0
DA:130,0
DA:131,0
DA:132,0
DA:133,0
DA:134,0
DA:136,0
DA:143,0
DA:144,0
DA:145,0
DA:146,0
DA:147,0
DA:148,0
DA:149,0
DA:150,0
DA:152,0
DA:153,0
DA:154,0
DA:155,0
DA:156,0
DA:157,0
DA:160,0
DA:161,0
DA:162,0
DA:163,0
DA:164,0
DA:165,0
DA:167,0
DA:169,0
DA:170,0
DA:171,0
DA:172,0
DA:173,0
DA:174,0
DA:175,0
DA:176,0
DA:177,0
DA:178,0
DA:181,0
DA:182,0
DA:183,0
DA:184,0
DA:185,0
DA:186,0
DA:187,0
DA:188,0
DA:189,0
DA:190,0
DA:191,0
DA:192,0
DA:193,0
DA:194,0
DA:195,0
DA:196,0
DA:197,0
DA:198,0
DA:199,0
DA:200,0
DA:201,0
DA:202,0
DA:203,0
DA:204,0
DA:205,0
DA:206,0
DA:207,0
DA:208,0
DA:209,0
DA:210,0
DA:211,0
DA:214,0
DA:215,0
DA:216,0
DA:217,0
DA:218,0
DA:225,0
DA:227,0
DA:228,0
DA:229,0
DA:231,0
DA:232,0
DA:235,0
DA:236,0
DA:237,0
DA:238,0
DA:239,0
DA:240,0
DA:242,0
DA:243,0
DA:244,0
DA:245,0
DA:246,0
DA:249,0
DA:250,0
DA:251,0
DA:254,0
DA:255,0
DA:256,0
DA:257,0
DA:258,0
DA:259,0
DA:260,0
DA:261,0
DA:262,0
DA:263,0
DA:264,0
DA:265,0
DA:266,0
DA:267,0
DA:269,0
DA:270,0
DA:271,0
DA:272,0
DA:273,0
DA:274,0
DA:275,0
DA:276,0
DA:277,0
DA:278,0
DA:279,0
DA:280,0
DA:281,0
DA:282,0
DA:283,0
DA:286,0
DA:287,0
DA:290,0
DA:291,0
DA:292,0
DA:294,0
DA:295,0
DA:296,0
DA:297,0
DA:299,0
DA:300,0
DA:301,0
DA:302,0
DA:303,0
DA:304,0
DA:305,0
DA:307,0
DA:310,0
DA:311,0
DA:312,0
DA:313,0
DA:314,0
DA:315,0
DA:316,0
DA:317,0
DA:318,0
DA:319,0
DA:321,0
DA:322,0
DA:323,0
DA:324,0
DA:325,0
DA:326,0
DA:327,0
DA:328,0
DA:329,0
DA:330,0
DA:331,0
DA:332,0
DA:333,0
DA:334,0
DA:335,0
DA:336,0
DA:337,0
DA:338,0
DA:341,0
DA:342,0
DA:345,0
DA:346,0
DA:347,0
DA:348,0
DA:349,0
DA:350,0
DA:351,0
DA:352,0
DA:353,0
DA:354,0
DA:355,0
DA:357,0
DA:358,0
DA:359,0
DA:360,0
DA:361,0
DA:362,0
DA:363,0
DA:364,0
DA:365,0
DA:367,0
DA:368,0
DA:369,0
DA:370,0
DA:371,0
DA:372,0
DA:373,0
DA:374,0
DA:375,0
DA:376,0
DA:377,0
DA:378,0
DA:379,0
DA:380,0
DA:381,0
DA:382,0
DA:383,0
DA:384,0
DA:386,0
DA:389,0
DA:391,0
DA:392,0
DA:393,0
DA:394,0
DA:395,0
DA:396,0
DA:397,0
DA:398,0
DA:400,0
DA:402,0
DA:403,0
DA:405,0
DA:407,0
DA:408,0
DA:409,0
DA:410,0
DA:411,0
DA:415,0
DA:417,0
DA:418,0
DA:419,0
DA:420,0
DA:422,0
DA:423,0
DA:424,0
DA:425,0
DA:426,0
DA:428,0
DA:430,0
DA:431,0
DA:433,0
DA:434,0
DA:435,0
DA:436,0
DA:437,0
DA:438,0
DA:439,0
DA:440,0
DA:441,0
DA:442,0
DA:444,0
DA:446,0
DA:447,0
DA:448,0
DA:449,0
DA:450,0
DA:451,0
DA:452,0
DA:453,0
DA:454,0
DA:455,0
DA:457,0
DA:459,0
DA:460,0
DA:461,0
DA:462,0
DA:464,0
DA:465,0
DA:466,0
DA:467,0
DA:468,0
DA:469,0
DA:470,0
DA:471,0
DA:472,0
DA:473,0
DA:475,0
DA:477,0
DA:478,0
DA:480,0
DA:481,0
DA:484,0
DA:486,0
DA:487,0
DA:488,0
DA:489,0
DA:490,0
DA:491,0
DA:492,0
DA:493,0
DA:496,0
DA:498,0
DA:499,0
DA:500,0
DA:501,0
DA:502,0
DA:503,0
DA:504,0
DA:505,0
DA:506,0
DA:510,0
DA:511,0
DA:512,0
DA:513,0
DA:514,0
DA:515,0
DA:516,0
DA:517,0
DA:518,0
DA:520,0
DA:522,0
DA:523,0
DA:525,0
DA:526,0
DA:527,0
DA:528,0
DA:531,0
DA:532,0
DA:533,0
DA:534,0
DA:535,0
DA:536,0
DA:537,0
DA:538,0
DA:539,0
DA:541,0
DA:543,0
DA:545,0
DA:546,0
DA:547,0
DA:548,0
DA:549,0
DA:553,0
DA:558,0
DA:559,0
DA:560,0
DA:561,0
DA:565,0
DA:566,0
DA:567,0
DA:568,0
DA:569,0
DA:570,0
DA:571,0
DA:572,0
DA:573,0
DA:574,0
DA:576,0
DA:577,0
DA:578,0
DA:582,0
DA:583,0
DA:584,0
DA:585,0
DA:586,0
DA:587,0
DA:588,0
DA:589,0
DA:590,0
DA:591,0
DA:592,0
DA:593,0
DA:594,0
DA:595,0
DA:596,0
DA:597,0
DA:598,0
DA:599,0
DA:600,0
DA:601,0
DA:602,0
DA:603,0
DA:604,0
DA:606,0
DA:607,0
DA:608,0
DA:609,0
DA:610,0
DA:611,0
DA:612,0
DA:613,0
DA:614,0
DA:615,0
DA:616,0
DA:617,0
DA:618,0
DA:619,0
DA:620,0
DA:621,0
DA:622,0
DA:623,0
DA:624,0
DA:627,0
DA:628,0
DA:629,0
DA:630,0
DA:631,0
DA:632,0
DA:633,0
DA:634,0
DA:635,0
DA:637,0
DA:639,0
DA:640,0
DA:642,0
DA:643,0
DA:644,0
DA:645,0
DA:646,0
DA:647,0
DA:648,0
DA:650,0
DA:653,0
DA:656,0
DA:658,0
DA:659,0
DA:660,0
DA:665,0
DA:666,0
DA:667,0
DA:668,0
DA:669,0
DA:671,0
DA:672,0
DA:673,0
DA:674,0
DA:675,0
DA:676,0
DA:677,0
DA:680,0
DA:681,0
DA:682,0
DA:690,0
DA:691,0
DA:692,0
DA:693,0
DA:694,0
DA:696,0
DA:697,0
DA:698,0
DA:699,0
DA:700,0
DA:701,0
DA:702,0
DA:705,0
DA:706,0
DA:707,0
DA:708,0
DA:709,0
DA:710,0
DA:711,0
DA:712,0
DA:713,0
DA:714,0
DA:715,0
DA:716,0
DA:717,0
DA:721,0
DA:722,0
DA:723,0
DA:724,0
DA:725,0
DA:726,0
DA:727,0
DA:728,0
DA:729,0
DA:730,0
DA:732,0
DA:735,0
DA:739,0
DA:740,0
DA:741,0
DA:743,0
DA:744,0
DA:745,0
DA:747,0
DA:750,0
DA:751,0
DA:752,0
DA:755,0
DA:756,0
DA:757,0
DA:758,0
DA:759,0
DA:760,0
DA:761,0
DA:763,0
DA:764,0
DA:765,0
DA:766,0
DA:768,0
DA:769,0
DA:770,0
DA:774,0
DA:778,0
DA:779,0
DA:780,0
DA:783,0
DA:784,0
DA:786,0
DA:787,0
BRF:0
BRH:0
LF:586
LH:0
end_of_record
SF:/home/runner/work/mostrix/mostrix/src/models.rs
FN:29,_RNCNvMNtCsaruqlPBEY0K_7mostrix6modelsNtB4_4User3new0CshE0VE8Cll3t_8db_tests
FN:53,_RNCNvMNtCsaruqlPBEY0K_7mostrix6modelsNtB4_4User4save0CshE0VE8Cll3t_8db_tests
FN:79,_RNCNvMNtCsaruqlPBEY0K_7mostrix6modelsNtB4_4User10delete_all0B6_
FN:88,_RNCNvMNtCsaruqlPBEY0K_7mostrix6modelsNtB4_4User18replace_all_atomic0B6_
FN:29,_RNCNvMNtCsaruqlPBEY0K_7mostrix6modelsNtB4_4User3new0B6_
FN:53,_RNCNvMNtCsaruqlPBEY0K_7mostrix6modelsNtB4_4User4save0B6_
FN:938,_RNCNvMs0_NtCsaruqlPBEY0K_7mostrix6modelsNtB7_12AdminDispute23has_in_progress_dispute0B9_
FN:958,_RNCNvMs0_NtCsaruqlPBEY0K_7mostrix6modelsNtB7_12AdminDispute35update_chat_last_seen_by_dispute_id0B9_
FN:893,_RNCNvMs0_NtCsaruqlPBEY0K_7mostrix6modelsNtB7_12AdminDispute7get_all0B9_
FN:910,_RNCNvMs0_NtCsaruqlPBEY0K_7mostrix6modelsNtB7_12AdminDispute9get_by_id0B9_
FN:519,_RNCNvMs_NtCsaruqlPBEY0K_7mostrix6modelsNtB6_5Order22update_last_seen_dm_ts0B8_
FN:540,_RNCNvMs_NtCsaruqlPBEY0K_7mostrix6modelsNtB6_5Order25get_startup_active_orders0B8_
FN:725,_RNCNCNvMs0_NtCsaruqlPBEY0K_7mostrix6modelsNtB9_12AdminDispute3new00Bb_
FN:733,_RNCNCNvMs0_NtCsaruqlPBEY0K_7mostrix6modelsNtB9_12AdminDispute3new0s0_0Bb_
FN:734,_RNCNCNvMs0_NtCsaruqlPBEY0K_7mostrix6modelsNtB9_12AdminDispute3new0s1_0Bb_
FN:777,_RNCNCNvMs0_NtCsaruqlPBEY0K_7mostrix6modelsNtB9_12AdminDispute3new0s2_0Bb_
FN:729,_RNCNCNvMs0_NtCsaruqlPBEY0K_7mostrix6modelsNtB9_12AdminDispute3new0s_0Bb_
FN:456,_RNCNCNvMs_NtCsaruqlPBEY0K_7mostrix6modelsNtB8_5Order26upsert_from_small_order_dm00Ba_
FN:253,_RNCNCNvMs_NtCsaruqlPBEY0K_7mostrix6modelsNtB8_5Order3new00Ba_
FN:281,_RNCNCNvMs_NtCsaruqlPBEY0K_7mostrix6modelsNtB8_5Order3new0s0_0Ba_
FN:254,_RNCNCNvMs_NtCsaruqlPBEY0K_7mostrix6modelsNtB8_5Order3new0s_0Ba_
FN:130,_RNCNvMNtCsaruqlPBEY0K_7mostrix6modelsNtB4_4User17get_identity_keys0B6_
FN:102,_RNCNvMNtCsaruqlPBEY0K_7mostrix6modelsNtB4_4User17replace_all_in_tx0B6_
FN:120,_RNCNvMNtCsaruqlPBEY0K_7mostrix6modelsNtB4_4User23update_last_trade_index0B6_
FN:70,_RNCNvMNtCsaruqlPBEY0K_7mostrix6modelsNtB4_4User3get0B6_
FN:1005,_RNCNvMs0_NtCsaruqlPBEY0K_7mostrix6modelsNtB7_12AdminDispute12is_finalized0B9_
FN:1006,_RNCNvMs0_NtCsaruqlPBEY0K_7mostrix6modelsNtB7_12AdminDispute12is_finalizeds_0B9_
FN:976,_RNCNvMs0_NtCsaruqlPBEY0K_7mostrix6modelsNtB7_12AdminDispute18set_status_settled0B9_
FN:989,_RNCNvMs0_NtCsaruqlPBEY0K_7mostrix6modelsNtB7_12AdminDispute26set_status_seller_refunded0B9_
FN:681,_RNCNvMs0_NtCsaruqlPBEY0K_7mostrix6modelsNtB7_12AdminDispute3new0B9_
FN:793,_RNCNvMs0_NtCsaruqlPBEY0K_7mostrix6modelsNtB7_12AdminDispute9insert_db0B9_
FN:843,_RNCNvMs0_NtCsaruqlPBEY0K_7mostrix6modelsNtB7_12AdminDispute9update_db0B9_
FN:503,_RNCNvMs_NtCsaruqlPBEY0K_7mostrix6modelsNtB6_5Order13update_status0B8_
FN:220,_RNCNvMs_NtCsaruqlPBEY0K_7mostrix6modelsNtB6_5Order16delete_all_in_tx0B8_
FN:582,_RNCNvMs_NtCsaruqlPBEY0K_7mostrix6modelsNtB6_5Order23get_user_history_orders0B8_
FN:426,_RNCNvMs_NtCsaruqlPBEY0K_7mostrix6modelsNtB6_5Order26upsert_from_small_order_dm0B8_
FN:598,_RNCNvMs_NtCsaruqlPBEY0K_7mostrix6modelsNtB6_5Order27delete_terminal_order_by_id0B8_
FN:382,_RNCNvMs_NtCsaruqlPBEY0K_7mostrix6modelsNtB6_5Order28build_order_from_small_order0B8_
FN:389,_RNCNvMs_NtCsaruqlPBEY0K_7mostrix6modelsNtB6_5Order28build_order_from_small_orders0_0B8_
FN:390,_RNCNvMs_NtCsaruqlPBEY0K_7mostrix6modelsNtB6_5Order28build_order_from_small_orders1_0B8_
FN:403,_RNCNvMs_NtCsaruqlPBEY0K_7mostrix6modelsNtB6_5Order28build_order_from_small_orders3_0B8_
FN:407,_RNCNvMs_NtCsaruqlPBEY0K_7mostrix6modelsNtB6_5Order28build_order_from_small_orders6_0B8_
FN:383,_RNCNvMs_NtCsaruqlPBEY0K_7mostrix6modelsNtB6_5Order28build_order_from_small_orders_0B8_
FN:615,_RNCNvMs_NtCsaruqlPBEY0K_7mostrix6modelsNtB6_5Order34delete_bulk_history_cleanup_orders0B8_
FN:564,_RNCNvMs_NtCsaruqlPBEY0K_7mostrix6modelsNtB6_5Order37list_ids_for_targeted_relay_reconcile0B8_
FN:238,_RNCNvMs_NtCsaruqlPBEY0K_7mostrix6modelsNtB6_5Order3new0B8_
FN:479,_RNCNvMs_NtCsaruqlPBEY0K_7mostrix6modelsNtB6_5Order9get_by_id0B8_
FN:297,_RNCNvMs_NtCsaruqlPBEY0K_7mostrix6modelsNtB6_5Order9insert_db0B8_
FN:331,_RNCNvMs_NtCsaruqlPBEY0K_7mostrix6modelsNtB6_5Order9update_db0B8_
FN:79,_RNvMNtCsaruqlPBEY0K_7mostrix6modelsNtB2_4User10delete_all
FN:18,_RNvMNtCsaruqlPBEY0K_7mostrix6modelsNtB2_4User13from_mnemonic
FN:139,_RNvMNtCsaruqlPBEY0K_7mostrix6modelsNtB2_4User17derive_trade_keys
FN:130,_RNvMNtCsaruqlPBEY0K_7mostrix6modelsNtB2_4User17get_identity_keys
FN:99,_RNvMNtCsaruqlPBEY0K_7mostrix6modelsNtB2_4User17replace_all_in_tx
FN:88,_RNvMNtCsaruqlPBEY0K_7mostrix6modelsNtB2_4User18replace_all_atomic
FN:120,_RNvMNtCsaruqlPBEY0K_7mostrix6modelsNtB2_4User23update_last_trade_index
FN:70,_RNvMNtCsaruqlPBEY0K_7mostrix6modelsNtB2_4User3get
FN:29,_RNvMNtCsaruqlPBEY0K_7mostrix6modelsNtB2_4User3new
FN:53,_RNvMNtCsaruqlPBEY0K_7mostrix6modelsNtB2_4User4save
FN:1027,_RNvMs0_NtCsaruqlPBEY0K_7mostrix6modelsNtB5_12AdminDispute10can_cancel
FN:1020,_RNvMs0_NtCsaruqlPBEY0K_7mostrix6modelsNtB5_12AdminDispute10can_settle
FN:1001,_RNvMs0_NtCsaruqlPBEY0K_7mostrix6modelsNtB5_12AdminDispute12is_finalized
FN:976,_RNvMs0_NtCsaruqlPBEY0K_7mostrix6modelsNtB5_12AdminDispute18set_status_settled
FN:925,_RNvMs0_NtCsaruqlPBEY0K_7mostrix6modelsNtB5_12AdminDispute21deserialize_user_info
FN:938,_RNvMs0_NtCsaruqlPBEY0K_7mostrix6modelsNtB5_12AdminDispute23has_in_progress_dispute
FN:989,_RNvMs0_NtCsaruqlPBEY0K_7mostrix6modelsNtB5_12AdminDispute26set_status_seller_refunded
FN:953,_RNvMs0_NtCsaruqlPBEY0K_7mostrix6modelsNtB5_12AdminDispute35update_chat_last_seen_by_dispute_id
FN:675,_RNvMs0_NtCsaruqlPBEY0K_7mostrix6modelsNtB5_12AdminDispute3new
FN:893,_RNvMs0_NtCsaruqlPBEY0K_7mostrix6modelsNtB5_12AdminDispute7get_all
FN:910,_RNvMs0_NtCsaruqlPBEY0K_7mostrix6modelsNtB5_12AdminDispute9get_by_id
FN:793,_RNvMs0_NtCsaruqlPBEY0K_7mostrix6modelsNtB5_12AdminDispute9insert_db
FN:843,_RNvMs0_NtCsaruqlPBEY0K_7mostrix6modelsNtB5_12AdminDispute9update_db
FN:499,_RNvMs_NtCsaruqlPBEY0K_7mostrix6modelsNtB4_5Order13update_status
FN:218,_RNvMs_NtCsaruqlPBEY0K_7mostrix6modelsNtB4_5Order16delete_all_in_tx
FN:519,_RNvMs_NtCsaruqlPBEY0K_7mostrix6modelsNtB4_5Order22update_last_seen_dm_ts
FN:582,_RNvMs_NtCsaruqlPBEY0K_7mostrix6modelsNtB4_5Order23get_user_history_orders
FN:538,_RNvMs_NtCsaruqlPBEY0K_7mostrix6modelsNtB4_5Order25get_startup_active_orders
FN:420,_RNvMs_NtCsaruqlPBEY0K_7mostrix6modelsNtB4_5Order26upsert_from_small_order_dm
FN:598,_RNvMs_NtCsaruqlPBEY0K_7mostrix6modelsNtB4_5Order27delete_terminal_order_by_id
FN:367,_RNvMs_NtCsaruqlPBEY0K_7mostrix6modelsNtB4_5Order28build_order_from_small_order
FN:615,_RNvMs_NtCsaruqlPBEY0K_7mostrix6modelsNtB4_5Order34delete_bulk_history_cleanup_orders
FN:564,_RNvMs_NtCsaruqlPBEY0K_7mostrix6modelsNtB4_5Order37list_ids_for_targeted_relay_reconcile
FN:231,_RNvMs_NtCsaruqlPBEY0K_7mostrix6modelsNtB4_5Order3new
FN:479,_RNvMs_NtCsaruqlPBEY0K_7mostrix6modelsNtB4_5Order9get_by_id
FN:297,_RNvMs_NtCsaruqlPBEY0K_7mostrix6modelsNtB4_5Order9insert_db
FN:331,_RNvMs_NtCsaruqlPBEY0K_7mostrix6modelsNtB4_5Order9update_db
FN:1053,_RNCNvNtNtCs3smmrQNj5EW_7mostrix6models24terminal_dm_status_testss_46terminal_dm_statuses_match_mostro_core_display0B7_
FN:1038,_RNvNtNtCs3smmrQNj5EW_7mostrix6models24terminal_dm_status_testss_46terminal_dm_statuses_match_mostro_core_display
FN:725,_RNCNCNvMs0_NtCs3smmrQNj5EW_7mostrix6modelsNtB9_12AdminDispute3new00Bb_
FN:733,_RNCNCNvMs0_NtCs3smmrQNj5EW_7mostrix6modelsNtB9_12AdminDispute3new0s0_0Bb_
FN:734,_RNCNCNvMs0_NtCs3smmrQNj5EW_7mostrix6modelsNtB9_12AdminDispute3new0s1_0Bb_
FN:777,_RNCNCNvMs0_NtCs3smmrQNj5EW_7mostrix6modelsNtB9_12AdminDispute3new0s2_0Bb_
FN:729,_RNCNCNvMs0_NtCs3smmrQNj5EW_7mostrix6modelsNtB9_12AdminDispute3new0s_0Bb_
FN:456,_RNCNCNvMs_NtCs3smmrQNj5EW_7mostrix6modelsNtB8_5Order26upsert_from_small_order_dm00Ba_
FN:79,_RNCNvMNtCs3smmrQNj5EW_7mostrix6modelsNtB4_4User10delete_all0B6_
FN:130,_RNCNvMNtCs3smmrQNj5EW_7mostrix6modelsNtB4_4User17get_identity_keys0B6_
FN:102,_RNCNvMNtCs3smmrQNj5EW_7mostrix6modelsNtB4_4User17replace_all_in_tx0B6_
FN:88,_RNCNvMNtCs3smmrQNj5EW_7mostrix6modelsNtB4_4User18replace_all_atomic0B6_
FN:120,_RNCNvMNtCs3smmrQNj5EW_7mostrix6modelsNtB4_4User23update_last_trade_index0B6_
FN:70,_RNCNvMNtCs3smmrQNj5EW_7mostrix6modelsNtB4_4User3get0B6_
FN:53,_RNCNvMNtCs3smmrQNj5EW_7mostrix6modelsNtB4_4User4save0B6_
FN:1005,_RNCNvMs0_NtCs3smmrQNj5EW_7mostrix6modelsNtB7_12AdminDispute12is_finalized0B9_
FN:1006,_RNCNvMs0_NtCs3smmrQNj5EW_7mostrix6modelsNtB7_12AdminDispute12is_finalizeds_0B9_
FN:976,_RNCNvMs0_NtCs3smmrQNj5EW_7mostrix6modelsNtB7_12AdminDispute18set_status_settled0B9_
FN:938,_RNCNvMs0_NtCs3smmrQNj5EW_7mostrix6modelsNtB7_12AdminDispute23has_in_progress_dispute0B9_
FN:989,_RNCNvMs0_NtCs3smmrQNj5EW_7mostrix6modelsNtB7_12AdminDispute26set_status_seller_refunded0B9_
FN:958,_RNCNvMs0_NtCs3smmrQNj5EW_7mostrix6modelsNtB7_12AdminDispute35update_chat_last_seen_by_dispute_id0B9_
FN:681,_RNCNvMs0_NtCs3smmrQNj5EW_7mostrix6modelsNtB7_12AdminDispute3new0B9_
FN:893,_RNCNvMs0_NtCs3smmrQNj5EW_7mostrix6modelsNtB7_12AdminDispute7get_all0B9_
FN:910,_RNCNvMs0_NtCs3smmrQNj5EW_7mostrix6modelsNtB7_12AdminDispute9get_by_id0B9_
FN:793,_RNCNvMs0_NtCs3smmrQNj5EW_7mostrix6modelsNtB7_12AdminDispute9insert_db0B9_
FN:843,_RNCNvMs0_NtCs3smmrQNj5EW_7mostrix6modelsNtB7_12AdminDispute9update_db0B9_
FN:220,_RNCNvMs_NtCs3smmrQNj5EW_7mostrix6modelsNtB6_5Order16delete_all_in_tx0B8_
FN:519,_RNCNvMs_NtCs3smmrQNj5EW_7mostrix6modelsNtB6_5Order22update_last_seen_dm_ts0B8_
FN:582,_RNCNvMs_NtCs3smmrQNj5EW_7mostrix6modelsNtB6_5Order23get_user_history_orders0B8_
FN:540,_RNCNvMs_NtCs3smmrQNj5EW_7mostrix6modelsNtB6_5Order25get_startup_active_orders0B8_
FN:426,_RNCNvMs_NtCs3smmrQNj5EW_7mostrix6modelsNtB6_5Order26upsert_from_small_order_dm0B8_
FN:598,_RNCNvMs_NtCs3smmrQNj5EW_7mostrix6modelsNtB6_5Order27delete_terminal_order_by_id0B8_
FN:382,_RNCNvMs_NtCs3smmrQNj5EW_7mostrix6modelsNtB6_5Order28build_order_from_small_order0B8_
FN:389,_RNCNvMs_NtCs3smmrQNj5EW_7mostrix6modelsNtB6_5Order28build_order_from_small_orders0_0B8_
FN:390,_RNCNvMs_NtCs3smmrQNj5EW_7mostrix6modelsNtB6_5Order28build_order_from_small_orders1_0B8_
FN:403,_RNCNvMs_NtCs3smmrQNj5EW_7mostrix6modelsNtB6_5Order28build_order_from_small_orders3_0B8_
FN:407,_RNCNvMs_NtCs3smmrQNj5EW_7mostrix6modelsNtB6_5Order28build_order_from_small_orders6_0B8_
FN:383,_RNCNvMs_NtCs3smmrQNj5EW_7mostrix6modelsNtB6_5Order28build_order_from_small_orders_0B8_
FN:615,_RNCNvMs_NtCs3smmrQNj5EW_7mostrix6modelsNtB6_5Order34delete_bulk_history_cleanup_orders0B8_
FN:79,_RNvMNtCs3smmrQNj5EW_7mostrix6modelsNtB2_4User10delete_all
FN:18,_RNvMNtCs3smmrQNj5EW_7mostrix6modelsNtB2_4User13from_mnemonic
FN:139,_RNvMNtCs3smmrQNj5EW_7mostrix6modelsNtB2_4User17derive_trade_keys
FN:130,_RNvMNtCs3smmrQNj5EW_7mostrix6modelsNtB2_4User17get_identity_keys
FN:99,_RNvMNtCs3smmrQNj5EW_7mostrix6modelsNtB2_4User17replace_all_in_tx
FN:88,_RNvMNtCs3smmrQNj5EW_7mostrix6modelsNtB2_4User18replace_all_atomic
FN:120,_RNvMNtCs3smmrQNj5EW_7mostrix6modelsNtB2_4User23update_last_trade_index
FN:70,_RNvMNtCs3smmrQNj5EW_7mostrix6modelsNtB2_4User3get
FN:53,_RNvMNtCs3smmrQNj5EW_7mostrix6modelsNtB2_4User4save
FN:1027,_RNvMs0_NtCs3smmrQNj5EW_7mostrix6modelsNtB5_12AdminDispute10can_cancel
FN:1020,_RNvMs0_NtCs3smmrQNj5EW_7mostrix6modelsNtB5_12AdminDispute10can_settle
FN:1001,_RNvMs0_NtCs3smmrQNj5EW_7mostrix6modelsNtB5_12AdminDispute12is_finalized
FN:976,_RNvMs0_NtCs3smmrQNj5EW_7mostrix6modelsNtB5_12AdminDispute18set_status_settled
FN:925,_RNvMs0_NtCs3smmrQNj5EW_7mostrix6modelsNtB5_12AdminDispute21deserialize_user_info
FN:938,_RNvMs0_NtCs3smmrQNj5EW_7mostrix6modelsNtB5_12AdminDispute23has_in_progress_dispute
FN:989,_RNvMs0_NtCs3smmrQNj5EW_7mostrix6modelsNtB5_12AdminDispute26set_status_seller_refunded
FN:953,_RNvMs0_NtCs3smmrQNj5EW_7mostrix6modelsNtB5_12AdminDispute35update_chat_last_seen_by_dispute_id
FN:675,_RNvMs0_NtCs3smmrQNj5EW_7mostrix6modelsNtB5_12AdminDispute3new
FN:893,_RNvMs0_NtCs3smmrQNj5EW_7mostrix6modelsNtB5_12AdminDispute7get_all
FN:910,_RNvMs0_NtCs3smmrQNj5EW_7mostrix6modelsNtB5_12AdminDispute9get_by_id
FN:793,_RNvMs0_NtCs3smmrQNj5EW_7mostrix6modelsNtB5_12AdminDispute9insert_db
FN:843,_RNvMs0_NtCs3smmrQNj5EW_7mostrix6modelsNtB5_12AdminDispute9update_db
FN:218,_RNvMs_NtCs3smmrQNj5EW_7mostrix6modelsNtB4_5Order16delete_all_in_tx
FN:519,_RNvMs_NtCs3smmrQNj5EW_7mostrix6modelsNtB4_5Order22update_last_seen_dm_ts
FN:582,_RNvMs_NtCs3smmrQNj5EW_7mostrix6modelsNtB4_5Order23get_user_history_orders
FN:538,_RNvMs_NtCs3smmrQNj5EW_7mostrix6modelsNtB4_5Order25get_startup_active_orders
FN:420,_RNvMs_NtCs3smmrQNj5EW_7mostrix6modelsNtB4_5Order26upsert_from_small_order_dm
FN:598,_RNvMs_NtCs3smmrQNj5EW_7mostrix6modelsNtB4_5Order27delete_terminal_order_by_id
FN:367,_RNvMs_NtCs3smmrQNj5EW_7mostrix6modelsNtB4_5Order28build_order_from_small_order
FN:615,_RNvMs_NtCs3smmrQNj5EW_7mostrix6modelsNtB4_5Order34delete_bulk_history_cleanup_orders
FN:253,_RNCNCNvMs_NtCs3smmrQNj5EW_7mostrix6modelsNtB8_5Order3new00Ba_
FN:281,_RNCNCNvMs_NtCs3smmrQNj5EW_7mostrix6modelsNtB8_5Order3new0s0_0Ba_
FN:254,_RNCNCNvMs_NtCs3smmrQNj5EW_7mostrix6modelsNtB8_5Order3new0s_0Ba_
FN:29,_RNCNvMNtCs3smmrQNj5EW_7mostrix6modelsNtB4_4User3new0B6_
FN:503,_RNCNvMs_NtCs3smmrQNj5EW_7mostrix6modelsNtB6_5Order13update_status0B8_
FN:564,_RNCNvMs_NtCs3smmrQNj5EW_7mostrix6modelsNtB6_5Order37list_ids_for_targeted_relay_reconcile0B8_
FN:238,_RNCNvMs_NtCs3smmrQNj5EW_7mostrix6modelsNtB6_5Order3new0B8_
FN:479,_RNCNvMs_NtCs3smmrQNj5EW_7mostrix6modelsNtB6_5Order9get_by_id0B8_
FN:297,_RNCNvMs_NtCs3smmrQNj5EW_7mostrix6modelsNtB6_5Order9insert_db0B8_
FN:331,_RNCNvMs_NtCs3smmrQNj5EW_7mostrix6modelsNtB6_5Order9update_db0B8_
FN:29,_RNvMNtCs3smmrQNj5EW_7mostrix6modelsNtB2_4User3new
FN:499,_RNvMs_NtCs3smmrQNj5EW_7mostrix6modelsNtB4_5Order13update_status
FN:564,_RNvMs_NtCs3smmrQNj5EW_7mostrix6modelsNtB4_5Order37list_ids_for_targeted_relay_reconcile
FN:231,_RNvMs_NtCs3smmrQNj5EW_7mostrix6modelsNtB4_5Order3new
FN:479,_RNvMs_NtCs3smmrQNj5EW_7mostrix6modelsNtB4_5Order9get_by_id
FN:297,_RNvMs_NtCs3smmrQNj5EW_7mostrix6modelsNtB4_5Order9insert_db
FN:331,_RNvMs_NtCs3smmrQNj5EW_7mostrix6modelsNtB4_5Order9update_db
FN:725,_RNCNCNvMs0_NtCs1oYyZhp1ftr_7mostrix6modelsNtB9_12AdminDispute3new00Bb_
FN:733,_RNCNCNvMs0_NtCs1oYyZhp1ftr_7mostrix6modelsNtB9_12AdminDispute3new0s0_0Bb_
FN:734,_RNCNCNvMs0_NtCs1oYyZhp1ftr_7mostrix6modelsNtB9_12AdminDispute3new0s1_0Bb_
FN:777,_RNCNCNvMs0_NtCs1oYyZhp1ftr_7mostrix6modelsNtB9_12AdminDispute3new0s2_0Bb_
FN:729,_RNCNCNvMs0_NtCs1oYyZhp1ftr_7mostrix6modelsNtB9_12AdminDispute3new0s_0Bb_
FN:456,_RNCNCNvMs_NtCs1oYyZhp1ftr_7mostrix6modelsNtB8_5Order26upsert_from_small_order_dm00Ba_
FN:253,_RNCNCNvMs_NtCs1oYyZhp1ftr_7mostrix6modelsNtB8_5Order3new00Ba_
FN:281,_RNCNCNvMs_NtCs1oYyZhp1ftr_7mostrix6modelsNtB8_5Order3new0s0_0Ba_
FN:254,_RNCNCNvMs_NtCs1oYyZhp1ftr_7mostrix6modelsNtB8_5Order3new0s_0Ba_
FN:130,_RNCNvMNtCs1oYyZhp1ftr_7mostrix6modelsNtB4_4User17get_identity_keys0B6_
FN:102,_RNCNvMNtCs1oYyZhp1ftr_7mostrix6modelsNtB4_4User17replace_all_in_tx0B6_
FN:120,_RNCNvMNtCs1oYyZhp1ftr_7mostrix6modelsNtB4_4User23update_last_trade_index0B6_
FN:70,_RNCNvMNtCs1oYyZhp1ftr_7mostrix6modelsNtB4_4User3get0B6_
FN:29,_RNCNvMNtCs1oYyZhp1ftr_7mostrix6modelsNtB4_4User3new0B6_
FN:1005,_RNCNvMs0_NtCs1oYyZhp1ftr_7mostrix6modelsNtB7_12AdminDispute12is_finalized0B9_
FN:1006,_RNCNvMs0_NtCs1oYyZhp1ftr_7mostrix6modelsNtB7_12AdminDispute12is_finalizeds_0B9_
FN:976,_RNCNvMs0_NtCs1oYyZhp1ftr_7mostrix6modelsNtB7_12AdminDispute18set_status_settled0B9_
FN:989,_RNCNvMs0_NtCs1oYyZhp1ftr_7mostrix6modelsNtB7_12AdminDispute26set_status_seller_refunded0B9_
FN:958,_RNCNvMs0_NtCs1oYyZhp1ftr_7mostrix6modelsNtB7_12AdminDispute35update_chat_last_seen_by_dispute_id0B9_
FN:681,_RNCNvMs0_NtCs1oYyZhp1ftr_7mostrix6modelsNtB7_12AdminDispute3new0B9_
FN:893,_RNCNvMs0_NtCs1oYyZhp1ftr_7mostrix6modelsNtB7_12AdminDispute7get_all0B9_
FN:793,_RNCNvMs0_NtCs1oYyZhp1ftr_7mostrix6modelsNtB7_12AdminDispute9insert_db0B9_
FN:843,_RNCNvMs0_NtCs1oYyZhp1ftr_7mostrix6modelsNtB7_12AdminDispute9update_db0B9_
FN:503,_RNCNvMs_NtCs1oYyZhp1ftr_7mostrix6modelsNtB6_5Order13update_status0B8_
FN:220,_RNCNvMs_NtCs1oYyZhp1ftr_7mostrix6modelsNtB6_5Order16delete_all_in_tx0B8_
FN:519,_RNCNvMs_NtCs1oYyZhp1ftr_7mostrix6modelsNtB6_5Order22update_last_seen_dm_ts0B8_
FN:582,_RNCNvMs_NtCs1oYyZhp1ftr_7mostrix6modelsNtB6_5Order23get_user_history_orders0B8_
FN:540,_RNCNvMs_NtCs1oYyZhp1ftr_7mostrix6modelsNtB6_5Order25get_startup_active_orders0B8_
FN:426,_RNCNvMs_NtCs1oYyZhp1ftr_7mostrix6modelsNtB6_5Order26upsert_from_small_order_dm0B8_
FN:598,_RNCNvMs_NtCs1oYyZhp1ftr_7mostrix6modelsNtB6_5Order27delete_terminal_order_by_id0B8_
FN:382,_RNCNvMs_NtCs1oYyZhp1ftr_7mostrix6modelsNtB6_5Order28build_order_from_small_order0B8_
FN:389,_RNCNvMs_NtCs1oYyZhp1ftr_7mostrix6modelsNtB6_5Order28build_order_from_small_orders0_0B8_
FN:390,_RNCNvMs_NtCs1oYyZhp1ftr_7mostrix6modelsNtB6_5Order28build_order_from_small_orders1_0B8_
FN:403,_RNCNvMs_NtCs1oYyZhp1ftr_7mostrix6modelsNtB6_5Order28build_order_from_small_orders3_0B8_
FN:407,_RNCNvMs_NtCs1oYyZhp1ftr_7mostrix6modelsNtB6_5Order28build_order_from_small_orders6_0B8_
FN:383,_RNCNvMs_NtCs1oYyZhp1ftr_7mostrix6modelsNtB6_5Order28build_order_from_small_orders_0B8_
FN:615,_RNCNvMs_NtCs1oYyZhp1ftr_7mostrix6modelsNtB6_5Order34delete_bulk_history_cleanup_orders0B8_
FN:564,_RNCNvMs_NtCs1oYyZhp1ftr_7mostrix6modelsNtB6_5Order37list_ids_for_targeted_relay_reconcile0B8_
FN:238,_RNCNvMs_NtCs1oYyZhp1ftr_7mostrix6modelsNtB6_5Order3new0B8_
FN:479,_RNCNvMs_NtCs1oYyZhp1ftr_7mostrix6modelsNtB6_5Order9get_by_id0B8_
FN:297,_RNCNvMs_NtCs1oYyZhp1ftr_7mostrix6modelsNtB6_5Order9insert_db0B8_
FN:331,_RNCNvMs_NtCs1oYyZhp1ftr_7mostrix6modelsNtB6_5Order9update_db0B8_
FN:18,_RNvMNtCs1oYyZhp1ftr_7mostrix6modelsNtB2_4User13from_mnemonic
FN:139,_RNvMNtCs1oYyZhp1ftr_7mostrix6modelsNtB2_4User17derive_trade_keys
FN:130,_RNvMNtCs1oYyZhp1ftr_7mostrix6modelsNtB2_4User17get_identity_keys
FN:99,_RNvMNtCs1oYyZhp1ftr_7mostrix6modelsNtB2_4User17replace_all_in_tx
FN:120,_RNvMNtCs1oYyZhp1ftr_7mostrix6modelsNtB2_4User23update_last_trade_index
FN:70,_RNvMNtCs1oYyZhp1ftr_7mostrix6modelsNtB2_4User3get
FN:29,_RNvMNtCs1oYyZhp1ftr_7mostrix6modelsNtB2_4User3new
FN:1027,_RNvMs0_NtCs1oYyZhp1ftr_7mostrix6modelsNtB5_12AdminDispute10can_cancel
FN:1020,_RNvMs0_NtCs1oYyZhp1ftr_7mostrix6modelsNtB5_12AdminDispute10can_settle
FN:1001,_RNvMs0_NtCs1oYyZhp1ftr_7mostrix6modelsNtB5_12AdminDispute12is_finalized
FN:976,_RNvMs0_NtCs1oYyZhp1ftr_7mostrix6modelsNtB5_12AdminDispute18set_status_settled
FN:925,_RNvMs0_NtCs1oYyZhp1ftr_7mostrix6modelsNtB5_12AdminDispute21deserialize_user_info
FN:989,_RNvMs0_NtCs1oYyZhp1ftr_7mostrix6modelsNtB5_12AdminDispute26set_status_seller_refunded
FN:953,_RNvMs0_NtCs1oYyZhp1ftr_7mostrix6modelsNtB5_12AdminDispute35update_chat_last_seen_by_dispute_id
FN:675,_RNvMs0_NtCs1oYyZhp1ftr_7mostrix6modelsNtB5_12AdminDispute3new
FN:893,_RNvMs0_NtCs1oYyZhp1ftr_7mostrix6modelsNtB5_12AdminDispute7get_all
FN:793,_RNvMs0_NtCs1oYyZhp1ftr_7mostrix6modelsNtB5_12AdminDispute9insert_db
FN:843,_RNvMs0_NtCs1oYyZhp1ftr_7mostrix6modelsNtB5_12AdminDispute9update_db
FN:499,_RNvMs_NtCs1oYyZhp1ftr_7mostrix6modelsNtB4_5Order13update_status
FN:218,_RNvMs_NtCs1oYyZhp1ftr_7mostrix6modelsNtB4_5Order16delete_all_in_tx
FN:519,_RNvMs_NtCs1oYyZhp1ftr_7mostrix6modelsNtB4_5Order22update_last_seen_dm_ts
FN:582,_RNvMs_NtCs1oYyZhp1ftr_7mostrix6modelsNtB4_5Order23get_user_history_orders
FN:538,_RNvMs_NtCs1oYyZhp1ftr_7mostrix6modelsNtB4_5Order25get_startup_active_orders
FN:420,_RNvMs_NtCs1oYyZhp1ftr_7mostrix6modelsNtB4_5Order26upsert_from_small_order_dm
FN:598,_RNvMs_NtCs1oYyZhp1ftr_7mostrix6modelsNtB4_5Order27delete_terminal_order_by_id
FN:367,_RNvMs_NtCs1oYyZhp1ftr_7mostrix6modelsNtB4_5Order28build_order_from_small_order
FN:615,_RNvMs_NtCs1oYyZhp1ftr_7mostrix6modelsNtB4_5Order34delete_bulk_history_cleanup_orders
FN:564,_RNvMs_NtCs1oYyZhp1ftr_7mostrix6modelsNtB4_5Order37list_ids_for_targeted_relay_reconcile
FN:231,_RNvMs_NtCs1oYyZhp1ftr_7mostrix6modelsNtB4_5Order3new
FN:479,_RNvMs_NtCs1oYyZhp1ftr_7mostrix6modelsNtB4_5Order9get_by_id
FN:297,_RNvMs_NtCs1oYyZhp1ftr_7mostrix6modelsNtB4_5Order9insert_db
FN:331,_RNvMs_NtCs1oYyZhp1ftr_7mostrix6modelsNtB4_5Order9update_db
FN:79,_RNCNvMNtCs1oYyZhp1ftr_7mostrix6modelsNtB4_4User10delete_all0B6_
FN:88,_RNCNvMNtCs1oYyZhp1ftr_7mostrix6modelsNtB4_4User18replace_all_atomic0B6_
FN:53,_RNCNvMNtCs1oYyZhp1ftr_7mostrix6modelsNtB4_4User4save0B6_
FN:938,_RNCNvMs0_NtCs1oYyZhp1ftr_7mostrix6modelsNtB7_12AdminDispute23has_in_progress_dispute0B9_
FN:910,_RNCNvMs0_NtCs1oYyZhp1ftr_7mostrix6modelsNtB7_12AdminDispute9get_by_id0B9_
FN:79,_RNvMNtCs1oYyZhp1ftr_7mostrix6modelsNtB2_4User10delete_all
FN:88,_RNvMNtCs1oYyZhp1ftr_7mostrix6modelsNtB2_4User18replace_all_atomic
FN:53,_RNvMNtCs1oYyZhp1ftr_7mostrix6modelsNtB2_4User4save
FN:938,_RNvMs0_NtCs1oYyZhp1ftr_7mostrix6modelsNtB5_12AdminDispute23has_in_progress_dispute
FN:910,_RNvMs0_NtCs1oYyZhp1ftr_7mostrix6modelsNtB5_12AdminDispute9get_by_id
FN:253,_RNCNCNvMs_NtCsbwworP4HFOr_7mostrix6modelsNtB8_5Order3new00Ba_
FN:281,_RNCNCNvMs_NtCsbwworP4HFOr_7mostrix6modelsNtB8_5Order3new0s0_0Ba_
FN:254,_RNCNCNvMs_NtCsbwworP4HFOr_7mostrix6modelsNtB8_5Order3new0s_0Ba_
FN:29,_RNCNvMNtCsbwworP4HFOr_7mostrix6modelsNtB4_4User3new0B6_
FN:503,_RNCNvMs_NtCsbwworP4HFOr_7mostrix6modelsNtB6_5Order13update_status0B8_
FN:564,_RNCNvMs_NtCsbwworP4HFOr_7mostrix6modelsNtB6_5Order37list_ids_for_targeted_relay_reconcile0B8_
FN:238,_RNCNvMs_NtCsbwworP4HFOr_7mostrix6modelsNtB6_5Order3new0B8_
FN:479,_RNCNvMs_NtCsbwworP4HFOr_7mostrix6modelsNtB6_5Order9get_by_id0B8_
FN:297,_RNCNvMs_NtCsbwworP4HFOr_7mostrix6modelsNtB6_5Order9insert_db0B8_
FN:331,_RNCNvMs_NtCsbwworP4HFOr_7mostrix6modelsNtB6_5Order9update_db0B8_
FN:29,_RNvMNtCsbwworP4HFOr_7mostrix6modelsNtB2_4User3new
FN:499,_RNvMs_NtCsbwworP4HFOr_7mostrix6modelsNtB4_5Order13update_status
FN:564,_RNvMs_NtCsbwworP4HFOr_7mostrix6modelsNtB4_5Order37list_ids_for_targeted_relay_reconcile
FN:231,_RNvMs_NtCsbwworP4HFOr_7mostrix6modelsNtB4_5Order3new
FN:479,_RNvMs_NtCsbwworP4HFOr_7mostrix6modelsNtB4_5Order9get_by_id
FN:297,_RNvMs_NtCsbwworP4HFOr_7mostrix6modelsNtB4_5Order9insert_db
FN:331,_RNvMs_NtCsbwworP4HFOr_7mostrix6modelsNtB4_5Order9update_db
FN:725,_RNCNCNvMs0_NtCsbwworP4HFOr_7mostrix6modelsNtB9_12AdminDispute3new00Bb_
FN:733,_RNCNCNvMs0_NtCsbwworP4HFOr_7mostrix6modelsNtB9_12AdminDispute3new0s0_0Bb_
FN:734,_RNCNCNvMs0_NtCsbwworP4HFOr_7mostrix6modelsNtB9_12AdminDispute3new0s1_0Bb_
FN:777,_RNCNCNvMs0_NtCsbwworP4HFOr_7mostrix6modelsNtB9_12AdminDispute3new0s2_0Bb_
FN:729,_RNCNCNvMs0_NtCsbwworP4HFOr_7mostrix6modelsNtB9_12AdminDispute3new0s_0Bb_
FN:456,_RNCNCNvMs_NtCsbwworP4HFOr_7mostrix6modelsNtB8_5Order26upsert_from_small_order_dm00Ba_
FN:79,_RNCNvMNtCsbwworP4HFOr_7mostrix6modelsNtB4_4User10delete_all0B6_
FN:130,_RNCNvMNtCsbwworP4HFOr_7mostrix6modelsNtB4_4User17get_identity_keys0B6_
FN:102,_RNCNvMNtCsbwworP4HFOr_7mostrix6modelsNtB4_4User17replace_all_in_tx0B6_
FN:88,_RNCNvMNtCsbwworP4HFOr_7mostrix6modelsNtB4_4User18replace_all_atomic0B6_
FN:120,_RNCNvMNtCsbwworP4HFOr_7mostrix6modelsNtB4_4User23update_last_trade_index0B6_
FN:70,_RNCNvMNtCsbwworP4HFOr_7mostrix6modelsNtB4_4User3get0B6_
FN:53,_RNCNvMNtCsbwworP4HFOr_7mostrix6modelsNtB4_4User4save0B6_
FN:1005,_RNCNvMs0_NtCsbwworP4HFOr_7mostrix6modelsNtB7_12AdminDispute12is_finalized0B9_
FN:1006,_RNCNvMs0_NtCsbwworP4HFOr_7mostrix6modelsNtB7_12AdminDispute12is_finalizeds_0B9_
FN:976,_RNCNvMs0_NtCsbwworP4HFOr_7mostrix6modelsNtB7_12AdminDispute18set_status_settled0B9_
FN:938,_RNCNvMs0_NtCsbwworP4HFOr_7mostrix6modelsNtB7_12AdminDispute23has_in_progress_dispute0B9_
FN:989,_RNCNvMs0_NtCsbwworP4HFOr_7mostrix6modelsNtB7_12AdminDispute26set_status_seller_refunded0B9_
FN:958,_RNCNvMs0_NtCsbwworP4HFOr_7mostrix6modelsNtB7_12AdminDispute35update_chat_last_seen_by_dispute_id0B9_
FN:681,_RNCNvMs0_NtCsbwworP4HFOr_7mostrix6modelsNtB7_12AdminDispute3new0B9_
FN:893,_RNCNvMs0_NtCsbwworP4HFOr_7mostrix6modelsNtB7_12AdminDispute7get_all0B9_
FN:910,_RNCNvMs0_NtCsbwworP4HFOr_7mostrix6modelsNtB7_12AdminDispute9get_by_id0B9_
FN:793,_RNCNvMs0_NtCsbwworP4HFOr_7mostrix6modelsNtB7_12AdminDispute9insert_db0B9_
FN:843,_RNCNvMs0_NtCsbwworP4HFOr_7mostrix6modelsNtB7_12AdminDispute9update_db0B9_
FN:220,_RNCNvMs_NtCsbwworP4HFOr_7mostrix6modelsNtB6_5Order16delete_all_in_tx0B8_
FN:519,_RNCNvMs_NtCsbwworP4HFOr_7mostrix6modelsNtB6_5Order22update_last_seen_dm_ts0B8_
FN:582,_RNCNvMs_NtCsbwworP4HFOr_7mostrix6modelsNtB6_5Order23get_user_history_orders0B8_
FN:540,_RNCNvMs_NtCsbwworP4HFOr_7mostrix6modelsNtB6_5Order25get_startup_active_orders0B8_
FN:426,_RNCNvMs_NtCsbwworP4HFOr_7mostrix6modelsNtB6_5Order26upsert_from_small_order_dm0B8_
FN:598,_RNCNvMs_NtCsbwworP4HFOr_7mostrix6modelsNtB6_5Order27delete_terminal_order_by_id0B8_
FN:382,_RNCNvMs_NtCsbwworP4HFOr_7mostrix6modelsNtB6_5Order28build_order_from_small_order0B8_
FN:389,_RNCNvMs_NtCsbwworP4HFOr_7mostrix6modelsNtB6_5Order28build_order_from_small_orders0_0B8_
FN:390,_RNCNvMs_NtCsbwworP4HFOr_7mostrix6modelsNtB6_5Order28build_order_from_small_orders1_0B8_
FN:403,_RNCNvMs_NtCsbwworP4HFOr_7mostrix6modelsNtB6_5Order28build_order_from_small_orders3_0B8_
FN:407,_RNCNvMs_NtCsbwworP4HFOr_7mostrix6modelsNtB6_5Order28build_order_from_small_orders6_0B8_
FN:383,_RNCNvMs_NtCsbwworP4HFOr_7mostrix6modelsNtB6_5Order28build_order_from_small_orders_0B8_
FN:615,_RNCNvMs_NtCsbwworP4HFOr_7mostrix6modelsNtB6_5Order34delete_bulk_history_cleanup_orders0B8_
FN:79,_RNvMNtCsbwworP4HFOr_7mostrix6modelsNtB2_4User10delete_all
FN:18,_RNvMNtCsbwworP4HFOr_7mostrix6modelsNtB2_4User13from_mnemonic
FN:139,_RNvMNtCsbwworP4HFOr_7mostrix6modelsNtB2_4User17derive_trade_keys
FN:130,_RNvMNtCsbwworP4HFOr_7mostrix6modelsNtB2_4User17get_identity_keys
FN:99,_RNvMNtCsbwworP4HFOr_7mostrix6modelsNtB2_4User17replace_all_in_tx
FN:88,_RNvMNtCsbwworP4HFOr_7mostrix6modelsNtB2_4User18replace_all_atomic
FN:120,_RNvMNtCsbwworP4HFOr_7mostrix6modelsNtB2_4User23update_last_trade_index
FN:70,_RNvMNtCsbwworP4HFOr_7mostrix6modelsNtB2_4User3get
FN:53,_RNvMNtCsbwworP4HFOr_7mostrix6modelsNtB2_4User4save
FN:1027,_RNvMs0_NtCsbwworP4HFOr_7mostrix6modelsNtB5_12AdminDispute10can_cancel
FN:1020,_RNvMs0_NtCsbwworP4HFOr_7mostrix6modelsNtB5_12AdminDispute10can_settle
FN:1001,_RNvMs0_NtCsbwworP4HFOr_7mostrix6modelsNtB5_12AdminDispute12is_finalized
FN:976,_RNvMs0_NtCsbwworP4HFOr_7mostrix6modelsNtB5_12AdminDispute18set_status_settled
FN:925,_RNvMs0_NtCsbwworP4HFOr_7mostrix6modelsNtB5_12AdminDispute21deserialize_user_info
FN:938,_RNvMs0_NtCsbwworP4HFOr_7mostrix6modelsNtB5_12AdminDispute23has_in_progress_dispute
FN:989,_RNvMs0_NtCsbwworP4HFOr_7mostrix6modelsNtB5_12AdminDispute26set_status_seller_refunded
FN:953,_RNvMs0_NtCsbwworP4HFOr_7mostrix6modelsNtB5_12AdminDispute35update_chat_last_seen_by_dispute_id
FN:675,_RNvMs0_NtCsbwworP4HFOr_7mostrix6modelsNtB5_12AdminDispute3new
FN:893,_RNvMs0_NtCsbwworP4HFOr_7mostrix6modelsNtB5_12AdminDispute7get_all
FN:910,_RNvMs0_NtCsbwworP4HFOr_7mostrix6modelsNtB5_12AdminDispute9get_by_id
FN:793,_RNvMs0_NtCsbwworP4HFOr_7mostrix6modelsNtB5_12AdminDispute9insert_db
FN:843,_RNvMs0_NtCsbwworP4HFOr_7mostrix6modelsNtB5_12AdminDispute9update_db
FN:218,_RNvMs_NtCsbwworP4HFOr_7mostrix6modelsNtB4_5Order16delete_all_in_tx
FN:519,_RNvMs_NtCsbwworP4HFOr_7mostrix6modelsNtB4_5Order22update_last_seen_dm_ts
FN:582,_RNvMs_NtCsbwworP4HFOr_7mostrix6modelsNtB4_5Order23get_user_history_orders
FN:538,_RNvMs_NtCsbwworP4HFOr_7mostrix6modelsNtB4_5Order25get_startup_active_orders
FN:420,_RNvMs_NtCsbwworP4HFOr_7mostrix6modelsNtB4_5Order26upsert_from_small_order_dm
FN:598,_RNvMs_NtCsbwworP4HFOr_7mostrix6modelsNtB4_5Order27delete_terminal_order_by_id
FN:367,_RNvMs_NtCsbwworP4HFOr_7mostrix6modelsNtB4_5Order28build_order_from_small_order
FN:615,_RNvMs_NtCsbwworP4HFOr_7mostrix6modelsNtB4_5Order34delete_bulk_history_cleanup_orders
FN:1053,_RNCNvNtNtCsbwworP4HFOr_7mostrix6models24terminal_dm_status_testss_46terminal_dm_statuses_match_mostro_core_display0B7_
FN:1038,_RNvNtNtCsbwworP4HFOr_7mostrix6models24terminal_dm_status_testss_46terminal_dm_statuses_match_mostro_core_display
FNDA:6,_RNCNvMNtCsaruqlPBEY0K_7mostrix6modelsNtB4_4User3new0CshE0VE8Cll3t_8db_tests
FNDA:1,_RNCNvMNtCsaruqlPBEY0K_7mostrix6modelsNtB4_4User4save0CshE0VE8Cll3t_8db_tests
FNDA:0,_RNCNvMNtCsaruqlPBEY0K_7mostrix6modelsNtB4_4User10delete_all0B6_
FNDA:0,_RNCNvMNtCsaruqlPBEY0K_7mostrix6modelsNtB4_4User18replace_all_atomic0B6_
FNDA:0,_RNCNvMNtCsaruqlPBEY0K_7mostrix6modelsNtB4_4User3new0B6_
FNDA:0,_RNCNvMNtCsaruqlPBEY0K_7mostrix6modelsNtB4_4User4save0B6_
FNDA:0,_RNCNvMs0_NtCsaruqlPBEY0K_7mostrix6modelsNtB7_12AdminDispute23has_in_progress_dispute0B9_
FNDA:0,_RNCNvMs0_NtCsaruqlPBEY0K_7mostrix6modelsNtB7_12AdminDispute35update_chat_last_seen_by_dispute_id0B9_
FNDA:0,_RNCNvMs0_NtCsaruqlPBEY0K_7mostrix6modelsNtB7_12AdminDispute7get_all0B9_
FNDA:0,_RNCNvMs0_NtCsaruqlPBEY0K_7mostrix6modelsNtB7_12AdminDispute9get_by_id0B9_
FNDA:0,_RNCNvMs_NtCsaruqlPBEY0K_7mostrix6modelsNtB6_5Order22update_last_seen_dm_ts0B8_
FNDA:0,_RNCNvMs_NtCsaruqlPBEY0K_7mostrix6modelsNtB6_5Order25get_startup_active_orders0B8_
FNDA:0,_RNCNCNvMs0_NtCsaruqlPBEY0K_7mostrix6modelsNtB9_12AdminDispute3new00Bb_
FNDA:0,_RNCNCNvMs0_NtCsaruqlPBEY0K_7mostrix6modelsNtB9_12AdminDispute3new0s0_0Bb_
FNDA:0,_RNCNCNvMs0_NtCsaruqlPBEY0K_7mostrix6modelsNtB9_12AdminDispute3new0s1_0Bb_
FNDA:0,_RNCNCNvMs0_NtCsaruqlPBEY0K_7mostrix6modelsNtB9_12AdminDispute3new0s2_0Bb_
FNDA:0,_RNCNCNvMs0_NtCsaruqlPBEY0K_7mostrix6modelsNtB9_12AdminDispute3new0s_0Bb_
FNDA:0,_RNCNCNvMs_NtCsaruqlPBEY0K_7mostrix6modelsNtB8_5Order26upsert_from_small_order_dm00Ba_
FNDA:4,_RNCNCNvMs_NtCsaruqlPBEY0K_7mostrix6modelsNtB8_5Order3new00Ba_
FNDA:1,_RNCNCNvMs_NtCsaruqlPBEY0K_7mostrix6modelsNtB8_5Order3new0s0_0Ba_
FNDA:1,_RNCNCNvMs_NtCsaruqlPBEY0K_7mostrix6modelsNtB8_5Order3new0s_0Ba_
FNDA:1,_RNCNvMNtCsaruqlPBEY0K_7mostrix6modelsNtB4_4User17get_identity_keys0B6_
FNDA:0,_RNCNvMNtCsaruqlPBEY0K_7mostrix6modelsNtB4_4User17replace_all_in_tx0B6_
FNDA:1,_RNCNvMNtCsaruqlPBEY0K_7mostrix6modelsNtB4_4User23update_last_trade_index0B6_
FNDA:4,_RNCNvMNtCsaruqlPBEY0K_7mostrix6modelsNtB4_4User3get0B6_
FNDA:0,_RNCNvMs0_NtCsaruqlPBEY0K_7mostrix6modelsNtB7_12AdminDispute12is_finalized0B9_
FNDA:0,_RNCNvMs0_NtCsaruqlPBEY0K_7mostrix6modelsNtB7_12AdminDispute12is_finalizeds_0B9_
FNDA:0,_RNCNvMs0_NtCsaruqlPBEY0K_7mostrix6modelsNtB7_12AdminDispute18set_status_settled0B9_
FNDA:0,_RNCNvMs0_NtCsaruqlPBEY0K_7mostrix6modelsNtB7_12AdminDispute26set_status_seller_refunded0B9_
FNDA:0,_RNCNvMs0_NtCsaruqlPBEY0K_7mostrix6modelsNtB7_12AdminDispute3new0B9_
FNDA:0,_RNCNvMs0_NtCsaruqlPBEY0K_7mostrix6modelsNtB7_12AdminDispute9insert_db0B9_
FNDA:0,_RNCNvMs0_NtCsaruqlPBEY0K_7mostrix6modelsNtB7_12AdminDispute9update_db0B9_
FNDA:0,_RNCNvMs_NtCsaruqlPBEY0K_7mostrix6modelsNtB6_5Order13update_status0B8_
FNDA:0,_RNCNvMs_NtCsaruqlPBEY0K_7mostrix6modelsNtB6_5Order16delete_all_in_tx0B8_
FNDA:0,_RNCNvMs_NtCsaruqlPBEY0K_7mostrix6modelsNtB6_5Order23get_user_history_orders0B8_
FNDA:0,_RNCNvMs_NtCsaruqlPBEY0K_7mostrix6modelsNtB6_5Order26upsert_from_small_order_dm0B8_
FNDA:0,_RNCNvMs_NtCsaruqlPBEY0K_7mostrix6modelsNtB6_5Order27delete_terminal_order_by_id0B8_
FNDA:0,_RNCNvMs_NtCsaruqlPBEY0K_7mostrix6modelsNtB6_5Order28build_order_from_small_order0B8_
FNDA:0,_RNCNvMs_NtCsaruqlPBEY0K_7mostrix6modelsNtB6_5Order28build_order_from_small_orders0_0B8_
FNDA:0,_RNCNvMs_NtCsaruqlPBEY0K_7mostrix6modelsNtB6_5Order28build_order_from_small_orders1_0B8_
FNDA:0,_RNCNvMs_NtCsaruqlPBEY0K_7mostrix6modelsNtB6_5Order28build_order_from_small_orders3_0B8_
FNDA:0,_RNCNvMs_NtCsaruqlPBEY0K_7mostrix6modelsNtB6_5Order28build_order_from_small_orders6_0B8_
FNDA:0,_RNCNvMs_NtCsaruqlPBEY0K_7mostrix6modelsNtB6_5Order28build_order_from_small_orders_0B8_
FNDA:0,_RNCNvMs_NtCsaruqlPBEY0K_7mostrix6modelsNtB6_5Order34delete_bulk_history_cleanup_orders0B8_
FNDA:0,_RNCNvMs_NtCsaruqlPBEY0K_7mostrix6modelsNtB6_5Order37list_ids_for_targeted_relay_reconcile0B8_
FNDA:5,_RNCNvMs_NtCsaruqlPBEY0K_7mostrix6modelsNtB6_5Order3new0B8_
FNDA:2,_RNCNvMs_NtCsaruqlPBEY0K_7mostrix6modelsNtB6_5Order9get_by_id0B8_
FNDA:4,_RNCNvMs_NtCsaruqlPBEY0K_7mostrix6modelsNtB6_5Order9insert_db0B8_
FNDA:1,_RNCNvMs_NtCsaruqlPBEY0K_7mostrix6modelsNtB6_5Order9update_db0B8_
FNDA:0,_RNvMNtCsaruqlPBEY0K_7mostrix6modelsNtB2_4User10delete_all
FNDA:0,_RNvMNtCsaruqlPBEY0K_7mostrix6modelsNtB2_4User13from_mnemonic
FNDA:3,_RNvMNtCsaruqlPBEY0K_7mostrix6modelsNtB2_4User17derive_trade_keys
FNDA:1,_RNvMNtCsaruqlPBEY0K_7mostrix6modelsNtB2_4User17get_identity_keys
FNDA:0,_RNvMNtCsaruqlPBEY0K_7mostrix6modelsNtB2_4User17replace_all_in_tx
FNDA:0,_RNvMNtCsaruqlPBEY0K_7mostrix6modelsNtB2_4User18replace_all_atomic
FNDA:1,_RNvMNtCsaruqlPBEY0K_7mostrix6modelsNtB2_4User23update_last_trade_index
FNDA:4,_RNvMNtCsaruqlPBEY0K_7mostrix6modelsNtB2_4User3get
FNDA:6,_RNvMNtCsaruqlPBEY0K_7mostrix6modelsNtB2_4User3new
FNDA:1,_RNvMNtCsaruqlPBEY0K_7mostrix6modelsNtB2_4User4save
FNDA:0,_RNvMs0_NtCsaruqlPBEY0K_7mostrix6modelsNtB5_12AdminDispute10can_cancel
FNDA:0,_RNvMs0_NtCsaruqlPBEY0K_7mostrix6modelsNtB5_12AdminDispute10can_settle
FNDA:0,_RNvMs0_NtCsaruqlPBEY0K_7mostrix6modelsNtB5_12AdminDispute12is_finalized
FNDA:0,_RNvMs0_NtCsaruqlPBEY0K_7mostrix6modelsNtB5_12AdminDispute18set_status_settled
FNDA:0,_RNvMs0_NtCsaruqlPBEY0K_7mostrix6modelsNtB5_12AdminDispute21deserialize_user_info
FNDA:0,_RNvMs0_NtCsaruqlPBEY0K_7mostrix6modelsNtB5_12AdminDispute23has_in_progress_dispute
FNDA:0,_RNvMs0_NtCsaruqlPBEY0K_7mostrix6modelsNtB5_12AdminDispute26set_status_seller_refunded
FNDA:0,_RNvMs0_NtCsaruqlPBEY0K_7mostrix6modelsNtB5_12AdminDispute35update_chat_last_seen_by_dispute_id
FNDA:0,_RNvMs0_NtCsaruqlPBEY0K_7mostrix6modelsNtB5_12AdminDispute3new
FNDA:0,_RNvMs0_NtCsaruqlPBEY0K_7mostrix6modelsNtB5_12AdminDispute7get_all
FNDA:0,_RNvMs0_NtCsaruqlPBEY0K_7mostrix6modelsNtB5_12AdminDispute9get_by_id
FNDA:0,_RNvMs0_NtCsaruqlPBEY0K_7mostrix6modelsNtB5_12AdminDispute9insert_db
FNDA:0,_RNvMs0_NtCsaruqlPBEY0K_7mostrix6modelsNtB5_12AdminDispute9update_db
FNDA:0,_RNvMs_NtCsaruqlPBEY0K_7mostrix6modelsNtB4_5Order13update_status
FNDA:0,_RNvMs_NtCsaruqlPBEY0K_7mostrix6modelsNtB4_5Order16delete_all_in_tx
FNDA:0,_RNvMs_NtCsaruqlPBEY0K_7mostrix6modelsNtB4_5Order22update_last_seen_dm_ts
FNDA:0,_RNvMs_NtCsaruqlPBEY0K_7mostrix6modelsNtB4_5Order23get_user_history_orders
FNDA:0,_RNvMs_NtCsaruqlPBEY0K_7mostrix6modelsNtB4_5Order25get_startup_active_orders
FNDA:0,_RNvMs_NtCsaruqlPBEY0K_7mostrix6modelsNtB4_5Order26upsert_from_small_order_dm
FNDA:0,_RNvMs_NtCsaruqlPBEY0K_7mostrix6modelsNtB4_5Order27delete_terminal_order_by_id
FNDA:0,_RNvMs_NtCsaruqlPBEY0K_7mostrix6modelsNtB4_5Order28build_order_from_small_order
FNDA:0,_RNvMs_NtCsaruqlPBEY0K_7mostrix6modelsNtB4_5Order34delete_bulk_history_cleanup_orders
FNDA:0,_RNvMs_NtCsaruqlPBEY0K_7mostrix6modelsNtB4_5Order37list_ids_for_targeted_relay_reconcile
FNDA:5,_RNvMs_NtCsaruqlPBEY0K_7mostrix6modelsNtB4_5Order3new
FNDA:2,_RNvMs_NtCsaruqlPBEY0K_7mostrix6modelsNtB4_5Order9get_by_id
FNDA:4,_RNvMs_NtCsaruqlPBEY0K_7mostrix6modelsNtB4_5Order9insert_db
FNDA:1,_RNvMs_NtCsaruqlPBEY0K_7mostrix6modelsNtB4_5Order9update_db
FNDA:6,_RNCNvNtNtCs3smmrQNj5EW_7mostrix6models24terminal_dm_status_testss_46terminal_dm_statuses_match_mostro_core_display0B7_
FNDA:1,_RNvNtNtCs3smmrQNj5EW_7mostrix6models24terminal_dm_status_testss_46terminal_dm_statuses_match_mostro_core_display
FNDA:0,_RNCNCNvMs0_NtCs3smmrQNj5EW_7mostrix6modelsNtB9_12AdminDispute3new00Bb_
FNDA:0,_RNCNCNvMs0_NtCs3smmrQNj5EW_7mostrix6modelsNtB9_12AdminDispute3new0s0_0Bb_
FNDA:0,_RNCNCNvMs0_NtCs3smmrQNj5EW_7mostrix6modelsNtB9_12AdminDispute3new0s1_0Bb_
FNDA:0,_RNCNCNvMs0_NtCs3smmrQNj5EW_7mostrix6modelsNtB9_12AdminDispute3new0s2_0Bb_
FNDA:0,_RNCNCNvMs0_NtCs3smmrQNj5EW_7mostrix6modelsNtB9_12AdminDispute3new0s_0Bb_
FNDA:0,_RNCNCNvMs_NtCs3smmrQNj5EW_7mostrix6modelsNtB8_5Order26upsert_from_small_order_dm00Ba_
FNDA:0,_RNCNvMNtCs3smmrQNj5EW_7mostrix6modelsNtB4_4User10delete_all0B6_
FNDA:0,_RNCNvMNtCs3smmrQNj5EW_7mostrix6modelsNtB4_4User17get_identity_keys0B6_
FNDA:0,_RNCNvMNtCs3smmrQNj5EW_7mostrix6modelsNtB4_4User17replace_all_in_tx0B6_
FNDA:0,_RNCNvMNtCs3smmrQNj5EW_7mostrix6modelsNtB4_4User18replace_all_atomic0B6_
FNDA:0,_RNCNvMNtCs3smmrQNj5EW_7mostrix6modelsNtB4_4User23update_last_trade_index0B6_
FNDA:0,_RNCNvMNtCs3smmrQNj5EW_7mostrix6modelsNtB4_4User3get0B6_
FNDA:0,_RNCNvMNtCs3smmrQNj5EW_7mostrix6modelsNtB4_4User4save0B6_
FNDA:0,_RNCNvMs0_NtCs3smmrQNj5EW_7mostrix6modelsNtB7_12AdminDispute12is_finalized0B9_
FNDA:0,_RNCNvMs0_NtCs3smmrQNj5EW_7mostrix6modelsNtB7_12AdminDispute12is_finalizeds_0B9_
FNDA:0,_RNCNvMs0_NtCs3smmrQNj5EW_7mostrix6modelsNtB7_12AdminDispute18set_status_settled0B9_
FNDA:0,_RNCNvMs0_NtCs3smmrQNj5EW_7mostrix6modelsNtB7_12AdminDispute23has_in_progress_dispute0B9_
FNDA:0,_RNCNvMs0_NtCs3smmrQNj5EW_7mostrix6modelsNtB7_12AdminDispute26set_status_seller_refunded0B9_
FNDA:0,_RNCNvMs0_NtCs3smmrQNj5EW_7mostrix6modelsNtB7_12AdminDispute35update_chat_last_seen_by_dispute_id0B9_
FNDA:0,_RNCNvMs0_NtCs3smmrQNj5EW_7mostrix6modelsNtB7_12AdminDispute3new0B9_
FNDA:0,_RNCNvMs0_NtCs3smmrQNj5EW_7mostrix6modelsNtB7_12AdminDispute7get_all0B9_
FNDA:0,_RNCNvMs0_NtCs3smmrQNj5EW_7mostrix6modelsNtB7_12AdminDispute9get_by_id0B9_
FNDA:0,_RNCNvMs0_NtCs3smmrQNj5EW_7mostrix6modelsNtB7_12AdminDispute9insert_db0B9_
FNDA:0,_RNCNvMs0_NtCs3smmrQNj5EW_7mostrix6modelsNtB7_12AdminDispute9update_db0B9_
FNDA:0,_RNCNvMs_NtCs3smmrQNj5EW_7mostrix6modelsNtB6_5Order16delete_all_in_tx0B8_
FNDA:0,_RNCNvMs_NtCs3smmrQNj5EW_7mostrix6modelsNtB6_5Order22update_last_seen_dm_ts0B8_
FNDA:0,_RNCNvMs_NtCs3smmrQNj5EW_7mostrix6modelsNtB6_5Order23get_user_history_orders0B8_
FNDA:0,_RNCNvMs_NtCs3smmrQNj5EW_7mostrix6modelsNtB6_5Order25get_startup_active_orders0B8_
FNDA:0,_RNCNvMs_NtCs3smmrQNj5EW_7mostrix6modelsNtB6_5Order26upsert_from_small_order_dm0B8_
FNDA:0,_RNCNvMs_NtCs3smmrQNj5EW_7mostrix6modelsNtB6_5Order27delete_terminal_order_by_id0B8_
FNDA:0,_RNCNvMs_NtCs3smmrQNj5EW_7mostrix6modelsNtB6_5Order28build_order_from_small_order0B8_
FNDA:0,_RNCNvMs_NtCs3smmrQNj5EW_7mostrix6modelsNtB6_5Order28build_order_from_small_orders0_0B8_
FNDA:0,_RNCNvMs_NtCs3smmrQNj5EW_7mostrix6modelsNtB6_5Order28build_order_from_small_orders1_0B8_
FNDA:0,_RNCNvMs_NtCs3smmrQNj5EW_7mostrix6modelsNtB6_5Order28build_order_from_small_orders3_0B8_
FNDA:0,_RNCNvMs_NtCs3smmrQNj5EW_7mostrix6modelsNtB6_5Order28build_order_from_small_orders6_0B8_
FNDA:0,_RNCNvMs_NtCs3smmrQNj5EW_7mostrix6modelsNtB6_5Order28build_order_from_small_orders_0B8_
FNDA:0,_RNCNvMs_NtCs3smmrQNj5EW_7mostrix6modelsNtB6_5Order34delete_bulk_history_cleanup_orders0B8_
FNDA:0,_RNvMNtCs3smmrQNj5EW_7mostrix6modelsNtB2_4User10delete_all
FNDA:0,_RNvMNtCs3smmrQNj5EW_7mostrix6modelsNtB2_4User13from_mnemonic
FNDA:0,_RNvMNtCs3smmrQNj5EW_7mostrix6modelsNtB2_4User17derive_trade_keys
FNDA:0,_RNvMNtCs3smmrQNj5EW_7mostrix6modelsNtB2_4User17get_identity_keys
FNDA:0,_RNvMNtCs3smmrQNj5EW_7mostrix6modelsNtB2_4User17replace_all_in_tx
FNDA:0,_RNvMNtCs3smmrQNj5EW_7mostrix6modelsNtB2_4User18replace_all_atomic
FNDA:0,_RNvMNtCs3smmrQNj5EW_7mostrix6modelsNtB2_4User23update_last_trade_index
FNDA:0,_RNvMNtCs3smmrQNj5EW_7mostrix6modelsNtB2_4User3get
FNDA:0,_RNvMNtCs3smmrQNj5EW_7mostrix6modelsNtB2_4User4save
FNDA:0,_RNvMs0_NtCs3smmrQNj5EW_7mostrix6modelsNtB5_12AdminDispute10can_cancel
FNDA:0,_RNvMs0_NtCs3smmrQNj5EW_7mostrix6modelsNtB5_12AdminDispute10can_settle
FNDA:0,_RNvMs0_NtCs3smmrQNj5EW_7mostrix6modelsNtB5_12AdminDispute12is_finalized
FNDA:0,_RNvMs0_NtCs3smmrQNj5EW_7mostrix6modelsNtB5_12AdminDispute18set_status_settled
FNDA:0,_RNvMs0_NtCs3smmrQNj5EW_7mostrix6modelsNtB5_12AdminDispute21deserialize_user_info
FNDA:0,_RNvMs0_NtCs3smmrQNj5EW_7mostrix6modelsNtB5_12AdminDispute23has_in_progress_dispute
FNDA:0,_RNvMs0_NtCs3smmrQNj5EW_7mostrix6modelsNtB5_12AdminDispute26set_status_seller_refunded
FNDA:0,_RNvMs0_NtCs3smmrQNj5EW_7mostrix6modelsNtB5_12AdminDispute35update_chat_last_seen_by_dispute_id
FNDA:0,_RNvMs0_NtCs3smmrQNj5EW_7mostrix6modelsNtB5_12AdminDispute3new
FNDA:0,_RNvMs0_NtCs3smmrQNj5EW_7mostrix6modelsNtB5_12AdminDispute7get_all
FNDA:0,_RNvMs0_NtCs3smmrQNj5EW_7mostrix6modelsNtB5_12AdminDispute9get_by_id
FNDA:0,_RNvMs0_NtCs3smmrQNj5EW_7mostrix6modelsNtB5_12AdminDispute9insert_db
FNDA:0,_RNvMs0_NtCs3smmrQNj5EW_7mostrix6modelsNtB5_12AdminDispute9update_db
FNDA:0,_RNvMs_NtCs3smmrQNj5EW_7mostrix6modelsNtB4_5Order16delete_all_in_tx
FNDA:0,_RNvMs_NtCs3smmrQNj5EW_7mostrix6modelsNtB4_5Order22update_last_seen_dm_ts
FNDA:0,_RNvMs_NtCs3smmrQNj5EW_7mostrix6modelsNtB4_5Order23get_user_history_orders
FNDA:0,_RNvMs_NtCs3smmrQNj5EW_7mostrix6modelsNtB4_5Order25get_startup_active_orders
FNDA:0,_RNvMs_NtCs3smmrQNj5EW_7mostrix6modelsNtB4_5Order26upsert_from_small_order_dm
FNDA:0,_RNvMs_NtCs3smmrQNj5EW_7mostrix6modelsNtB4_5Order27delete_terminal_order_by_id
FNDA:0,_RNvMs_NtCs3smmrQNj5EW_7mostrix6modelsNtB4_5Order28build_order_from_small_order
FNDA:0,_RNvMs_NtCs3smmrQNj5EW_7mostrix6modelsNtB4_5Order34delete_bulk_history_cleanup_orders
FNDA:3,_RNCNCNvMs_NtCs3smmrQNj5EW_7mostrix6modelsNtB8_5Order3new00Ba_
FNDA:0,_RNCNCNvMs_NtCs3smmrQNj5EW_7mostrix6modelsNtB8_5Order3new0s0_0Ba_
FNDA:3,_RNCNCNvMs_NtCs3smmrQNj5EW_7mostrix6modelsNtB8_5Order3new0s_0Ba_
FNDA:1,_RNCNvMNtCs3smmrQNj5EW_7mostrix6modelsNtB4_4User3new0B6_
FNDA:1,_RNCNvMs_NtCs3smmrQNj5EW_7mostrix6modelsNtB6_5Order13update_status0B8_
FNDA:1,_RNCNvMs_NtCs3smmrQNj5EW_7mostrix6modelsNtB6_5Order37list_ids_for_targeted_relay_reconcile0B8_
FNDA:3,_RNCNvMs_NtCs3smmrQNj5EW_7mostrix6modelsNtB6_5Order3new0B8_
FNDA:3,_RNCNvMs_NtCs3smmrQNj5EW_7mostrix6modelsNtB6_5Order9get_by_id0B8_
FNDA:3,_RNCNvMs_NtCs3smmrQNj5EW_7mostrix6modelsNtB6_5Order9insert_db0B8_
FNDA:0,_RNCNvMs_NtCs3smmrQNj5EW_7mostrix6modelsNtB6_5Order9update_db0B8_
FNDA:1,_RNvMNtCs3smmrQNj5EW_7mostrix6modelsNtB2_4User3new
FNDA:1,_RNvMs_NtCs3smmrQNj5EW_7mostrix6modelsNtB4_5Order13update_status
FNDA:1,_RNvMs_NtCs3smmrQNj5EW_7mostrix6modelsNtB4_5Order37list_ids_for_targeted_relay_reconcile
FNDA:3,_RNvMs_NtCs3smmrQNj5EW_7mostrix6modelsNtB4_5Order3new
FNDA:3,_RNvMs_NtCs3smmrQNj5EW_7mostrix6modelsNtB4_5Order9get_by_id
FNDA:3,_RNvMs_NtCs3smmrQNj5EW_7mostrix6modelsNtB4_5Order9insert_db
FNDA:0,_RNvMs_NtCs3smmrQNj5EW_7mostrix6modelsNtB4_5Order9update_db
FNDA:0,_RNCNCNvMs0_NtCs1oYyZhp1ftr_7mostrix6modelsNtB9_12AdminDispute3new00Bb_
FNDA:0,_RNCNCNvMs0_NtCs1oYyZhp1ftr_7mostrix6modelsNtB9_12AdminDispute3new0s0_0Bb_
FNDA:0,_RNCNCNvMs0_NtCs1oYyZhp1ftr_7mostrix6modelsNtB9_12AdminDispute3new0s1_0Bb_
FNDA:0,_RNCNCNvMs0_NtCs1oYyZhp1ftr_7mostrix6modelsNtB9_12AdminDispute3new0s2_0Bb_
FNDA:0,_RNCNCNvMs0_NtCs1oYyZhp1ftr_7mostrix6modelsNtB9_12AdminDispute3new0s_0Bb_
FNDA:0,_RNCNCNvMs_NtCs1oYyZhp1ftr_7mostrix6modelsNtB8_5Order26upsert_from_small_order_dm00Ba_
FNDA:0,_RNCNCNvMs_NtCs1oYyZhp1ftr_7mostrix6modelsNtB8_5Order3new00Ba_
FNDA:0,_RNCNCNvMs_NtCs1oYyZhp1ftr_7mostrix6modelsNtB8_5Order3new0s0_0Ba_
FNDA:0,_RNCNCNvMs_NtCs1oYyZhp1ftr_7mostrix6modelsNtB8_5Order3new0s_0Ba_
FNDA:0,_RNCNvMNtCs1oYyZhp1ftr_7mostrix6modelsNtB4_4User17get_identity_keys0B6_
FNDA:0,_RNCNvMNtCs1oYyZhp1ftr_7mostrix6modelsNtB4_4User17replace_all_in_tx0B6_
FNDA:0,_RNCNvMNtCs1oYyZhp1ftr_7mostrix6modelsNtB4_4User23update_last_trade_index0B6_
FNDA:0,_RNCNvMNtCs1oYyZhp1ftr_7mostrix6modelsNtB4_4User3get0B6_
FNDA:0,_RNCNvMNtCs1oYyZhp1ftr_7mostrix6modelsNtB4_4User3new0B6_
FNDA:0,_RNCNvMs0_NtCs1oYyZhp1ftr_7mostrix6modelsNtB7_12AdminDispute12is_finalized0B9_
FNDA:0,_RNCNvMs0_NtCs1oYyZhp1ftr_7mostrix6modelsNtB7_12AdminDispute12is_finalizeds_0B9_
FNDA:0,_RNCNvMs0_NtCs1oYyZhp1ftr_7mostrix6modelsNtB7_12AdminDispute18set_status_settled0B9_
FNDA:0,_RNCNvMs0_NtCs1oYyZhp1ftr_7mostrix6modelsNtB7_12AdminDispute26set_status_seller_refunded0B9_
FNDA:0,_RNCNvMs0_NtCs1oYyZhp1ftr_7mostrix6modelsNtB7_12AdminDispute35update_chat_last_seen_by_dispute_id0B9_
FNDA:0,_RNCNvMs0_NtCs1oYyZhp1ftr_7mostrix6modelsNtB7_12AdminDispute3new0B9_
FNDA:0,_RNCNvMs0_NtCs1oYyZhp1ftr_7mostrix6modelsNtB7_12AdminDispute7get_all0B9_
FNDA:0,_RNCNvMs0_NtCs1oYyZhp1ftr_7mostrix6modelsNtB7_12AdminDispute9insert_db0B9_
FNDA:0,_RNCNvMs0_NtCs1oYyZhp1ftr_7mostrix6modelsNtB7_12AdminDispute9update_db0B9_
FNDA:0,_RNCNvMs_NtCs1oYyZhp1ftr_7mostrix6modelsNtB6_5Order13update_status0B8_
FNDA:0,_RNCNvMs_NtCs1oYyZhp1ftr_7mostrix6modelsNtB6_5Order16delete_all_in_tx0B8_
FNDA:0,_RNCNvMs_NtCs1oYyZhp1ftr_7mostrix6modelsNtB6_5Order22update_last_seen_dm_ts0B8_
FNDA:0,_RNCNvMs_NtCs1oYyZhp1ftr_7mostrix6modelsNtB6_5Order23get_user_history_orders0B8_
FNDA:0,_RNCNvMs_NtCs1oYyZhp1ftr_7mostrix6modelsNtB6_5Order25get_startup_active_orders0B8_
FNDA:0,_RNCNvMs_NtCs1oYyZhp1ftr_7mostrix6modelsNtB6_5Order26upsert_from_small_order_dm0B8_
FNDA:0,_RNCNvMs_NtCs1oYyZhp1ftr_7mostrix6modelsNtB6_5Order27delete_terminal_order_by_id0B8_
FNDA:0,_RNCNvMs_NtCs1oYyZhp1ftr_7mostrix6modelsNtB6_5Order28build_order_from_small_order0B8_
FNDA:0,_RNCNvMs_NtCs1oYyZhp1ftr_7mostrix6modelsNtB6_5Order28build_order_from_small_orders0_0B8_
FNDA:0,_RNCNvMs_NtCs1oYyZhp1ftr_7mostrix6modelsNtB6_5Order28build_order_from_small_orders1_0B8_
FNDA:0,_RNCNvMs_NtCs1oYyZhp1ftr_7mostrix6modelsNtB6_5Order28build_order_from_small_orders3_0B8_
FNDA:0,_RNCNvMs_NtCs1oYyZhp1ftr_7mostrix6modelsNtB6_5Order28build_order_from_small_orders6_0B8_
FNDA:0,_RNCNvMs_NtCs1oYyZhp1ftr_7mostrix6modelsNtB6_5Order28build_order_from_small_orders_0B8_
FNDA:0,_RNCNvMs_NtCs1oYyZhp1ftr_7mostrix6modelsNtB6_5Order34delete_bulk_history_cleanup_orders0B8_
FNDA:0,_RNCNvMs_NtCs1oYyZhp1ftr_7mostrix6modelsNtB6_5Order37list_ids_for_targeted_relay_reconcile0B8_
FNDA:0,_RNCNvMs_NtCs1oYyZhp1ftr_7mostrix6modelsNtB6_5Order3new0B8_
FNDA:0,_RNCNvMs_NtCs1oYyZhp1ftr_7mostrix6modelsNtB6_5Order9get_by_id0B8_
FNDA:0,_RNCNvMs_NtCs1oYyZhp1ftr_7mostrix6modelsNtB6_5Order9insert_db0B8_
FNDA:0,_RNCNvMs_NtCs1oYyZhp1ftr_7mostrix6modelsNtB6_5Order9update_db0B8_
FNDA:0,_RNvMNtCs1oYyZhp1ftr_7mostrix6modelsNtB2_4User13from_mnemonic
FNDA:0,_RNvMNtCs1oYyZhp1ftr_7mostrix6modelsNtB2_4User17derive_trade_keys
FNDA:0,_RNvMNtCs1oYyZhp1ftr_7mostrix6modelsNtB2_4User17get_identity_keys
FNDA:0,_RNvMNtCs1oYyZhp1ftr_7mostrix6modelsNtB2_4User17replace_all_in_tx
FNDA:0,_RNvMNtCs1oYyZhp1ftr_7mostrix6modelsNtB2_4User23update_last_trade_index
FNDA:0,_RNvMNtCs1oYyZhp1ftr_7mostrix6modelsNtB2_4User3get
FNDA:0,_RNvMNtCs1oYyZhp1ftr_7mostrix6modelsNtB2_4User3new
FNDA:0,_RNvMs0_NtCs1oYyZhp1ftr_7mostrix6modelsNtB5_12AdminDispute10can_cancel
FNDA:0,_RNvMs0_NtCs1oYyZhp1ftr_7mostrix6modelsNtB5_12AdminDispute10can_settle
FNDA:0,_RNvMs0_NtCs1oYyZhp1ftr_7mostrix6modelsNtB5_12AdminDispute12is_finalized
FNDA:0,_RNvMs0_NtCs1oYyZhp1ftr_7mostrix6modelsNtB5_12AdminDispute18set_status_settled
FNDA:0,_RNvMs0_NtCs1oYyZhp1ftr_7mostrix6modelsNtB5_12AdminDispute21deserialize_user_info
FNDA:0,_RNvMs0_NtCs1oYyZhp1ftr_7mostrix6modelsNtB5_12AdminDispute26set_status_seller_refunded
FNDA:0,_RNvMs0_NtCs1oYyZhp1ftr_7mostrix6modelsNtB5_12AdminDispute35update_chat_last_seen_by_dispute_id
FNDA:0,_RNvMs0_NtCs1oYyZhp1ftr_7mostrix6modelsNtB5_12AdminDispute3new
FNDA:0,_RNvMs0_NtCs1oYyZhp1ftr_7mostrix6modelsNtB5_12AdminDispute7get_all
FNDA:0,_RNvMs0_NtCs1oYyZhp1ftr_7mostrix6modelsNtB5_12AdminDispute9insert_db
FNDA:0,_RNvMs0_NtCs1oYyZhp1ftr_7mostrix6modelsNtB5_12AdminDispute9update_db
FNDA:0,_RNvMs_NtCs1oYyZhp1ftr_7mostrix6modelsNtB4_5Order13update_status
FNDA:0,_RNvMs_NtCs1oYyZhp1ftr_7mostrix6modelsNtB4_5Order16delete_all_in_tx
FNDA:0,_RNvMs_NtCs1oYyZhp1ftr_7mostrix6modelsNtB4_5Order22update_last_seen_dm_ts
FNDA:0,_RNvMs_NtCs1oYyZhp1ftr_7mostrix6modelsNtB4_5Order23get_user_history_orders
FNDA:0,_RNvMs_NtCs1oYyZhp1ftr_7mostrix6modelsNtB4_5Order25get_startup_active_orders
FNDA:0,_RNvMs_NtCs1oYyZhp1ftr_7mostrix6modelsNtB4_5Order26upsert_from_small_order_dm
FNDA:0,_RNvMs_NtCs1oYyZhp1ftr_7mostrix6modelsNtB4_5Order27delete_terminal_order_by_id
FNDA:0,_RNvMs_NtCs1oYyZhp1ftr_7mostrix6modelsNtB4_5Order28build_order_from_small_order
FNDA:0,_RNvMs_NtCs1oYyZhp1ftr_7mostrix6modelsNtB4_5Order34delete_bulk_history_cleanup_orders
FNDA:0,_RNvMs_NtCs1oYyZhp1ftr_7mostrix6modelsNtB4_5Order37list_ids_for_targeted_relay_reconcile
FNDA:0,_RNvMs_NtCs1oYyZhp1ftr_7mostrix6modelsNtB4_5Order3new
FNDA:0,_RNvMs_NtCs1oYyZhp1ftr_7mostrix6modelsNtB4_5Order9get_by_id
FNDA:0,_RNvMs_NtCs1oYyZhp1ftr_7mostrix6modelsNtB4_5Order9insert_db
FNDA:0,_RNvMs_NtCs1oYyZhp1ftr_7mostrix6modelsNtB4_5Order9update_db
FNDA:0,_RNCNvMNtCs1oYyZhp1ftr_7mostrix6modelsNtB4_4User10delete_all0B6_
FNDA:0,_RNCNvMNtCs1oYyZhp1ftr_7mostrix6modelsNtB4_4User18replace_all_atomic0B6_
FNDA:0,_RNCNvMNtCs1oYyZhp1ftr_7mostrix6modelsNtB4_4User4save0B6_
FNDA:0,_RNCNvMs0_NtCs1oYyZhp1ftr_7mostrix6modelsNtB7_12AdminDispute23has_in_progress_dispute0B9_
FNDA:0,_RNCNvMs0_NtCs1oYyZhp1ftr_7mostrix6modelsNtB7_12AdminDispute9get_by_id0B9_
FNDA:0,_RNvMNtCs1oYyZhp1ftr_7mostrix6modelsNtB2_4User10delete_all
FNDA:0,_RNvMNtCs1oYyZhp1ftr_7mostrix6modelsNtB2_4User18replace_all_atomic
FNDA:0,_RNvMNtCs1oYyZhp1ftr_7mostrix6modelsNtB2_4User4save
FNDA:0,_RNvMs0_NtCs1oYyZhp1ftr_7mostrix6modelsNtB5_12AdminDispute23has_in_progress_dispute
FNDA:0,_RNvMs0_NtCs1oYyZhp1ftr_7mostrix6modelsNtB5_12AdminDispute9get_by_id
FNDA:3,_RNCNCNvMs_NtCsbwworP4HFOr_7mostrix6modelsNtB8_5Order3new00Ba_
FNDA:0,_RNCNCNvMs_NtCsbwworP4HFOr_7mostrix6modelsNtB8_5Order3new0s0_0Ba_
FNDA:3,_RNCNCNvMs_NtCsbwworP4HFOr_7mostrix6modelsNtB8_5Order3new0s_0Ba_
FNDA:0,_RNCNvMNtCsbwworP4HFOr_7mostrix6modelsNtB4_4User3new0B6_
FNDA:1,_RNCNvMs_NtCsbwworP4HFOr_7mostrix6modelsNtB6_5Order13update_status0B8_
FNDA:1,_RNCNvMs_NtCsbwworP4HFOr_7mostrix6modelsNtB6_5Order37list_ids_for_targeted_relay_reconcile0B8_
FNDA:3,_RNCNvMs_NtCsbwworP4HFOr_7mostrix6modelsNtB6_5Order3new0B8_
FNDA:3,_RNCNvMs_NtCsbwworP4HFOr_7mostrix6modelsNtB6_5Order9get_by_id0B8_
FNDA:3,_RNCNvMs_NtCsbwworP4HFOr_7mostrix6modelsNtB6_5Order9insert_db0B8_
FNDA:0,_RNCNvMs_NtCsbwworP4HFOr_7mostrix6modelsNtB6_5Order9update_db0B8_
FNDA:0,_RNvMNtCsbwworP4HFOr_7mostrix6modelsNtB2_4User3new
FNDA:1,_RNvMs_NtCsbwworP4HFOr_7mostrix6modelsNtB4_5Order13update_status
FNDA:1,_RNvMs_NtCsbwworP4HFOr_7mostrix6modelsNtB4_5Order37list_ids_for_targeted_relay_reconcile
FNDA:3,_RNvMs_NtCsbwworP4HFOr_7mostrix6modelsNtB4_5Order3new
FNDA:3,_RNvMs_NtCsbwworP4HFOr_7mostrix6modelsNtB4_5Order9get_by_id
FNDA:3,_RNvMs_NtCsbwworP4HFOr_7mostrix6modelsNtB4_5Order9insert_db
FNDA:0,_RNvMs_NtCsbwworP4HFOr_7mostrix6modelsNtB4_5Order9update_db
FNDA:0,_RNCNCNvMs0_NtCsbwworP4HFOr_7mostrix6modelsNtB9_12AdminDispute3new00Bb_
FNDA:0,_RNCNCNvMs0_NtCsbwworP4HFOr_7mostrix6modelsNtB9_12AdminDispute3new0s0_0Bb_
FNDA:0,_RNCNCNvMs0_NtCsbwworP4HFOr_7mostrix6modelsNtB9_12AdminDispute3new0s1_0Bb_
FNDA:0,_RNCNCNvMs0_NtCsbwworP4HFOr_7mostrix6modelsNtB9_12AdminDispute3new0s2_0Bb_
FNDA:0,_RNCNCNvMs0_NtCsbwworP4HFOr_7mostrix6modelsNtB9_12AdminDispute3new0s_0Bb_
FNDA:0,_RNCNCNvMs_NtCsbwworP4HFOr_7mostrix6modelsNtB8_5Order26upsert_from_small_order_dm00Ba_
FNDA:0,_RNCNvMNtCsbwworP4HFOr_7mostrix6modelsNtB4_4User10delete_all0B6_
FNDA:0,_RNCNvMNtCsbwworP4HFOr_7mostrix6modelsNtB4_4User17get_identity_keys0B6_
FNDA:0,_RNCNvMNtCsbwworP4HFOr_7mostrix6modelsNtB4_4User17replace_all_in_tx0B6_
FNDA:0,_RNCNvMNtCsbwworP4HFOr_7mostrix6modelsNtB4_4User18replace_all_atomic0B6_
FNDA:0,_RNCNvMNtCsbwworP4HFOr_7mostrix6modelsNtB4_4User23update_last_trade_index0B6_
FNDA:0,_RNCNvMNtCsbwworP4HFOr_7mostrix6modelsNtB4_4User3get0B6_
FNDA:0,_RNCNvMNtCsbwworP4HFOr_7mostrix6modelsNtB4_4User4save0B6_
FNDA:0,_RNCNvMs0_NtCsbwworP4HFOr_7mostrix6modelsNtB7_12AdminDispute12is_finalized0B9_
FNDA:0,_RNCNvMs0_NtCsbwworP4HFOr_7mostrix6modelsNtB7_12AdminDispute12is_finalizeds_0B9_
FNDA:0,_RNCNvMs0_NtCsbwworP4HFOr_7mostrix6modelsNtB7_12AdminDispute18set_status_settled0B9_
FNDA:0,_RNCNvMs0_NtCsbwworP4HFOr_7mostrix6modelsNtB7_12AdminDispute23has_in_progress_dispute0B9_
FNDA:0,_RNCNvMs0_NtCsbwworP4HFOr_7mostrix6modelsNtB7_12AdminDispute26set_status_seller_refunded0B9_
FNDA:0,_RNCNvMs0_NtCsbwworP4HFOr_7mostrix6modelsNtB7_12AdminDispute35update_chat_last_seen_by_dispute_id0B9_
FNDA:0,_RNCNvMs0_NtCsbwworP4HFOr_7mostrix6modelsNtB7_12AdminDispute3new0B9_
FNDA:0,_RNCNvMs0_NtCsbwworP4HFOr_7mostrix6modelsNtB7_12AdminDispute7get_all0B9_
FNDA:0,_RNCNvMs0_NtCsbwworP4HFOr_7mostrix6modelsNtB7_12AdminDispute9get_by_id0B9_
FNDA:0,_RNCNvMs0_NtCsbwworP4HFOr_7mostrix6modelsNtB7_12AdminDispute9insert_db0B9_
FNDA:0,_RNCNvMs0_NtCsbwworP4HFOr_7mostrix6modelsNtB7_12AdminDispute9update_db0B9_
FNDA:0,_RNCNvMs_NtCsbwworP4HFOr_7mostrix6modelsNtB6_5Order16delete_all_in_tx0B8_
FNDA:0,_RNCNvMs_NtCsbwworP4HFOr_7mostrix6modelsNtB6_5Order22update_last_seen_dm_ts0B8_
FNDA:0,_RNCNvMs_NtCsbwworP4HFOr_7mostrix6modelsNtB6_5Order23get_user_history_orders0B8_
FNDA:0,_RNCNvMs_NtCsbwworP4HFOr_7mostrix6modelsNtB6_5Order25get_startup_active_orders0B8_
FNDA:0,_RNCNvMs_NtCsbwworP4HFOr_7mostrix6modelsNtB6_5Order26upsert_from_small_order_dm0B8_
FNDA:0,_RNCNvMs_NtCsbwworP4HFOr_7mostrix6modelsNtB6_5Order27delete_terminal_order_by_id0B8_
FNDA:0,_RNCNvMs_NtCsbwworP4HFOr_7mostrix6modelsNtB6_5Order28build_order_from_small_order0B8_
FNDA:0,_RNCNvMs_NtCsbwworP4HFOr_7mostrix6modelsNtB6_5Order28build_order_from_small_orders0_0B8_
FNDA:0,_RNCNvMs_NtCsbwworP4HFOr_7mostrix6modelsNtB6_5Order28build_order_from_small_orders1_0B8_
FNDA:0,_RNCNvMs_NtCsbwworP4HFOr_7mostrix6modelsNtB6_5Order28build_order_from_small_orders3_0B8_
FNDA:0,_RNCNvMs_NtCsbwworP4HFOr_7mostrix6modelsNtB6_5Order28build_order_from_small_orders6_0B8_
FNDA:0,_RNCNvMs_NtCsbwworP4HFOr_7mostrix6modelsNtB6_5Order28build_order_from_small_orders_0B8_
FNDA:0,_RNCNvMs_NtCsbwworP4HFOr_7mostrix6modelsNtB6_5Order34delete_bulk_history_cleanup_orders0B8_
FNDA:0,_RNvMNtCsbwworP4HFOr_7mostrix6modelsNtB2_4User10delete_all
FNDA:0,_RNvMNtCsbwworP4HFOr_7mostrix6modelsNtB2_4User13from_mnemonic
FNDA:0,_RNvMNtCsbwworP4HFOr_7mostrix6modelsNtB2_4User17derive_trade_keys
FNDA:0,_RNvMNtCsbwworP4HFOr_7mostrix6modelsNtB2_4User17get_identity_keys
FNDA:0,_RNvMNtCsbwworP4HFOr_7mostrix6modelsNtB2_4User17replace_all_in_tx
FNDA:0,_RNvMNtCsbwworP4HFOr_7mostrix6modelsNtB2_4User18replace_all_atomic
FNDA:0,_RNvMNtCsbwworP4HFOr_7mostrix6modelsNtB2_4User23update_last_trade_index
FNDA:0,_RNvMNtCsbwworP4HFOr_7mostrix6modelsNtB2_4User3get
FNDA:0,_RNvMNtCsbwworP4HFOr_7mostrix6modelsNtB2_4User4save
FNDA:0,_RNvMs0_NtCsbwworP4HFOr_7mostrix6modelsNtB5_12AdminDispute10can_cancel
FNDA:0,_RNvMs0_NtCsbwworP4HFOr_7mostrix6modelsNtB5_12AdminDispute10can_settle
FNDA:0,_RNvMs0_NtCsbwworP4HFOr_7mostrix6modelsNtB5_12AdminDispute12is_finalized
FNDA:0,_RNvMs0_NtCsbwworP4HFOr_7mostrix6modelsNtB5_12AdminDispute18set_status_settled
FNDA:0,_RNvMs0_NtCsbwworP4HFOr_7mostrix6modelsNtB5_12AdminDispute21deserialize_user_info
FNDA:0,_RNvMs0_NtCsbwworP4HFOr_7mostrix6modelsNtB5_12AdminDispute23has_in_progress_dispute
FNDA:0,_RNvMs0_NtCsbwworP4HFOr_7mostrix6modelsNtB5_12AdminDispute26set_status_seller_refunded
FNDA:0,_RNvMs0_NtCsbwworP4HFOr_7mostrix6modelsNtB5_12AdminDispute35update_chat_last_seen_by_dispute_id
FNDA:0,_RNvMs0_NtCsbwworP4HFOr_7mostrix6modelsNtB5_12AdminDispute3new
FNDA:0,_RNvMs0_NtCsbwworP4HFOr_7mostrix6modelsNtB5_12AdminDispute7get_all
FNDA:0,_RNvMs0_NtCsbwworP4HFOr_7mostrix6modelsNtB5_12AdminDispute9get_by_id
FNDA:0,_RNvMs0_NtCsbwworP4HFOr_7mostrix6modelsNtB5_12AdminDispute9insert_db
FNDA:0,_RNvMs0_NtCsbwworP4HFOr_7mostrix6modelsNtB5_12AdminDispute9update_db
FNDA:0,_RNvMs_NtCsbwworP4HFOr_7mostrix6modelsNtB4_5Order16delete_all_in_tx
FNDA:0,_RNvMs_NtCsbwworP4HFOr_7mostrix6modelsNtB4_5Order22update_last_seen_dm_ts
FNDA:0,_RNvMs_NtCsbwworP4HFOr_7mostrix6modelsNtB4_5Order23get_user_history_orders
FNDA:0,_RNvMs_NtCsbwworP4HFOr_7mostrix6modelsNtB4_5Order25get_startup_active_orders
FNDA:0,_RNvMs_NtCsbwworP4HFOr_7mostrix6modelsNtB4_5Order26upsert_from_small_order_dm
FNDA:0,_RNvMs_NtCsbwworP4HFOr_7mostrix6modelsNtB4_5Order27delete_terminal_order_by_id
FNDA:0,_RNvMs_NtCsbwworP4HFOr_7mostrix6modelsNtB4_5Order28build_order_from_small_order
FNDA:0,_RNvMs_NtCsbwworP4HFOr_7mostrix6modelsNtB4_5Order34delete_bulk_history_cleanup_orders
FNDA:6,_RNCNvNtNtCsbwworP4HFOr_7mostrix6models24terminal_dm_status_testss_46terminal_dm_statuses_match_mostro_core_display0B7_
FNDA:1,_RNvNtNtCsbwworP4HFOr_7mostrix6models24terminal_dm_status_testss_46terminal_dm_statuses_match_mostro_core_display
FNF:86
FNH:28
DA:18,0
DA:19,0
DA:20,0
DA:21,0
DA:22,0
DA:23,0
DA:24,0
DA:25,0
DA:26,0
DA:27,0
DA:29,7
DA:30,7
DA:31,7
DA:32,7
DA:33,7
DA:34,7
DA:35,7
DA:36,7
DA:37,7
DA:38,7
DA:39,7
DA:40,7
DA:41,7
DA:42,7
DA:43,7
DA:44,7
DA:45,7
DA:46,7
DA:47,7
DA:49,7
DA:50,7
DA:53,1
DA:54,1
DA:55,1
DA:56,1
DA:57,1
DA:58,1
DA:59,1
DA:60,1
DA:61,1
DA:62,1
DA:63,1
DA:64,1
DA:65,1
DA:67,1
DA:68,1
DA:70,4
DA:71,4
DA:72,4
DA:73,4
DA:74,4
DA:75,4
DA:76,4
DA:77,4
DA:79,0
DA:80,0
DA:81,0
DA:82,0
DA:88,0
DA:89,0
DA:91,0
DA:92,0
DA:93,0
DA:94,0
DA:96,0
DA:97,0
DA:99,0
DA:100,0
DA:101,0
DA:102,0
DA:103,0
DA:104,0
DA:105,0
DA:106,0
DA:107,0
DA:108,0
DA:109,0
DA:110,0
DA:111,0
DA:112,0
DA:113,0
DA:114,0
DA:115,0
DA:116,0
DA:117,0
DA:118,0
DA:120,1
DA:121,1
DA:122,1
DA:123,1
DA:124,1
DA:125,1
DA:126,1
DA:127,1
DA:128,1
DA:130,1
DA:131,1
DA:132,1
DA:133,1
DA:134,1
DA:136,1
DA:137,1
DA:139,3
DA:140,3
DA:141,3
DA:142,3
DA:143,3
DA:144,3
DA:145,3
DA:146,3
DA:147,0
DA:148,3
DA:149,3
DA:218,0
DA:219,0
DA:220,0
DA:221,0
DA:222,0
DA:223,0
DA:224,0
DA:225,0
DA:231,11
DA:232,11
DA:233,11
DA:234,11
DA:235,11
DA:236,11
DA:237,11
DA:238,11
DA:239,11
DA:240,1
DA:241,1
DA:244,10
DA:245,10
DA:247,10
DA:248,9
DA:249,1
DA:251,10
DA:252,10
DA:253,10
DA:254,10
DA:255,10
DA:256,10
DA:257,10
DA:258,10
DA:259,10
DA:260,10
DA:261,10
DA:262,10
DA:263,10
DA:264,10
DA:265,10
DA:266,10
DA:267,10
DA:268,10
DA:269,10
DA:270,10
DA:271,10
DA:275,10
DA:277,10
DA:279,1
DA:280,1
DA:281,1
DA:282,1
DA:284,0
DA:287,1
DA:288,1
DA:290,0
DA:292,9
DA:294,10
DA:295,11
DA:297,10
DA:298,10
DA:299,10
DA:300,10
DA:301,10
DA:302,10
DA:303,10
DA:304,10
DA:305,10
DA:306,10
DA:307,10
DA:308,10
DA:309,10
DA:310,10
DA:311,10
DA:312,10
DA:313,10
DA:314,10
DA:315,10
DA:316,10
DA:317,10
DA:318,10
DA:319,10
DA:320,10
DA:321,10
DA:322,10
DA:323,10
DA:324,10
DA:325,10
DA:326,10
DA:327,10
DA:328,9
DA:329,10
DA:331,1
DA:332,1
DA:333,1
DA:334,1
DA:335,1
DA:336,1
DA:337,1
DA:338,1
DA:339,1
DA:340,1
DA:341,1
DA:342,1
DA:343,1
DA:344,1
DA:345,1
DA:346,1
DA:347,1
DA:348,1
DA:349,1
DA:350,1
DA:351,1
DA:352,1
DA:353,1
DA:354,1
DA:355,1
DA:356,1
DA:357,1
DA:358,1
DA:359,1
DA:360,1
DA:361,1
DA:362,1
DA:363,1
DA:364,1
DA:365,1
DA:367,0
DA:368,0
DA:369,0
DA:370,0
DA:371,0
DA:372,0
DA:373,0
DA:374,0
DA:375,0
DA:376,0
DA:377,0
DA:378,0
DA:379,0
DA:380,0
DA:382,0
DA:383,0
DA:388,0
DA:389,0
DA:390,0
DA:391,0
DA:392,0
DA:393,0
DA:394,0
DA:395,0
DA:396,0
DA:397,0
DA:398,0
DA:399,0
DA:400,0
DA:401,0
DA:402,0
DA:403,0
DA:404,0
DA:405,0
DA:406,0
DA:407,0
DA:408,0
DA:409,0
DA:411,0
DA:420,0
DA:421,0
DA:422,0
DA:423,0
DA:424,0
DA:425,0
DA:426,0
DA:427,0
DA:428,0
DA:429,0
DA:431,0
DA:432,0
DA:433,0
DA:434,0
DA:435,0
DA:436,0
DA:437,0
DA:440,0
DA:441,0
DA:442,0
DA:443,0
DA:444,0
DA:445,0
DA:446,0
DA:449,0
DA:451,0
DA:452,0
DA:453,0
DA:454,0
DA:455,0
DA:456,0
DA:457,0
DA:459,0
DA:461,0
DA:462,0
DA:463,0
DA:464,0
DA:465,0
DA:466,0
DA:467,0
DA:468,0
DA:470,0
DA:471,0
DA:473,0
DA:477,0
DA:479,8
DA:480,8
DA:481,8
DA:482,8
DA:483,8
DA:484,8
DA:485,8
DA:486,8
DA:487,8
DA:488,8
DA:490,5
DA:491,0
DA:492,5
DA:494,5
DA:495,8
DA:499,2
DA:500,2
DA:501,2
DA:502,2
DA:503,2
DA:504,2
DA:505,2
DA:506,2
DA:507,2
DA:508,2
DA:509,2
DA:510,2
DA:511,2
DA:512,2
DA:513,2
DA:514,2
DA:516,2
DA:517,2
DA:519,0
DA:520,0
DA:521,0
DA:522,0
DA:523,0
DA:524,0
DA:525,0
DA:526,0
DA:527,0
DA:528,0
DA:529,0
DA:530,0
DA:531,0
DA:532,0
DA:533,0
DA:534,0
DA:535,0
DA:536,0
DA:538,0
DA:539,0
DA:540,0
DA:541,0
DA:547,0
DA:548,0
DA:549,0
DA:550,0
DA:552,0
DA:553,0
DA:554,0
DA:555,0
DA:556,0
DA:557,0
DA:558,0
DA:564,2
DA:565,2
DA:571,2
DA:572,16
DA:573,14
DA:574,14
DA:576,2
DA:577,2
DA:578,2
DA:579,2
DA:582,0
DA:583,0
DA:584,0
DA:585,0
DA:586,0
DA:587,0
DA:588,0
DA:589,0
DA:590,0
DA:591,0
DA:592,0
DA:593,0
DA:594,0
DA:598,0
DA:599,0
DA:600,0
DA:601,0
DA:603,0
DA:604,0
DA:605,0
DA:606,0
DA:608,0
DA:609,0
DA:610,0
DA:611,0
DA:615,0
DA:616,0
DA:617,0
DA:619,0
DA:620,0
DA:621,0
DA:622,0
DA:624,0
DA:625,0
DA:626,0
DA:627,0
DA:675,0
DA:676,0
DA:677,0
DA:678,0
DA:679,0
DA:680,0
DA:681,0
DA:683,0
DA:684,0
DA:685,0
DA:686,0
DA:687,0
DA:688,0
DA:691,0
DA:692,0
DA:693,0
DA:695,0
DA:696,0
DA:697,0
DA:700,0
DA:701,0
DA:702,0
DA:703,0
DA:704,0
DA:705,0
DA:707,0
DA:708,0
DA:709,0
DA:710,0
DA:711,0
DA:713,0
DA:714,0
DA:715,0
DA:718,0
DA:719,0
DA:722,0
DA:723,0
DA:724,0
DA:725,0
DA:726,0
DA:727,0
DA:728,0
DA:729,0
DA:732,0
DA:733,0
DA:734,0
DA:736,0
DA:737,0
DA:738,0
DA:739,0
DA:740,0
DA:741,0
DA:742,0
DA:743,0
DA:744,0
DA:745,0
DA:746,0
DA:747,0
DA:748,0
DA:749,0
DA:750,0
DA:751,0
DA:752,0
DA:753,0
DA:754,0
DA:755,0
DA:756,0
DA:757,0
DA:758,0
DA:759,0
DA:760,0
DA:761,0
DA:762,0
DA:763,0
DA:764,0
DA:765,0
DA:766,0
DA:767,0
DA:768,0
DA:771,0
DA:773,0
DA:775,0
DA:776,0
DA:777,0
DA:778,0
DA:780,0
DA:783,0
DA:784,0
DA:786,0
DA:788,0
DA:790,0
DA:791,0
DA:793,0
DA:794,0
DA:795,0
DA:796,0
DA:797,0
DA:798,0
DA:799,0
DA:800,0
DA:801,0
DA:802,0
DA:803,0
DA:804,0
DA:805,0
DA:806,0
DA:807,0
DA:808,0
DA:809,0
DA:810,0
DA:811,0
DA:812,0
DA:813,0
DA:814,0
DA:815,0
DA:816,0
DA:817,0
DA:818,0
DA:819,0
DA:820,0
DA:821,0
DA:822,0
DA:823,0
DA:824,0
DA:825,0
DA:826,0
DA:827,0
DA:828,0
DA:829,0
DA:830,0
DA:831,0
DA:832,0
DA:833,0
DA:834,0
DA:835,0
DA:836,0
DA:837,0
DA:838,0
DA:839,0
DA:840,0
DA:841,0
DA:843,0
DA:844,0
DA:845,0
DA:846,0
DA:847,0
DA:848,0
DA:849,0
DA:850,0
DA:851,0
DA:852,0
DA:853,0
DA:854,0
DA:855,0
DA:856,0
DA:857,0
DA:858,0
DA:859,0
DA:860,0
DA:861,0
DA:862,0
DA:863,0
DA:864,0
DA:865,0
DA:866,0
DA:867,0
DA:868,0
DA:869,0
DA:870,0
DA:871,0
DA:872,0
DA:873,0
DA:874,0
DA:875,0
DA:876,0
DA:877,0
DA:878,0
DA:879,0
DA:880,0
DA:881,0
DA:882,0
DA:883,0
DA:884,0
DA:885,0
DA:886,0
DA:887,0
DA:888,0
DA:889,0
DA:890,0
DA:893,0
DA:894,0
DA:895,0
DA:896,0
DA:897,0
DA:898,0
DA:899,0
DA:902,0
DA:903,0
DA:904,0
DA:906,0
DA:907,0
DA:910,0
DA:911,0
DA:912,0
DA:913,0
DA:914,0
DA:915,0
DA:916,0
DA:919,0
DA:921,0
DA:922,0
DA:925,0
DA:926,0
DA:927,0
DA:928,0
DA:929,0
DA:930,0
DA:931,0
DA:932,0
DA:938,0
DA:939,0
DA:940,0
DA:941,0
DA:942,0
DA:943,0
DA:944,0
DA:945,0
DA:946,0
DA:953,0
DA:954,0
DA:955,0
DA:956,0
DA:957,0
DA:958,0
DA:959,0
DA:960,0
DA:962,0
DA:964,0
DA:965,0
DA:966,0
DA:967,0
DA:968,0
DA:969,0
DA:970,0
DA:976,0
DA:977,0
DA:978,0
DA:979,0
DA:980,0
DA:981,0
DA:982,0
DA:983,0
DA:989,0
DA:990,0
DA:991,0
DA:992,0
DA:993,0
DA:994,0
DA:995,0
DA:996,0
DA:1001,0
DA:1003,0
DA:1004,0
DA:1005,0
DA:1006,0
DA:1007,0
DA:1008,0
DA:1013,0
DA:1014,0
DA:1015,0
DA:1020,0
DA:1021,0
DA:1022,0
DA:1027,0
DA:1028,0
DA:1029,0
DA:1038,2
DA:1039,2
DA:1040,2
DA:1041,2
DA:1042,2
DA:1043,2
DA:1044,2
DA:1045,2
DA:1046,2
DA:1047,2
DA:1048,2
DA:1049,2
DA:1050,2
DA:1051,2
DA:1052,2
DA:1053,12
DA:1054,2
DA:1055,2
DA:1057,0
DA:1059,2
BRF:0
BRH:0
LF:779
LH:262
end_of_record
SF:/home/runner/work/mostrix/mostrix/src/settings.rs
FN:334,_RNCNCNvNtCsaruqlPBEY0K_7mostrix8settings13save_settingss_00B7_
FN:160,_RNCNCNvNtCsaruqlPBEY0K_7mostrix8settings31init_or_load_settings_from_disks_00B7_
FN:327,_RNCNvNtCsaruqlPBEY0K_7mostrix8settings13save_settings0B5_
FN:336,_RNCNvNtCsaruqlPBEY0K_7mostrix8settings13save_settingss0_0B5_
FN:340,_RNCNvNtCsaruqlPBEY0K_7mostrix8settings13save_settingss1_0B5_
FN:343,_RNCNvNtCsaruqlPBEY0K_7mostrix8settings13save_settingss2_0B5_
FN:334,_RNCNvNtCsaruqlPBEY0K_7mostrix8settings13save_settingss_0B5_
FN:135,_RNCNvNtCsaruqlPBEY0K_7mostrix8settings31init_or_load_settings_from_disk0B5_
FN:203,_RNCNvNtCsaruqlPBEY0K_7mostrix8settings31init_or_load_settings_from_disks0_0B5_
FN:210,_RNCNvNtCsaruqlPBEY0K_7mostrix8settings31init_or_load_settings_from_disks1_0B5_
FN:217,_RNCNvNtCsaruqlPBEY0K_7mostrix8settings31init_or_load_settings_from_disks2_0B5_
FN:223,_RNCNvNtCsaruqlPBEY0K_7mostrix8settings31init_or_load_settings_from_disks3_0B5_
FN:235,_RNCNvNtCsaruqlPBEY0K_7mostrix8settings31init_or_load_settings_from_disks4_0B5_
FN:251,_RNCNvNtCsaruqlPBEY0K_7mostrix8settings31init_or_load_settings_from_disks5_0B5_
FN:160,_RNCNvNtCsaruqlPBEY0K_7mostrix8settings31init_or_load_settings_from_disks_0B5_
FN:147,_RNCNvNvNtCsaruqlPBEY0K_7mostrix8settings31init_or_load_settings_from_disk23load_settings_from_path0B7_
FN:151,_RNCNvNvNtCsaruqlPBEY0K_7mostrix8settings31init_or_load_settings_from_disk23load_settings_from_paths_0B7_
FN:59,_RNvNtCsaruqlPBEY0K_7mostrix8settings13init_settings
FN:325,_RNvNtCsaruqlPBEY0K_7mostrix8settings13save_settings
FN:30,_RNvNtCsaruqlPBEY0K_7mostrix8settings17default_user_mode
FN:320,_RNvNtCsaruqlPBEY0K_7mostrix8settings23load_settings_from_disk
FN:89,_RNvNtCsaruqlPBEY0K_7mostrix8settings26validate_currencies_config
FN:130,_RNvNtCsaruqlPBEY0K_7mostrix8settings31init_or_load_settings_from_disk
FN:141,_RNvNvNtCsaruqlPBEY0K_7mostrix8settings31init_or_load_settings_from_disk23load_settings_from_path
FN:42,_RNvXNtCsaruqlPBEY0K_7mostrix8settingsNtB2_8SettingsNtNtCs5GmCzIpY9Qj_4core7default7Default7default
FN:385,_RNvNtNtCs3smmrQNj5EW_7mostrix8settings5testss_44settings_rejects_deprecated_currencies_field
FN:354,_RNvNtNtCs3smmrQNj5EW_7mostrix8settings5testss_63legacy_settings_without_ln_address_deserializes_to_empty_string
FN:334,_RNCNCNvNtCs3smmrQNj5EW_7mostrix8settings13save_settingss_00B7_
FN:327,_RNCNvNtCs3smmrQNj5EW_7mostrix8settings13save_settings0B5_
FN:336,_RNCNvNtCs3smmrQNj5EW_7mostrix8settings13save_settingss0_0B5_
FN:340,_RNCNvNtCs3smmrQNj5EW_7mostrix8settings13save_settingss1_0B5_
FN:343,_RNCNvNtCs3smmrQNj5EW_7mostrix8settings13save_settingss2_0B5_
FN:334,_RNCNvNtCs3smmrQNj5EW_7mostrix8settings13save_settingss_0B5_
FN:59,_RNvNtCs3smmrQNj5EW_7mostrix8settings13init_settings
FN:325,_RNvNtCs3smmrQNj5EW_7mostrix8settings13save_settings
FN:42,_RNvXNtCs3smmrQNj5EW_7mostrix8settingsNtB2_8SettingsNtNtCs5GmCzIpY9Qj_4core7default7Default7default
FN:160,_RNCNCNvNtCs3smmrQNj5EW_7mostrix8settings31init_or_load_settings_from_disks_00B7_
FN:135,_RNCNvNtCs3smmrQNj5EW_7mostrix8settings31init_or_load_settings_from_disk0B5_
FN:203,_RNCNvNtCs3smmrQNj5EW_7mostrix8settings31init_or_load_settings_from_disks0_0B5_
FN:210,_RNCNvNtCs3smmrQNj5EW_7mostrix8settings31init_or_load_settings_from_disks1_0B5_
FN:217,_RNCNvNtCs3smmrQNj5EW_7mostrix8settings31init_or_load_settings_from_disks2_0B5_
FN:223,_RNCNvNtCs3smmrQNj5EW_7mostrix8settings31init_or_load_settings_from_disks3_0B5_
FN:235,_RNCNvNtCs3smmrQNj5EW_7mostrix8settings31init_or_load_settings_from_disks4_0B5_
FN:251,_RNCNvNtCs3smmrQNj5EW_7mostrix8settings31init_or_load_settings_from_disks5_0B5_
FN:160,_RNCNvNtCs3smmrQNj5EW_7mostrix8settings31init_or_load_settings_from_disks_0B5_
FN:147,_RNCNvNvNtCs3smmrQNj5EW_7mostrix8settings31init_or_load_settings_from_disk23load_settings_from_path0B7_
FN:151,_RNCNvNvNtCs3smmrQNj5EW_7mostrix8settings31init_or_load_settings_from_disk23load_settings_from_paths_0B7_
FN:30,_RNvNtCs3smmrQNj5EW_7mostrix8settings17default_user_mode
FN:320,_RNvNtCs3smmrQNj5EW_7mostrix8settings23load_settings_from_disk
FN:89,_RNvNtCs3smmrQNj5EW_7mostrix8settings26validate_currencies_config
FN:130,_RNvNtCs3smmrQNj5EW_7mostrix8settings31init_or_load_settings_from_disk
FN:141,_RNvNvNtCs3smmrQNj5EW_7mostrix8settings31init_or_load_settings_from_disk23load_settings_from_path
FN:42,_RNvXNtCs1oYyZhp1ftr_7mostrix8settingsNtB2_8SettingsNtNtCs5GmCzIpY9Qj_4core7default7Default7default
FN:334,_RNCNCNvNtCs1oYyZhp1ftr_7mostrix8settings13save_settingss_00B7_
FN:160,_RNCNCNvNtCs1oYyZhp1ftr_7mostrix8settings31init_or_load_settings_from_disks_00B7_
FN:327,_RNCNvNtCs1oYyZhp1ftr_7mostrix8settings13save_settings0B5_
FN:336,_RNCNvNtCs1oYyZhp1ftr_7mostrix8settings13save_settingss0_0B5_
FN:340,_RNCNvNtCs1oYyZhp1ftr_7mostrix8settings13save_settingss1_0B5_
FN:343,_RNCNvNtCs1oYyZhp1ftr_7mostrix8settings13save_settingss2_0B5_
FN:334,_RNCNvNtCs1oYyZhp1ftr_7mostrix8settings13save_settingss_0B5_
FN:135,_RNCNvNtCs1oYyZhp1ftr_7mostrix8settings31init_or_load_settings_from_disk0B5_
FN:203,_RNCNvNtCs1oYyZhp1ftr_7mostrix8settings31init_or_load_settings_from_disks0_0B5_
FN:210,_RNCNvNtCs1oYyZhp1ftr_7mostrix8settings31init_or_load_settings_from_disks1_0B5_
FN:217,_RNCNvNtCs1oYyZhp1ftr_7mostrix8settings31init_or_load_settings_from_disks2_0B5_
FN:223,_RNCNvNtCs1oYyZhp1ftr_7mostrix8settings31init_or_load_settings_from_disks3_0B5_
FN:235,_RNCNvNtCs1oYyZhp1ftr_7mostrix8settings31init_or_load_settings_from_disks4_0B5_
FN:251,_RNCNvNtCs1oYyZhp1ftr_7mostrix8settings31init_or_load_settings_from_disks5_0B5_
FN:160,_RNCNvNtCs1oYyZhp1ftr_7mostrix8settings31init_or_load_settings_from_disks_0B5_
FN:147,_RNCNvNvNtCs1oYyZhp1ftr_7mostrix8settings31init_or_load_settings_from_disk23load_settings_from_path0B7_
FN:151,_RNCNvNvNtCs1oYyZhp1ftr_7mostrix8settings31init_or_load_settings_from_disk23load_settings_from_paths_0B7_
FN:59,_RNvNtCs1oYyZhp1ftr_7mostrix8settings13init_settings
FN:325,_RNvNtCs1oYyZhp1ftr_7mostrix8settings13save_settings
FN:30,_RNvNtCs1oYyZhp1ftr_7mostrix8settings17default_user_mode
FN:320,_RNvNtCs1oYyZhp1ftr_7mostrix8settings23load_settings_from_disk
FN:89,_RNvNtCs1oYyZhp1ftr_7mostrix8settings26validate_currencies_config
FN:130,_RNvNtCs1oYyZhp1ftr_7mostrix8settings31init_or_load_settings_from_disk
FN:141,_RNvNvNtCs1oYyZhp1ftr_7mostrix8settings31init_or_load_settings_from_disk23load_settings_from_path
FN:160,_RNCNCNvNtCsbwworP4HFOr_7mostrix8settings31init_or_load_settings_from_disks_00B7_
FN:135,_RNCNvNtCsbwworP4HFOr_7mostrix8settings31init_or_load_settings_from_disk0B5_
FN:203,_RNCNvNtCsbwworP4HFOr_7mostrix8settings31init_or_load_settings_from_disks0_0B5_
FN:210,_RNCNvNtCsbwworP4HFOr_7mostrix8settings31init_or_load_settings_from_disks1_0B5_
FN:217,_RNCNvNtCsbwworP4HFOr_7mostrix8settings31init_or_load_settings_from_disks2_0B5_
FN:223,_RNCNvNtCsbwworP4HFOr_7mostrix8settings31init_or_load_settings_from_disks3_0B5_
FN:235,_RNCNvNtCsbwworP4HFOr_7mostrix8settings31init_or_load_settings_from_disks4_0B5_
FN:251,_RNCNvNtCsbwworP4HFOr_7mostrix8settings31init_or_load_settings_from_disks5_0B5_
FN:160,_RNCNvNtCsbwworP4HFOr_7mostrix8settings31init_or_load_settings_from_disks_0B5_
FN:147,_RNCNvNvNtCsbwworP4HFOr_7mostrix8settings31init_or_load_settings_from_disk23load_settings_from_path0B7_
FN:151,_RNCNvNvNtCsbwworP4HFOr_7mostrix8settings31init_or_load_settings_from_disk23load_settings_from_paths_0B7_
FN:30,_RNvNtCsbwworP4HFOr_7mostrix8settings17default_user_mode
FN:320,_RNvNtCsbwworP4HFOr_7mostrix8settings23load_settings_from_disk
FN:89,_RNvNtCsbwworP4HFOr_7mostrix8settings26validate_currencies_config
FN:130,_RNvNtCsbwworP4HFOr_7mostrix8settings31init_or_load_settings_from_disk
FN:141,_RNvNvNtCsbwworP4HFOr_7mostrix8settings31init_or_load_settings_from_disk23load_settings_from_path
FN:334,_RNCNCNvNtCsbwworP4HFOr_7mostrix8settings13save_settingss_00B7_
FN:327,_RNCNvNtCsbwworP4HFOr_7mostrix8settings13save_settings0B5_
FN:336,_RNCNvNtCsbwworP4HFOr_7mostrix8settings13save_settingss0_0B5_
FN:340,_RNCNvNtCsbwworP4HFOr_7mostrix8settings13save_settingss1_0B5_
FN:343,_RNCNvNtCsbwworP4HFOr_7mostrix8settings13save_settingss2_0B5_
FN:334,_RNCNvNtCsbwworP4HFOr_7mostrix8settings13save_settingss_0B5_
FN:59,_RNvNtCsbwworP4HFOr_7mostrix8settings13init_settings
FN:325,_RNvNtCsbwworP4HFOr_7mostrix8settings13save_settings
FN:42,_RNvXNtCsbwworP4HFOr_7mostrix8settingsNtB2_8SettingsNtNtCs5GmCzIpY9Qj_4core7default7Default7default
FN:385,_RNvNtNtCsbwworP4HFOr_7mostrix8settings5testss_44settings_rejects_deprecated_currencies_field
FN:354,_RNvNtNtCsbwworP4HFOr_7mostrix8settings5testss_63legacy_settings_without_ln_address_deserializes_to_empty_string
FNDA:0,_RNCNCNvNtCsaruqlPBEY0K_7mostrix8settings13save_settingss_00B7_
FNDA:0,_RNCNCNvNtCsaruqlPBEY0K_7mostrix8settings31init_or_load_settings_from_disks_00B7_
FNDA:0,_RNCNvNtCsaruqlPBEY0K_7mostrix8settings13save_settings0B5_
FNDA:0,_RNCNvNtCsaruqlPBEY0K_7mostrix8settings13save_settingss0_0B5_
FNDA:0,_RNCNvNtCsaruqlPBEY0K_7mostrix8settings13save_settingss1_0B5_
FNDA:0,_RNCNvNtCsaruqlPBEY0K_7mostrix8settings13save_settingss2_0B5_
FNDA:0,_RNCNvNtCsaruqlPBEY0K_7mostrix8settings13save_settingss_0B5_
FNDA:0,_RNCNvNtCsaruqlPBEY0K_7mostrix8settings31init_or_load_settings_from_disk0B5_
FNDA:0,_RNCNvNtCsaruqlPBEY0K_7mostrix8settings31init_or_load_settings_from_disks0_0B5_
FNDA:0,_RNCNvNtCsaruqlPBEY0K_7mostrix8settings31init_or_load_settings_from_disks1_0B5_
FNDA:0,_RNCNvNtCsaruqlPBEY0K_7mostrix8settings31init_or_load_settings_from_disks2_0B5_
FNDA:0,_RNCNvNtCsaruqlPBEY0K_7mostrix8settings31init_or_load_settings_from_disks3_0B5_
FNDA:0,_RNCNvNtCsaruqlPBEY0K_7mostrix8settings31init_or_load_settings_from_disks4_0B5_
FNDA:0,_RNCNvNtCsaruqlPBEY0K_7mostrix8settings31init_or_load_settings_from_disks5_0B5_
FNDA:0,_RNCNvNtCsaruqlPBEY0K_7mostrix8settings31init_or_load_settings_from_disks_0B5_
FNDA:0,_RNCNvNvNtCsaruqlPBEY0K_7mostrix8settings31init_or_load_settings_from_disk23load_settings_from_path0B7_
FNDA:0,_RNCNvNvNtCsaruqlPBEY0K_7mostrix8settings31init_or_load_settings_from_disk23load_settings_from_paths_0B7_
FNDA:0,_RNvNtCsaruqlPBEY0K_7mostrix8settings13init_settings
FNDA:0,_RNvNtCsaruqlPBEY0K_7mostrix8settings13save_settings
FNDA:0,_RNvNtCsaruqlPBEY0K_7mostrix8settings17default_user_mode
FNDA:0,_RNvNtCsaruqlPBEY0K_7mostrix8settings23load_settings_from_disk
FNDA:0,_RNvNtCsaruqlPBEY0K_7mostrix8settings26validate_currencies_config
FNDA:0,_RNvNtCsaruqlPBEY0K_7mostrix8settings31init_or_load_settings_from_disk
FNDA:0,_RNvNvNtCsaruqlPBEY0K_7mostrix8settings31init_or_load_settings_from_disk23load_settings_from_path
FNDA:0,_RNvXNtCsaruqlPBEY0K_7mostrix8settingsNtB2_8SettingsNtNtCs5GmCzIpY9Qj_4core7default7Default7default
FNDA:1,_RNvNtNtCs3smmrQNj5EW_7mostrix8settings5testss_44settings_rejects_deprecated_currencies_field
FNDA:1,_RNvNtNtCs3smmrQNj5EW_7mostrix8settings5testss_63legacy_settings_without_ln_address_deserializes_to_empty_string
FNDA:0,_RNCNCNvNtCs3smmrQNj5EW_7mostrix8settings13save_settingss_00B7_
FNDA:0,_RNCNvNtCs3smmrQNj5EW_7mostrix8settings13save_settings0B5_
FNDA:0,_RNCNvNtCs3smmrQNj5EW_7mostrix8settings13save_settingss0_0B5_
FNDA:0,_RNCNvNtCs3smmrQNj5EW_7mostrix8settings13save_settingss1_0B5_
FNDA:0,_RNCNvNtCs3smmrQNj5EW_7mostrix8settings13save_settingss2_0B5_
FNDA:0,_RNCNvNtCs3smmrQNj5EW_7mostrix8settings13save_settingss_0B5_
FNDA:0,_RNvNtCs3smmrQNj5EW_7mostrix8settings13init_settings
FNDA:0,_RNvNtCs3smmrQNj5EW_7mostrix8settings13save_settings
FNDA:0,_RNvXNtCs3smmrQNj5EW_7mostrix8settingsNtB2_8SettingsNtNtCs5GmCzIpY9Qj_4core7default7Default7default
FNDA:0,_RNCNCNvNtCs3smmrQNj5EW_7mostrix8settings31init_or_load_settings_from_disks_00B7_
FNDA:0,_RNCNvNtCs3smmrQNj5EW_7mostrix8settings31init_or_load_settings_from_disk0B5_
FNDA:0,_RNCNvNtCs3smmrQNj5EW_7mostrix8settings31init_or_load_settings_from_disks0_0B5_
FNDA:0,_RNCNvNtCs3smmrQNj5EW_7mostrix8settings31init_or_load_settings_from_disks1_0B5_
FNDA:0,_RNCNvNtCs3smmrQNj5EW_7mostrix8settings31init_or_load_settings_from_disks2_0B5_
FNDA:0,_RNCNvNtCs3smmrQNj5EW_7mostrix8settings31init_or_load_settings_from_disks3_0B5_
FNDA:0,_RNCNvNtCs3smmrQNj5EW_7mostrix8settings31init_or_load_settings_from_disks4_0B5_
FNDA:0,_RNCNvNtCs3smmrQNj5EW_7mostrix8settings31init_or_load_settings_from_disks5_0B5_
FNDA:0,_RNCNvNtCs3smmrQNj5EW_7mostrix8settings31init_or_load_settings_from_disks_0B5_
FNDA:0,_RNCNvNvNtCs3smmrQNj5EW_7mostrix8settings31init_or_load_settings_from_disk23load_settings_from_path0B7_
FNDA:0,_RNCNvNvNtCs3smmrQNj5EW_7mostrix8settings31init_or_load_settings_from_disk23load_settings_from_paths_0B7_
FNDA:0,_RNvNtCs3smmrQNj5EW_7mostrix8settings17default_user_mode
FNDA:0,_RNvNtCs3smmrQNj5EW_7mostrix8settings23load_settings_from_disk
FNDA:0,_RNvNtCs3smmrQNj5EW_7mostrix8settings26validate_currencies_config
FNDA:0,_RNvNtCs3smmrQNj5EW_7mostrix8settings31init_or_load_settings_from_disk
FNDA:0,_RNvNvNtCs3smmrQNj5EW_7mostrix8settings31init_or_load_settings_from_disk23load_settings_from_path
FNDA:0,_RNvXNtCs1oYyZhp1ftr_7mostrix8settingsNtB2_8SettingsNtNtCs5GmCzIpY9Qj_4core7default7Default7default
FNDA:0,_RNCNCNvNtCs1oYyZhp1ftr_7mostrix8settings13save_settingss_00B7_
FNDA:0,_RNCNCNvNtCs1oYyZhp1ftr_7mostrix8settings31init_or_load_settings_from_disks_00B7_
FNDA:0,_RNCNvNtCs1oYyZhp1ftr_7mostrix8settings13save_settings0B5_
FNDA:0,_RNCNvNtCs1oYyZhp1ftr_7mostrix8settings13save_settingss0_0B5_
FNDA:0,_RNCNvNtCs1oYyZhp1ftr_7mostrix8settings13save_settingss1_0B5_
FNDA:0,_RNCNvNtCs1oYyZhp1ftr_7mostrix8settings13save_settingss2_0B5_
FNDA:0,_RNCNvNtCs1oYyZhp1ftr_7mostrix8settings13save_settingss_0B5_
FNDA:0,_RNCNvNtCs1oYyZhp1ftr_7mostrix8settings31init_or_load_settings_from_disk0B5_
FNDA:0,_RNCNvNtCs1oYyZhp1ftr_7mostrix8settings31init_or_load_settings_from_disks0_0B5_
FNDA:0,_RNCNvNtCs1oYyZhp1ftr_7mostrix8settings31init_or_load_settings_from_disks1_0B5_
FNDA:0,_RNCNvNtCs1oYyZhp1ftr_7mostrix8settings31init_or_load_settings_from_disks2_0B5_
FNDA:0,_RNCNvNtCs1oYyZhp1ftr_7mostrix8settings31init_or_load_settings_from_disks3_0B5_
FNDA:0,_RNCNvNtCs1oYyZhp1ftr_7mostrix8settings31init_or_load_settings_from_disks4_0B5_
FNDA:0,_RNCNvNtCs1oYyZhp1ftr_7mostrix8settings31init_or_load_settings_from_disks5_0B5_
FNDA:0,_RNCNvNtCs1oYyZhp1ftr_7mostrix8settings31init_or_load_settings_from_disks_0B5_
FNDA:0,_RNCNvNvNtCs1oYyZhp1ftr_7mostrix8settings31init_or_load_settings_from_disk23load_settings_from_path0B7_
FNDA:0,_RNCNvNvNtCs1oYyZhp1ftr_7mostrix8settings31init_or_load_settings_from_disk23load_settings_from_paths_0B7_
FNDA:0,_RNvNtCs1oYyZhp1ftr_7mostrix8settings13init_settings
FNDA:0,_RNvNtCs1oYyZhp1ftr_7mostrix8settings13save_settings
FNDA:0,_RNvNtCs1oYyZhp1ftr_7mostrix8settings17default_user_mode
FNDA:0,_RNvNtCs1oYyZhp1ftr_7mostrix8settings23load_settings_from_disk
FNDA:0,_RNvNtCs1oYyZhp1ftr_7mostrix8settings26validate_currencies_config
FNDA:0,_RNvNtCs1oYyZhp1ftr_7mostrix8settings31init_or_load_settings_from_disk
FNDA:0,_RNvNvNtCs1oYyZhp1ftr_7mostrix8settings31init_or_load_settings_from_disk23load_settings_from_path
FNDA:0,_RNCNCNvNtCsbwworP4HFOr_7mostrix8settings31init_or_load_settings_from_disks_00B7_
FNDA:0,_RNCNvNtCsbwworP4HFOr_7mostrix8settings31init_or_load_settings_from_disk0B5_
FNDA:0,_RNCNvNtCsbwworP4HFOr_7mostrix8settings31init_or_load_settings_from_disks0_0B5_
FNDA:0,_RNCNvNtCsbwworP4HFOr_7mostrix8settings31init_or_load_settings_from_disks1_0B5_
FNDA:0,_RNCNvNtCsbwworP4HFOr_7mostrix8settings31init_or_load_settings_from_disks2_0B5_
FNDA:0,_RNCNvNtCsbwworP4HFOr_7mostrix8settings31init_or_load_settings_from_disks3_0B5_
FNDA:0,_RNCNvNtCsbwworP4HFOr_7mostrix8settings31init_or_load_settings_from_disks4_0B5_
FNDA:0,_RNCNvNtCsbwworP4HFOr_7mostrix8settings31init_or_load_settings_from_disks5_0B5_
FNDA:0,_RNCNvNtCsbwworP4HFOr_7mostrix8settings31init_or_load_settings_from_disks_0B5_
FNDA:0,_RNCNvNvNtCsbwworP4HFOr_7mostrix8settings31init_or_load_settings_from_disk23load_settings_from_path0B7_
FNDA:0,_RNCNvNvNtCsbwworP4HFOr_7mostrix8settings31init_or_load_settings_from_disk23load_settings_from_paths_0B7_
FNDA:0,_RNvNtCsbwworP4HFOr_7mostrix8settings17default_user_mode
FNDA:0,_RNvNtCsbwworP4HFOr_7mostrix8settings23load_settings_from_disk
FNDA:0,_RNvNtCsbwworP4HFOr_7mostrix8settings26validate_currencies_config
FNDA:0,_RNvNtCsbwworP4HFOr_7mostrix8settings31init_or_load_settings_from_disk
FNDA:0,_RNvNvNtCsbwworP4HFOr_7mostrix8settings31init_or_load_settings_from_disk23load_settings_from_path
FNDA:0,_RNCNCNvNtCsbwworP4HFOr_7mostrix8settings13save_settingss_00B7_
FNDA:0,_RNCNvNtCsbwworP4HFOr_7mostrix8settings13save_settings0B5_
FNDA:0,_RNCNvNtCsbwworP4HFOr_7mostrix8settings13save_settingss0_0B5_
FNDA:0,_RNCNvNtCsbwworP4HFOr_7mostrix8settings13save_settingss1_0B5_
FNDA:0,_RNCNvNtCsbwworP4HFOr_7mostrix8settings13save_settingss2_0B5_
FNDA:0,_RNCNvNtCsbwworP4HFOr_7mostrix8settings13save_settingss_0B5_
FNDA:0,_RNvNtCsbwworP4HFOr_7mostrix8settings13init_settings
FNDA:0,_RNvNtCsbwworP4HFOr_7mostrix8settings13save_settings
FNDA:0,_RNvXNtCsbwworP4HFOr_7mostrix8settingsNtB2_8SettingsNtNtCs5GmCzIpY9Qj_4core7default7Default7default
FNDA:1,_RNvNtNtCsbwworP4HFOr_7mostrix8settings5testss_44settings_rejects_deprecated_currencies_field
FNDA:1,_RNvNtNtCsbwworP4HFOr_7mostrix8settings5testss_63legacy_settings_without_ln_address_deserializes_to_empty_string
FNF:27
FNH:2
DA:30,0
DA:31,0
DA:32,0
DA:42,0
DA:43,0
DA:44,0
DA:45,0
DA:46,0
DA:47,0
DA:48,0
DA:49,0
DA:50,0
DA:51,0
DA:52,0
DA:53,0
DA:54,0
DA:59,0
DA:60,0
DA:61,0
DA:62,0
DA:63,0
DA:64,0
DA:65,0
DA:67,0
DA:68,0
DA:71,0
DA:74,0
DA:75,0
DA:76,0
DA:77,0
DA:78,0
DA:80,0
DA:81,0
DA:82,0
DA:83,0
DA:84,0
DA:89,0
DA:90,0
DA:91,0
DA:92,0
DA:95,0
DA:96,0
DA:97,0
DA:98,0
DA:99,0
DA:100,0
DA:101,0
DA:102,0
DA:103,0
DA:104,0
DA:105,0
DA:106,0
DA:107,0
DA:108,0
DA:109,0
DA:110,0
DA:113,0
DA:114,0
DA:115,0
DA:116,0
DA:119,0
DA:120,0
DA:121,0
DA:122,0
DA:125,0
DA:126,0
DA:127,0
DA:130,0
DA:131,0
DA:132,0
DA:134,0
DA:135,0
DA:136,0
DA:137,0
DA:138,0
DA:141,0
DA:142,0
DA:144,0
DA:145,0
DA:146,0
DA:147,0
DA:149,0
DA:150,0
DA:151,0
DA:153,0
DA:154,0
DA:158,0
DA:159,0
DA:160,0
DA:161,0
DA:162,0
DA:163,0
DA:164,0
DA:165,0
DA:167,0
DA:168,0
DA:169,0
DA:170,0
DA:171,0
DA:174,0
DA:176,0
DA:177,0
DA:178,0
DA:181,0
DA:182,0
DA:184,0
DA:185,0
DA:187,0
DA:188,0
DA:189,0
DA:190,0
DA:191,0
DA:194,0
DA:196,0
DA:197,0
DA:202,0
DA:203,0
DA:204,0
DA:205,0
DA:206,0
DA:209,0
DA:210,0
DA:214,0
DA:215,0
DA:216,0
DA:217,0
DA:220,0
DA:221,0
DA:222,0
DA:223,0
DA:227,0
DA:228,0
DA:229,0
DA:230,0
DA:231,0
DA:234,0
DA:235,0
DA:243,0
DA:244,0
DA:245,0
DA:246,0
DA:247,0
DA:249,0
DA:250,0
DA:251,0
DA:252,0
DA:253,0
DA:255,0
DA:258,0
DA:259,0
DA:260,0
DA:262,0
DA:263,0
DA:264,0
DA:265,0
DA:266,0
DA:269,0
DA:270,0
DA:272,0
DA:273,0
DA:316,0
DA:317,0
DA:320,0
DA:321,0
DA:322,0
DA:325,0
DA:326,0
DA:327,0
DA:328,0
DA:329,0
DA:330,0
DA:331,0
DA:332,0
DA:333,0
DA:334,0
DA:335,0
DA:336,0
DA:337,0
DA:339,0
DA:340,0
DA:342,0
DA:343,0
DA:345,0
DA:346,0
DA:354,2
DA:355,2
DA:356,2
DA:357,2
DA:358,2
DA:359,2
DA:360,2
DA:361,2
DA:362,2
DA:363,2
DA:364,2
DA:365,2
DA:366,2
DA:367,0
DA:370,2
DA:371,2
DA:372,2
DA:373,2
DA:375,2
DA:376,2
DA:377,2
DA:378,2
DA:379,2
DA:380,0
DA:382,2
DA:385,2
DA:386,2
DA:387,2
DA:388,2
DA:389,2
DA:390,2
DA:391,2
DA:392,2
DA:393,2
DA:396,2
DA:397,2
DA:398,2
BRF:0
BRH:0
LF:240
LH:35
end_of_record
SF:/home/runner/work/mostrix/mostrix/src/shared/permissions.rs
FN:8,_RNvMNtNtCsaruqlPBEY0K_7mostrix6shared11permissionsNtB2_16SolverPermission6toggle
FN:15,_RNvMNtNtCsaruqlPBEY0K_7mostrix6shared11permissionsNtB2_16SolverPermission8as_label
FN:8,_RNvMNtNtCs3smmrQNj5EW_7mostrix6shared11permissionsNtB2_16SolverPermission6toggle
FN:15,_RNvMNtNtCs3smmrQNj5EW_7mostrix6shared11permissionsNtB2_16SolverPermission8as_label
FN:8,_RNvMNtNtCs1oYyZhp1ftr_7mostrix6shared11permissionsNtB2_16SolverPermission6toggle
FN:15,_RNvMNtNtCs1oYyZhp1ftr_7mostrix6shared11permissionsNtB2_16SolverPermission8as_label
FN:8,_RNvMNtNtCsbwworP4HFOr_7mostrix6shared11permissionsNtB2_16SolverPermission6toggle
FN:15,_RNvMNtNtCsbwworP4HFOr_7mostrix6shared11permissionsNtB2_16SolverPermission8as_label
FNDA:0,_RNvMNtNtCsaruqlPBEY0K_7mostrix6shared11permissionsNtB2_16SolverPermission6toggle
FNDA:0,_RNvMNtNtCsaruqlPBEY0K_7mostrix6shared11permissionsNtB2_16SolverPermission8as_label
FNDA:0,_RNvMNtNtCs3smmrQNj5EW_7mostrix6shared11permissionsNtB2_16SolverPermission6toggle
FNDA:0,_RNvMNtNtCs3smmrQNj5EW_7mostrix6shared11permissionsNtB2_16SolverPermission8as_label
FNDA:0,_RNvMNtNtCs1oYyZhp1ftr_7mostrix6shared11permissionsNtB2_16SolverPermission6toggle
FNDA:0,_RNvMNtNtCs1oYyZhp1ftr_7mostrix6shared11permissionsNtB2_16SolverPermission8as_label
FNDA:0,_RNvMNtNtCsbwworP4HFOr_7mostrix6shared11permissionsNtB2_16SolverPermission6toggle
FNDA:0,_RNvMNtNtCsbwworP4HFOr_7mostrix6shared11permissionsNtB2_16SolverPermission8as_label
FNF:2
FNH:0
DA:8,0
DA:9,0
DA:10,0
DA:11,0
DA:13,0
DA:15,0
DA:16,0
DA:17,0
DA:18,0
DA:20,0
BRF:0
BRH:0
LF:10
LH:0
end_of_record
SF:/home/runner/work/mostrix/mostrix/src/startup.rs
FN:232,_RNCNCNCNvNtCs1oYyZhp1ftr_7mostrix7startup25run_post_terminal_startup0s0_00B9_
FN:258,_RNCNCNCNvNtCs1oYyZhp1ftr_7mostrix7startup25run_post_terminal_startup0s1_00B9_
FN:320,_RNCNCNvNtCs1oYyZhp1ftr_7mostrix7startup23run_startup_with_splash0s1_0B7_
FN:309,_RNCNCNvNtCs1oYyZhp1ftr_7mostrix7startup23run_startup_with_splash0s_0B7_
FN:90,_RNCNCNvNtCs1oYyZhp1ftr_7mostrix7startup25run_post_terminal_startup00B7_
FN:231,_RNCNCNvNtCs1oYyZhp1ftr_7mostrix7startup25run_post_terminal_startup0s0_0B7_
FN:257,_RNCNCNvNtCs1oYyZhp1ftr_7mostrix7startup25run_post_terminal_startup0s1_0B7_
FN:107,_RNCNCNvNtCs1oYyZhp1ftr_7mostrix7startup25run_post_terminal_startup0s_0B7_
FN:289,_RNCNvNtCs1oYyZhp1ftr_7mostrix7startup23run_startup_with_splash0B5_
FN:83,_RNCNvNtCs1oYyZhp1ftr_7mostrix7startup25run_post_terminal_startup0B5_
FN:76,_RNvNtCs1oYyZhp1ftr_7mostrix7startup17set_startup_phase
FN:286,_RNvNtCs1oYyZhp1ftr_7mostrix7startup23run_startup_with_splash
FN:80,_RNvNtCs1oYyZhp1ftr_7mostrix7startup25run_post_terminal_startup
FN:232,_RNCNCNCNvNtCsbwworP4HFOr_7mostrix7startup25run_post_terminal_startup0s0_00B9_
FN:258,_RNCNCNCNvNtCsbwworP4HFOr_7mostrix7startup25run_post_terminal_startup0s1_00B9_
FN:320,_RNCNCNvNtCsbwworP4HFOr_7mostrix7startup23run_startup_with_splash0s1_0B7_
FN:309,_RNCNCNvNtCsbwworP4HFOr_7mostrix7startup23run_startup_with_splash0s_0B7_
FN:90,_RNCNCNvNtCsbwworP4HFOr_7mostrix7startup25run_post_terminal_startup00B7_
FN:231,_RNCNCNvNtCsbwworP4HFOr_7mostrix7startup25run_post_terminal_startup0s0_0B7_
FN:257,_RNCNCNvNtCsbwworP4HFOr_7mostrix7startup25run_post_terminal_startup0s1_0B7_
FN:107,_RNCNCNvNtCsbwworP4HFOr_7mostrix7startup25run_post_terminal_startup0s_0B7_
FN:289,_RNCNvNtCsbwworP4HFOr_7mostrix7startup23run_startup_with_splash0B5_
FN:83,_RNCNvNtCsbwworP4HFOr_7mostrix7startup25run_post_terminal_startup0B5_
FN:76,_RNvNtCsbwworP4HFOr_7mostrix7startup17set_startup_phase
FN:286,_RNvNtCsbwworP4HFOr_7mostrix7startup23run_startup_with_splash
FN:80,_RNvNtCsbwworP4HFOr_7mostrix7startup25run_post_terminal_startup
FNDA:0,_RNCNCNCNvNtCs1oYyZhp1ftr_7mostrix7startup25run_post_terminal_startup0s0_00B9_
FNDA:0,_RNCNCNCNvNtCs1oYyZhp1ftr_7mostrix7startup25run_post_terminal_startup0s1_00B9_
FNDA:0,_RNCNCNvNtCs1oYyZhp1ftr_7mostrix7startup23run_startup_with_splash0s1_0B7_
FNDA:0,_RNCNCNvNtCs1oYyZhp1ftr_7mostrix7startup23run_startup_with_splash0s_0B7_
FNDA:0,_RNCNCNvNtCs1oYyZhp1ftr_7mostrix7startup25run_post_terminal_startup00B7_
FNDA:0,_RNCNCNvNtCs1oYyZhp1ftr_7mostrix7startup25run_post_terminal_startup0s0_0B7_
FNDA:0,_RNCNCNvNtCs1oYyZhp1ftr_7mostrix7startup25run_post_terminal_startup0s1_0B7_
FNDA:0,_RNCNCNvNtCs1oYyZhp1ftr_7mostrix7startup25run_post_terminal_startup0s_0B7_
FNDA:0,_RNCNvNtCs1oYyZhp1ftr_7mostrix7startup23run_startup_with_splash0B5_
FNDA:0,_RNCNvNtCs1oYyZhp1ftr_7mostrix7startup25run_post_terminal_startup0B5_
FNDA:0,_RNvNtCs1oYyZhp1ftr_7mostrix7startup17set_startup_phase
FNDA:0,_RNvNtCs1oYyZhp1ftr_7mostrix7startup23run_startup_with_splash
FNDA:0,_RNvNtCs1oYyZhp1ftr_7mostrix7startup25run_post_terminal_startup
FNDA:0,_RNCNCNCNvNtCsbwworP4HFOr_7mostrix7startup25run_post_terminal_startup0s0_00B9_
FNDA:0,_RNCNCNCNvNtCsbwworP4HFOr_7mostrix7startup25run_post_terminal_startup0s1_00B9_
FNDA:0,_RNCNCNvNtCsbwworP4HFOr_7mostrix7startup23run_startup_with_splash0s1_0B7_
FNDA:0,_RNCNCNvNtCsbwworP4HFOr_7mostrix7startup23run_startup_with_splash0s_0B7_
FNDA:0,_RNCNCNvNtCsbwworP4HFOr_7mostrix7startup25run_post_terminal_startup00B7_
FNDA:0,_RNCNCNvNtCsbwworP4HFOr_7mostrix7startup25run_post_terminal_startup0s0_0B7_
FNDA:0,_RNCNCNvNtCsbwworP4HFOr_7mostrix7startup25run_post_terminal_startup0s1_0B7_
FNDA:0,_RNCNCNvNtCsbwworP4HFOr_7mostrix7startup25run_post_terminal_startup0s_0B7_
FNDA:0,_RNCNvNtCsbwworP4HFOr_7mostrix7startup23run_startup_with_splash0B5_
FNDA:0,_RNCNvNtCsbwworP4HFOr_7mostrix7startup25run_post_terminal_startup0B5_
FNDA:0,_RNvNtCsbwworP4HFOr_7mostrix7startup17set_startup_phase
FNDA:0,_RNvNtCsbwworP4HFOr_7mostrix7startup23run_startup_with_splash
FNDA:0,_RNvNtCsbwworP4HFOr_7mostrix7startup25run_post_terminal_startup
FNF:13
FNH:0
DA:76,0
DA:77,0
DA:78,0
DA:80,0
DA:81,0
DA:82,0
DA:83,0
DA:84,0
DA:86,0
DA:87,0
DA:88,0
DA:89,0
DA:90,0
DA:91,0
DA:93,0
DA:94,0
DA:97,0
DA:98,0
DA:99,0
DA:100,0
DA:101,0
DA:102,0
DA:103,0
DA:104,0
DA:106,0
DA:107,0
DA:108,0
DA:110,0
DA:112,0
DA:113,0
DA:114,0
DA:115,0
DA:116,0
DA:117,0
DA:118,0
DA:119,0
DA:120,0
DA:121,0
DA:123,0
DA:124,0
DA:125,0
DA:126,0
DA:127,0
DA:128,0
DA:129,0
DA:130,0
DA:131,0
DA:132,0
DA:135,0
DA:136,0
DA:137,0
DA:140,0
DA:141,0
DA:142,0
DA:144,0
DA:145,0
DA:146,0
DA:147,0
DA:148,0
DA:149,0
DA:151,0
DA:152,0
DA:153,0
DA:156,0
DA:157,0
DA:158,0
DA:159,0
DA:161,0
DA:162,0
DA:163,0
DA:164,0
DA:165,0
DA:166,0
DA:167,0
DA:168,0
DA:170,0
DA:172,0
DA:173,0
DA:174,0
DA:175,0
DA:178,0
DA:180,0
DA:181,0
DA:182,0
DA:183,0
DA:184,0
DA:185,0
DA:188,0
DA:191,0
DA:192,0
DA:193,0
DA:194,0
DA:196,0
DA:198,0
DA:199,0
DA:200,0
DA:201,0
DA:202,0
DA:203,0
DA:205,0
DA:206,0
DA:207,0
DA:209,0
DA:210,0
DA:214,0
DA:215,0
DA:217,0
DA:220,0
DA:221,0
DA:222,0
DA:223,0
DA:224,0
DA:225,0
DA:226,0
DA:227,0
DA:228,0
DA:229,0
DA:231,0
DA:232,0
DA:233,0
DA:234,0
DA:235,0
DA:236,0
DA:237,0
DA:238,0
DA:239,0
DA:240,0
DA:241,0
DA:242,0
DA:243,0
DA:244,0
DA:245,0
DA:246,0
DA:247,0
DA:248,0
DA:249,0
DA:253,0
DA:254,0
DA:255,0
DA:256,0
DA:257,0
DA:258,0
DA:259,0
DA:260,0
DA:261,0
DA:262,0
DA:263,0
DA:264,0
DA:265,0
DA:266,0
DA:267,0
DA:268,0
DA:270,0
DA:271,0
DA:272,0
DA:273,0
DA:274,0
DA:275,0
DA:276,0
DA:277,0
DA:278,0
DA:279,0
DA:280,0
DA:281,0
DA:282,0
DA:283,0
DA:286,0
DA:287,0
DA:288,0
DA:289,0
DA:290,0
DA:292,0
DA:293,0
DA:294,0
DA:296,0
DA:297,0
DA:298,0
DA:300,0
DA:302,0
DA:303,0
DA:305,0
DA:306,0
DA:307,0
DA:308,0
DA:309,0
DA:314,0
DA:315,0
DA:316,0
DA:317,0
DA:318,0
DA:319,0
DA:320,0
DA:325,0
DA:326,0
BRF:0
BRH:0
LF:204
LH:0
end_of_record
SF:/home/runner/work/mostrix/mostrix/src/ui/admin_key_confirm.rs
FN:59,_RNCNvNtNtCsaruqlPBEY0K_7mostrix2ui17admin_key_confirm37render_admin_key_confirm_with_message0B7_
FN:9,_RNvNtNtCsaruqlPBEY0K_7mostrix2ui17admin_key_confirm24render_admin_key_confirm
FN:19,_RNvNtNtCsaruqlPBEY0K_7mostrix2ui17admin_key_confirm37render_admin_key_confirm_with_message
FN:214,_RNvNtNtCsaruqlPBEY0K_7mostrix2ui17admin_key_confirm39render_saved_ln_address_invoice_confirm
FN:59,_RNCNvNtNtCs3smmrQNj5EW_7mostrix2ui17admin_key_confirm37render_admin_key_confirm_with_message0B7_
FN:9,_RNvNtNtCs3smmrQNj5EW_7mostrix2ui17admin_key_confirm24render_admin_key_confirm
FN:19,_RNvNtNtCs3smmrQNj5EW_7mostrix2ui17admin_key_confirm37render_admin_key_confirm_with_message
FN:214,_RNvNtNtCs3smmrQNj5EW_7mostrix2ui17admin_key_confirm39render_saved_ln_address_invoice_confirm
FN:59,_RNCNvNtNtCs1oYyZhp1ftr_7mostrix2ui17admin_key_confirm37render_admin_key_confirm_with_message0B7_
FN:9,_RNvNtNtCs1oYyZhp1ftr_7mostrix2ui17admin_key_confirm24render_admin_key_confirm
FN:19,_RNvNtNtCs1oYyZhp1ftr_7mostrix2ui17admin_key_confirm37render_admin_key_confirm_with_message
FN:214,_RNvNtNtCs1oYyZhp1ftr_7mostrix2ui17admin_key_confirm39render_saved_ln_address_invoice_confirm
FN:59,_RNCNvNtNtCsbwworP4HFOr_7mostrix2ui17admin_key_confirm37render_admin_key_confirm_with_message0B7_
FN:9,_RNvNtNtCsbwworP4HFOr_7mostrix2ui17admin_key_confirm24render_admin_key_confirm
FN:19,_RNvNtNtCsbwworP4HFOr_7mostrix2ui17admin_key_confirm37render_admin_key_confirm_with_message
FN:214,_RNvNtNtCsbwworP4HFOr_7mostrix2ui17admin_key_confirm39render_saved_ln_address_invoice_confirm
FNDA:0,_RNCNvNtNtCsaruqlPBEY0K_7mostrix2ui17admin_key_confirm37render_admin_key_confirm_with_message0B7_
FNDA:0,_RNvNtNtCsaruqlPBEY0K_7mostrix2ui17admin_key_confirm24render_admin_key_confirm
FNDA:0,_RNvNtNtCsaruqlPBEY0K_7mostrix2ui17admin_key_confirm37render_admin_key_confirm_with_message
FNDA:0,_RNvNtNtCsaruqlPBEY0K_7mostrix2ui17admin_key_confirm39render_saved_ln_address_invoice_confirm
FNDA:0,_RNCNvNtNtCs3smmrQNj5EW_7mostrix2ui17admin_key_confirm37render_admin_key_confirm_with_message0B7_
FNDA:0,_RNvNtNtCs3smmrQNj5EW_7mostrix2ui17admin_key_confirm24render_admin_key_confirm
FNDA:0,_RNvNtNtCs3smmrQNj5EW_7mostrix2ui17admin_key_confirm37render_admin_key_confirm_with_message
FNDA:0,_RNvNtNtCs3smmrQNj5EW_7mostrix2ui17admin_key_confirm39render_saved_ln_address_invoice_confirm
FNDA:0,_RNCNvNtNtCs1oYyZhp1ftr_7mostrix2ui17admin_key_confirm37render_admin_key_confirm_with_message0B7_
FNDA:0,_RNvNtNtCs1oYyZhp1ftr_7mostrix2ui17admin_key_confirm24render_admin_key_confirm
FNDA:0,_RNvNtNtCs1oYyZhp1ftr_7mostrix2ui17admin_key_confirm37render_admin_key_confirm_with_message
FNDA:0,_RNvNtNtCs1oYyZhp1ftr_7mostrix2ui17admin_key_confirm39render_saved_ln_address_invoice_confirm
FNDA:0,_RNCNvNtNtCsbwworP4HFOr_7mostrix2ui17admin_key_confirm37render_admin_key_confirm_with_message0B7_
FNDA:0,_RNvNtNtCsbwworP4HFOr_7mostrix2ui17admin_key_confirm24render_admin_key_confirm
FNDA:0,_RNvNtNtCsbwworP4HFOr_7mostrix2ui17admin_key_confirm37render_admin_key_confirm_with_message
FNDA:0,_RNvNtNtCsbwworP4HFOr_7mostrix2ui17admin_key_confirm39render_saved_ln_address_invoice_confirm
FNF:4
FNH:0
DA:9,0
DA:10,0
DA:11,0
DA:12,0
DA:13,0
DA:14,0
DA:15,0
DA:16,0
DA:19,0
DA:20,0
DA:21,0
DA:22,0
DA:23,0
DA:24,0
DA:25,0
DA:26,0
DA:27,0
DA:28,0
DA:30,0
DA:31,0
DA:33,0
DA:34,0
DA:35,0
DA:36,0
DA:37,0
DA:39,0
DA:40,0
DA:41,0
DA:42,0
DA:43,0
DA:44,0
DA:45,0
DA:46,0
DA:47,0
DA:48,0
DA:49,0
DA:50,0
DA:51,0
DA:56,0
DA:57,0
DA:58,0
DA:59,0
DA:60,0
DA:61,0
DA:62,0
DA:63,0
DA:69,0
DA:70,0
DA:71,0
DA:73,0
DA:75,0
DA:76,0
DA:77,0
DA:78,0
DA:79,0
DA:80,0
DA:81,0
DA:82,0
DA:85,0
DA:86,0
DA:88,0
DA:91,0
DA:92,0
DA:93,0
DA:94,0
DA:96,0
DA:97,0
DA:98,0
DA:99,0
DA:100,0
DA:101,0
DA:102,0
DA:104,0
DA:105,0
DA:106,0
DA:107,0
DA:108,0
DA:109,0
DA:110,0
DA:111,0
DA:112,0
DA:115,0
DA:116,0
DA:117,0
DA:118,0
DA:119,0
DA:121,0
DA:122,0
DA:123,0
DA:126,0
DA:127,0
DA:129,0
DA:130,0
DA:131,0
DA:133,0
DA:134,0
DA:136,0
DA:137,0
DA:138,0
DA:140,0
DA:142,0
DA:144,0
DA:145,0
DA:149,0
DA:150,0
DA:151,0
DA:152,0
DA:153,0
DA:155,0
DA:158,0
DA:159,0
DA:161,0
DA:162,0
DA:163,0
DA:165,0
DA:166,0
DA:168,0
DA:169,0
DA:170,0
DA:172,0
DA:174,0
DA:176,0
DA:177,0
DA:181,0
DA:182,0
DA:183,0
DA:184,0
DA:186,0
DA:187,0
DA:188,0
DA:190,0
DA:191,0
DA:192,0
DA:194,0
DA:195,0
DA:196,0
DA:198,0
DA:199,0
DA:200,0
DA:202,0
DA:203,0
DA:204,0
DA:206,0
DA:208,0
DA:209,0
DA:211,0
DA:214,0
DA:215,0
DA:216,0
DA:217,0
DA:218,0
DA:219,0
DA:220,0
DA:221,0
DA:222,0
DA:223,0
DA:225,0
DA:226,0
DA:227,0
DA:228,0
DA:229,0
DA:231,0
DA:232,0
DA:233,0
DA:234,0
DA:235,0
DA:236,0
DA:237,0
DA:238,0
DA:239,0
DA:240,0
DA:241,0
DA:243,0
DA:244,0
DA:245,0
DA:246,0
DA:247,0
DA:248,0
DA:251,0
DA:252,0
DA:253,0
DA:254,0
DA:256,0
DA:257,0
DA:258,0
DA:259,0
DA:260,0
DA:261,0
DA:262,0
DA:264,0
DA:265,0
DA:266,0
DA:267,0
DA:268,0
DA:269,0
DA:270,0
DA:271,0
DA:272,0
DA:274,0
DA:275,0
DA:276,0
DA:277,0
DA:278,0
DA:280,0
DA:281,0
DA:282,0
DA:285,0
DA:286,0
DA:288,0
DA:289,0
DA:290,0
DA:292,0
DA:293,0
DA:295,0
DA:296,0
DA:297,0
DA:299,0
DA:301,0
DA:303,0
DA:304,0
DA:307,0
DA:308,0
DA:309,0
DA:310,0
DA:311,0
DA:313,0
DA:316,0
DA:317,0
DA:319,0
DA:320,0
DA:321,0
DA:323,0
DA:324,0
DA:326,0
DA:327,0
DA:328,0
DA:330,0
DA:332,0
DA:334,0
DA:335,0
DA:338,0
DA:339,0
DA:340,0
DA:341,0
DA:343,0
DA:344,0
DA:345,0
DA:347,0
DA:348,0
DA:349,0
DA:351,0
DA:352,0
DA:353,0
DA:355,0
DA:356,0
DA:357,0
DA:359,0
DA:360,0
DA:361,0
DA:363,0
DA:365,0
DA:366,0
DA:368,0
BRF:0
BRH:0
LF:264
LH:0
end_of_record
SF:/home/runner/work/mostrix/mostrix/src/ui/app_state.rs
FN:81,_RNvMNtNtCsaruqlPBEY0K_7mostrix2ui9app_stateNtB2_6UiMode16default_for_role
FN:76,_RNvMNtNtCsaruqlPBEY0K_7mostrix2ui9app_stateNtB2_6UiMode16operation_result
FN:90,_RNvMNtNtCsaruqlPBEY0K_7mostrix2ui9app_stateNtB2_6UiMode26user_my_trades_interactive
FN:355,_RNvMs0_NtNtCsaruqlPBEY0K_7mostrix2ui9app_stateNtB5_8AppState11switch_role
FN:331,_RNvMs0_NtNtCsaruqlPBEY0K_7mostrix2ui9app_stateNtB5_8AppState15set_mostro_info
FN:339,_RNvMs0_NtNtCsaruqlPBEY0K_7mostrix2ui9app_stateNtB5_8AppState22clear_observer_secrets
FN:266,_RNvMs0_NtNtCsaruqlPBEY0K_7mostrix2ui9app_stateNtB5_8AppState3new
FN:96,_RNvXs_NtNtCsaruqlPBEY0K_7mostrix2ui9app_stateNtB4_6UiModeNtNtCs5GmCzIpY9Qj_4core5clone5Clone5clone
FN:90,_RNvMNtNtCs3smmrQNj5EW_7mostrix2ui9app_stateNtB2_6UiMode26user_my_trades_interactive
FN:355,_RNvMs0_NtNtCs3smmrQNj5EW_7mostrix2ui9app_stateNtB5_8AppState11switch_role
FN:331,_RNvMs0_NtNtCs3smmrQNj5EW_7mostrix2ui9app_stateNtB5_8AppState15set_mostro_info
FN:339,_RNvMs0_NtNtCs3smmrQNj5EW_7mostrix2ui9app_stateNtB5_8AppState22clear_observer_secrets
FN:96,_RNvXs_NtNtCs3smmrQNj5EW_7mostrix2ui9app_stateNtB4_6UiModeNtNtCs5GmCzIpY9Qj_4core5clone5Clone5clone
FN:81,_RNvMNtNtCs3smmrQNj5EW_7mostrix2ui9app_stateNtB2_6UiMode16default_for_role
FN:76,_RNvMNtNtCs3smmrQNj5EW_7mostrix2ui9app_stateNtB2_6UiMode16operation_result
FN:266,_RNvMs0_NtNtCs3smmrQNj5EW_7mostrix2ui9app_stateNtB5_8AppState3new
FN:81,_RNvMNtNtCs1oYyZhp1ftr_7mostrix2ui9app_stateNtB2_6UiMode16default_for_role
FN:76,_RNvMNtNtCs1oYyZhp1ftr_7mostrix2ui9app_stateNtB2_6UiMode16operation_result
FN:90,_RNvMNtNtCs1oYyZhp1ftr_7mostrix2ui9app_stateNtB2_6UiMode26user_my_trades_interactive
FN:355,_RNvMs0_NtNtCs1oYyZhp1ftr_7mostrix2ui9app_stateNtB5_8AppState11switch_role
FN:331,_RNvMs0_NtNtCs1oYyZhp1ftr_7mostrix2ui9app_stateNtB5_8AppState15set_mostro_info
FN:339,_RNvMs0_NtNtCs1oYyZhp1ftr_7mostrix2ui9app_stateNtB5_8AppState22clear_observer_secrets
FN:266,_RNvMs0_NtNtCs1oYyZhp1ftr_7mostrix2ui9app_stateNtB5_8AppState3new
FN:96,_RNvXs_NtNtCs1oYyZhp1ftr_7mostrix2ui9app_stateNtB4_6UiModeNtNtCs5GmCzIpY9Qj_4core5clone5Clone5clone
FN:81,_RNvMNtNtCsbwworP4HFOr_7mostrix2ui9app_stateNtB2_6UiMode16default_for_role
FN:76,_RNvMNtNtCsbwworP4HFOr_7mostrix2ui9app_stateNtB2_6UiMode16operation_result
FN:266,_RNvMs0_NtNtCsbwworP4HFOr_7mostrix2ui9app_stateNtB5_8AppState3new
FN:90,_RNvMNtNtCsbwworP4HFOr_7mostrix2ui9app_stateNtB2_6UiMode26user_my_trades_interactive
FN:355,_RNvMs0_NtNtCsbwworP4HFOr_7mostrix2ui9app_stateNtB5_8AppState11switch_role
FN:331,_RNvMs0_NtNtCsbwworP4HFOr_7mostrix2ui9app_stateNtB5_8AppState15set_mostro_info
FN:339,_RNvMs0_NtNtCsbwworP4HFOr_7mostrix2ui9app_stateNtB5_8AppState22clear_observer_secrets
FN:96,_RNvXs_NtNtCsbwworP4HFOr_7mostrix2ui9app_stateNtB4_6UiModeNtNtCs5GmCzIpY9Qj_4core5clone5Clone5clone
FNDA:0,_RNvMNtNtCsaruqlPBEY0K_7mostrix2ui9app_stateNtB2_6UiMode16default_for_role
FNDA:0,_RNvMNtNtCsaruqlPBEY0K_7mostrix2ui9app_stateNtB2_6UiMode16operation_result
FNDA:0,_RNvMNtNtCsaruqlPBEY0K_7mostrix2ui9app_stateNtB2_6UiMode26user_my_trades_interactive
FNDA:0,_RNvMs0_NtNtCsaruqlPBEY0K_7mostrix2ui9app_stateNtB5_8AppState11switch_role
FNDA:0,_RNvMs0_NtNtCsaruqlPBEY0K_7mostrix2ui9app_stateNtB5_8AppState15set_mostro_info
FNDA:0,_RNvMs0_NtNtCsaruqlPBEY0K_7mostrix2ui9app_stateNtB5_8AppState22clear_observer_secrets
FNDA:0,_RNvMs0_NtNtCsaruqlPBEY0K_7mostrix2ui9app_stateNtB5_8AppState3new
FNDA:0,_RNvXs_NtNtCsaruqlPBEY0K_7mostrix2ui9app_stateNtB4_6UiModeNtNtCs5GmCzIpY9Qj_4core5clone5Clone5clone
FNDA:0,_RNvMNtNtCs3smmrQNj5EW_7mostrix2ui9app_stateNtB2_6UiMode26user_my_trades_interactive
FNDA:0,_RNvMs0_NtNtCs3smmrQNj5EW_7mostrix2ui9app_stateNtB5_8AppState11switch_role
FNDA:0,_RNvMs0_NtNtCs3smmrQNj5EW_7mostrix2ui9app_stateNtB5_8AppState15set_mostro_info
FNDA:0,_RNvMs0_NtNtCs3smmrQNj5EW_7mostrix2ui9app_stateNtB5_8AppState22clear_observer_secrets
FNDA:0,_RNvXs_NtNtCs3smmrQNj5EW_7mostrix2ui9app_stateNtB4_6UiModeNtNtCs5GmCzIpY9Qj_4core5clone5Clone5clone
FNDA:8,_RNvMNtNtCs3smmrQNj5EW_7mostrix2ui9app_stateNtB2_6UiMode16default_for_role
FNDA:4,_RNvMNtNtCs3smmrQNj5EW_7mostrix2ui9app_stateNtB2_6UiMode16operation_result
FNDA:8,_RNvMs0_NtNtCs3smmrQNj5EW_7mostrix2ui9app_stateNtB5_8AppState3new
FNDA:0,_RNvMNtNtCs1oYyZhp1ftr_7mostrix2ui9app_stateNtB2_6UiMode16default_for_role
FNDA:0,_RNvMNtNtCs1oYyZhp1ftr_7mostrix2ui9app_stateNtB2_6UiMode16operation_result
FNDA:0,_RNvMNtNtCs1oYyZhp1ftr_7mostrix2ui9app_stateNtB2_6UiMode26user_my_trades_interactive
FNDA:0,_RNvMs0_NtNtCs1oYyZhp1ftr_7mostrix2ui9app_stateNtB5_8AppState11switch_role
FNDA:0,_RNvMs0_NtNtCs1oYyZhp1ftr_7mostrix2ui9app_stateNtB5_8AppState15set_mostro_info
FNDA:0,_RNvMs0_NtNtCs1oYyZhp1ftr_7mostrix2ui9app_stateNtB5_8AppState22clear_observer_secrets
FNDA:0,_RNvMs0_NtNtCs1oYyZhp1ftr_7mostrix2ui9app_stateNtB5_8AppState3new
FNDA:0,_RNvXs_NtNtCs1oYyZhp1ftr_7mostrix2ui9app_stateNtB4_6UiModeNtNtCs5GmCzIpY9Qj_4core5clone5Clone5clone
FNDA:8,_RNvMNtNtCsbwworP4HFOr_7mostrix2ui9app_stateNtB2_6UiMode16default_for_role
FNDA:4,_RNvMNtNtCsbwworP4HFOr_7mostrix2ui9app_stateNtB2_6UiMode16operation_result
FNDA:8,_RNvMs0_NtNtCsbwworP4HFOr_7mostrix2ui9app_stateNtB5_8AppState3new
FNDA:0,_RNvMNtNtCsbwworP4HFOr_7mostrix2ui9app_stateNtB2_6UiMode26user_my_trades_interactive
FNDA:0,_RNvMs0_NtNtCsbwworP4HFOr_7mostrix2ui9app_stateNtB5_8AppState11switch_role
FNDA:0,_RNvMs0_NtNtCsbwworP4HFOr_7mostrix2ui9app_stateNtB5_8AppState15set_mostro_info
FNDA:0,_RNvMs0_NtNtCsbwworP4HFOr_7mostrix2ui9app_stateNtB5_8AppState22clear_observer_secrets
FNDA:0,_RNvXs_NtNtCsbwworP4HFOr_7mostrix2ui9app_stateNtB4_6UiModeNtNtCs5GmCzIpY9Qj_4core5clone5Clone5clone
FNF:8
FNH:3
DA:76,8
DA:77,8
DA:78,8
DA:81,16
DA:82,16
DA:83,16
DA:84,0
DA:86,16
DA:90,0
DA:91,0
DA:92,0
DA:96,0
DA:97,0
DA:98,0
DA:99,0
DA:100,0
DA:101,0
DA:102,0
DA:103,0
DA:104,0
DA:105,0
DA:106,0
DA:108,0
DA:109,0
DA:111,0
DA:112,0
DA:114,0
DA:115,0
DA:117,0
DA:118,0
DA:119,0
DA:120,0
DA:122,0
DA:123,0
DA:125,0
DA:126,0
DA:127,0
DA:129,0
DA:130,0
DA:131,0
DA:132,0
DA:133,0
DA:135,0
DA:136,0
DA:137,0
DA:139,0
DA:140,0
DA:141,0
DA:143,0
DA:144,0
DA:145,0
DA:147,0
DA:148,0
DA:150,0
DA:151,0
DA:153,0
DA:154,0
DA:155,0
DA:157,0
DA:266,16
DA:267,16
DA:268,16
DA:269,16
DA:270,16
DA:271,16
DA:272,16
DA:273,16
DA:274,16
DA:275,16
DA:276,16
DA:277,16
DA:278,16
DA:279,16
DA:280,16
DA:281,16
DA:282,16
DA:283,16
DA:284,16
DA:285,16
DA:286,16
DA:287,16
DA:288,16
DA:289,16
DA:290,16
DA:291,16
DA:292,16
DA:293,16
DA:294,16
DA:295,16
DA:296,16
DA:297,16
DA:298,16
DA:299,16
DA:300,16
DA:301,16
DA:302,16
DA:303,16
DA:304,16
DA:305,16
DA:306,16
DA:307,16
DA:308,16
DA:309,16
DA:310,16
DA:311,16
DA:312,16
DA:313,16
DA:314,16
DA:315,16
DA:316,16
DA:317,16
DA:318,16
DA:319,16
DA:320,16
DA:321,16
DA:322,16
DA:323,16
DA:324,16
DA:325,16
DA:326,16
DA:327,16
DA:328,16
DA:331,0
DA:332,0
DA:333,0
DA:334,0
DA:339,0
DA:340,0
DA:341,0
DA:343,0
DA:344,0
DA:345,0
DA:346,0
DA:347,0
DA:349,0
DA:350,0
DA:351,0
DA:352,0
DA:353,0
DA:355,0
DA:356,0
DA:357,0
DA:358,0
DA:359,0
DA:360,0
DA:361,0
DA:362,0
DA:363,0
DA:364,0
DA:366,0
DA:371,0
BRF:0
BRH:0
LF:151
LH:70
end_of_record
SF:/home/runner/work/mostrix/mostrix/src/ui/chat.rs
FN:19,_RNvXNtNtCsaruqlPBEY0K_7mostrix2ui4chatNtB2_9ChatPartyNtNtCs5GmCzIpY9Qj_4core3fmt7Display3fmt
FN:19,_RNvXNtNtCs3smmrQNj5EW_7mostrix2ui4chatNtB2_9ChatPartyNtNtCs5GmCzIpY9Qj_4core3fmt7Display3fmt
FN:19,_RNvXNtNtCs1oYyZhp1ftr_7mostrix2ui4chatNtB2_9ChatPartyNtNtCs5GmCzIpY9Qj_4core3fmt7Display3fmt
FN:19,_RNvXNtNtCsbwworP4HFOr_7mostrix2ui4chatNtB2_9ChatPartyNtNtCs5GmCzIpY9Qj_4core3fmt7Display3fmt
FNDA:0,_RNvXNtNtCsaruqlPBEY0K_7mostrix2ui4chatNtB2_9ChatPartyNtNtCs5GmCzIpY9Qj_4core3fmt7Display3fmt
FNDA:0,_RNvXNtNtCs3smmrQNj5EW_7mostrix2ui4chatNtB2_9ChatPartyNtNtCs5GmCzIpY9Qj_4core3fmt7Display3fmt
FNDA:0,_RNvXNtNtCs1oYyZhp1ftr_7mostrix2ui4chatNtB2_9ChatPartyNtNtCs5GmCzIpY9Qj_4core3fmt7Display3fmt
FNDA:0,_RNvXNtNtCsbwworP4HFOr_7mostrix2ui4chatNtB2_9ChatPartyNtNtCs5GmCzIpY9Qj_4core3fmt7Display3fmt
FNF:1
FNH:0
DA:19,0
DA:20,0
DA:21,0
DA:22,0
DA:24,0
BRF:0
BRH:0
LF:5
LH:0
end_of_record
SF:/home/runner/work/mostrix/mostrix/src/ui/constants.rs
FN:184,_RNvMNtNtCsaruqlPBEY0K_7mostrix2ui9constantsNtB2_9StepLabel14as_single_line
FN:184,_RNvMNtNtCs3smmrQNj5EW_7mostrix2ui9constantsNtB2_9StepLabel14as_single_line
FN:184,_RNvMNtNtCs1oYyZhp1ftr_7mostrix2ui9constantsNtB2_9StepLabel14as_single_line
FN:184,_RNvMNtNtCsbwworP4HFOr_7mostrix2ui9constantsNtB2_9StepLabel14as_single_line
FNDA:0,_RNvMNtNtCsaruqlPBEY0K_7mostrix2ui9constantsNtB2_9StepLabel14as_single_line
FNDA:1,_RNvMNtNtCs3smmrQNj5EW_7mostrix2ui9constantsNtB2_9StepLabel14as_single_line
FNDA:0,_RNvMNtNtCs1oYyZhp1ftr_7mostrix2ui9constantsNtB2_9StepLabel14as_single_line
FNDA:1,_RNvMNtNtCsbwworP4HFOr_7mostrix2ui9constantsNtB2_9StepLabel14as_single_line
FNF:1
FNH:1
DA:184,2
DA:185,2
DA:186,2
BRF:0
BRH:0
LF:3
LH:3
end_of_record
SF:/home/runner/work/mostrix/mostrix/src/ui/currencies.rs
FN:287,_RNCNvNtNtCsaruqlPBEY0K_7mostrix2ui10currencies14filter_options0B7_
FN:256,_RNCNvNtNtCsaruqlPBEY0K_7mostrix2ui10currencies15resolve_options0B7_
FN:265,_RNCNvNtNtCsaruqlPBEY0K_7mostrix2ui10currencies15resolve_optionss_0B7_
FN:238,_RNCNvNtNtCsaruqlPBEY0K_7mostrix2ui10currencies6lookup0B7_
FN:280,_RNvNtNtCsaruqlPBEY0K_7mostrix2ui10currencies14filter_options
FN:251,_RNvNtNtCsaruqlPBEY0K_7mostrix2ui10currencies15resolve_options
FN:236,_RNvNtNtCsaruqlPBEY0K_7mostrix2ui10currencies6lookup
FN:242,_RNvNtNtCsaruqlPBEY0K_7mostrix2ui10currencies8name_for
FN:300,_RNCNvNtNtNtCs3smmrQNj5EW_7mostrix2ui10currencies5testss_42resolve_falls_back_to_full_list_when_empty0B9_
FN:329,_RNCNvNtNtNtCs3smmrQNj5EW_7mostrix2ui10currencies5testss_45filter_matches_code_prefix_and_name_substring0B9_
FN:332,_RNCNvNtNtNtCs3smmrQNj5EW_7mostrix2ui10currencies5testss_45filter_matches_code_prefix_and_name_substrings_0B9_
FN:297,_RNvNtNtNtCs3smmrQNj5EW_7mostrix2ui10currencies5testss_42resolve_falls_back_to_full_list_when_empty
FN:327,_RNvNtNtNtCs3smmrQNj5EW_7mostrix2ui10currencies5testss_45filter_matches_code_prefix_and_name_substring
FN:314,_RNvNtNtNtCs3smmrQNj5EW_7mostrix2ui10currencies5testss_46resolve_dedupes_and_skips_blank_accepted_codes
FN:304,_RNvNtNtNtCs3smmrQNj5EW_7mostrix2ui10currencies5testss_46resolve_uses_accepted_and_enriches_known_codes
FN:287,_RNCNvNtNtCs3smmrQNj5EW_7mostrix2ui10currencies14filter_options0B7_
FN:256,_RNCNvNtNtCs3smmrQNj5EW_7mostrix2ui10currencies15resolve_options0B7_
FN:265,_RNCNvNtNtCs3smmrQNj5EW_7mostrix2ui10currencies15resolve_optionss_0B7_
FN:238,_RNCNvNtNtCs3smmrQNj5EW_7mostrix2ui10currencies6lookup0B7_
FN:280,_RNvNtNtCs3smmrQNj5EW_7mostrix2ui10currencies14filter_options
FN:251,_RNvNtNtCs3smmrQNj5EW_7mostrix2ui10currencies15resolve_options
FN:236,_RNvNtNtCs3smmrQNj5EW_7mostrix2ui10currencies6lookup
FN:242,_RNvNtNtCs3smmrQNj5EW_7mostrix2ui10currencies8name_for
FN:287,_RNCNvNtNtCs1oYyZhp1ftr_7mostrix2ui10currencies14filter_options0B7_
FN:256,_RNCNvNtNtCs1oYyZhp1ftr_7mostrix2ui10currencies15resolve_options0B7_
FN:265,_RNCNvNtNtCs1oYyZhp1ftr_7mostrix2ui10currencies15resolve_optionss_0B7_
FN:238,_RNCNvNtNtCs1oYyZhp1ftr_7mostrix2ui10currencies6lookup0B7_
FN:280,_RNvNtNtCs1oYyZhp1ftr_7mostrix2ui10currencies14filter_options
FN:251,_RNvNtNtCs1oYyZhp1ftr_7mostrix2ui10currencies15resolve_options
FN:236,_RNvNtNtCs1oYyZhp1ftr_7mostrix2ui10currencies6lookup
FN:242,_RNvNtNtCs1oYyZhp1ftr_7mostrix2ui10currencies8name_for
FN:287,_RNCNvNtNtCsbwworP4HFOr_7mostrix2ui10currencies14filter_options0B7_
FN:256,_RNCNvNtNtCsbwworP4HFOr_7mostrix2ui10currencies15resolve_options0B7_
FN:265,_RNCNvNtNtCsbwworP4HFOr_7mostrix2ui10currencies15resolve_optionss_0B7_
FN:238,_RNCNvNtNtCsbwworP4HFOr_7mostrix2ui10currencies6lookup0B7_
FN:280,_RNvNtNtCsbwworP4HFOr_7mostrix2ui10currencies14filter_options
FN:251,_RNvNtNtCsbwworP4HFOr_7mostrix2ui10currencies15resolve_options
FN:236,_RNvNtNtCsbwworP4HFOr_7mostrix2ui10currencies6lookup
FN:242,_RNvNtNtCsbwworP4HFOr_7mostrix2ui10currencies8name_for
FN:300,_RNCNvNtNtNtCsbwworP4HFOr_7mostrix2ui10currencies5testss_42resolve_falls_back_to_full_list_when_empty0B9_
FN:329,_RNCNvNtNtNtCsbwworP4HFOr_7mostrix2ui10currencies5testss_45filter_matches_code_prefix_and_name_substring0B9_
FN:332,_RNCNvNtNtNtCsbwworP4HFOr_7mostrix2ui10currencies5testss_45filter_matches_code_prefix_and_name_substrings_0B9_
FN:297,_RNvNtNtNtCsbwworP4HFOr_7mostrix2ui10currencies5testss_42resolve_falls_back_to_full_list_when_empty
FN:327,_RNvNtNtNtCsbwworP4HFOr_7mostrix2ui10currencies5testss_45filter_matches_code_prefix_and_name_substring
FN:314,_RNvNtNtNtCsbwworP4HFOr_7mostrix2ui10currencies5testss_46resolve_dedupes_and_skips_blank_accepted_codes
FN:304,_RNvNtNtNtCsbwworP4HFOr_7mostrix2ui10currencies5testss_46resolve_uses_accepted_and_enriches_known_codes
FNDA:0,_RNCNvNtNtCsaruqlPBEY0K_7mostrix2ui10currencies14filter_options0B7_
FNDA:0,_RNCNvNtNtCsaruqlPBEY0K_7mostrix2ui10currencies15resolve_options0B7_
FNDA:0,_RNCNvNtNtCsaruqlPBEY0K_7mostrix2ui10currencies15resolve_optionss_0B7_
FNDA:0,_RNCNvNtNtCsaruqlPBEY0K_7mostrix2ui10currencies6lookup0B7_
FNDA:0,_RNvNtNtCsaruqlPBEY0K_7mostrix2ui10currencies14filter_options
FNDA:0,_RNvNtNtCsaruqlPBEY0K_7mostrix2ui10currencies15resolve_options
FNDA:0,_RNvNtNtCsaruqlPBEY0K_7mostrix2ui10currencies6lookup
FNDA:0,_RNvNtNtCsaruqlPBEY0K_7mostrix2ui10currencies8name_for
FNDA:1,_RNCNvNtNtNtCs3smmrQNj5EW_7mostrix2ui10currencies5testss_42resolve_falls_back_to_full_list_when_empty0B9_
FNDA:1,_RNCNvNtNtNtCs3smmrQNj5EW_7mostrix2ui10currencies5testss_45filter_matches_code_prefix_and_name_substring0B9_
FNDA:8,_RNCNvNtNtNtCs3smmrQNj5EW_7mostrix2ui10currencies5testss_45filter_matches_code_prefix_and_name_substrings_0B9_
FNDA:1,_RNvNtNtNtCs3smmrQNj5EW_7mostrix2ui10currencies5testss_42resolve_falls_back_to_full_list_when_empty
FNDA:1,_RNvNtNtNtCs3smmrQNj5EW_7mostrix2ui10currencies5testss_45filter_matches_code_prefix_and_name_substring
FNDA:1,_RNvNtNtNtCs3smmrQNj5EW_7mostrix2ui10currencies5testss_46resolve_dedupes_and_skips_blank_accepted_codes
FNDA:1,_RNvNtNtNtCs3smmrQNj5EW_7mostrix2ui10currencies5testss_46resolve_uses_accepted_and_enriches_known_codes
FNDA:204,_RNCNvNtNtCs3smmrQNj5EW_7mostrix2ui10currencies14filter_options0B7_
FNDA:204,_RNCNvNtNtCs3smmrQNj5EW_7mostrix2ui10currencies15resolve_options0B7_
FNDA:6,_RNCNvNtNtCs3smmrQNj5EW_7mostrix2ui10currencies15resolve_optionss_0B7_
FNDA:56,_RNCNvNtNtCs3smmrQNj5EW_7mostrix2ui10currencies6lookup0B7_
FNDA:5,_RNvNtNtCs3smmrQNj5EW_7mostrix2ui10currencies14filter_options
FNDA:6,_RNvNtNtCs3smmrQNj5EW_7mostrix2ui10currencies15resolve_options
FNDA:4,_RNvNtNtCs3smmrQNj5EW_7mostrix2ui10currencies6lookup
FNDA:4,_RNvNtNtCs3smmrQNj5EW_7mostrix2ui10currencies8name_for
FNDA:0,_RNCNvNtNtCs1oYyZhp1ftr_7mostrix2ui10currencies14filter_options0B7_
FNDA:0,_RNCNvNtNtCs1oYyZhp1ftr_7mostrix2ui10currencies15resolve_options0B7_
FNDA:0,_RNCNvNtNtCs1oYyZhp1ftr_7mostrix2ui10currencies15resolve_optionss_0B7_
FNDA:0,_RNCNvNtNtCs1oYyZhp1ftr_7mostrix2ui10currencies6lookup0B7_
FNDA:0,_RNvNtNtCs1oYyZhp1ftr_7mostrix2ui10currencies14filter_options
FNDA:0,_RNvNtNtCs1oYyZhp1ftr_7mostrix2ui10currencies15resolve_options
FNDA:0,_RNvNtNtCs1oYyZhp1ftr_7mostrix2ui10currencies6lookup
FNDA:0,_RNvNtNtCs1oYyZhp1ftr_7mostrix2ui10currencies8name_for
FNDA:204,_RNCNvNtNtCsbwworP4HFOr_7mostrix2ui10currencies14filter_options0B7_
FNDA:204,_RNCNvNtNtCsbwworP4HFOr_7mostrix2ui10currencies15resolve_options0B7_
FNDA:6,_RNCNvNtNtCsbwworP4HFOr_7mostrix2ui10currencies15resolve_optionss_0B7_
FNDA:56,_RNCNvNtNtCsbwworP4HFOr_7mostrix2ui10currencies6lookup0B7_
FNDA:5,_RNvNtNtCsbwworP4HFOr_7mostrix2ui10currencies14filter_options
FNDA:6,_RNvNtNtCsbwworP4HFOr_7mostrix2ui10currencies15resolve_options
FNDA:4,_RNvNtNtCsbwworP4HFOr_7mostrix2ui10currencies6lookup
FNDA:4,_RNvNtNtCsbwworP4HFOr_7mostrix2ui10currencies8name_for
FNDA:1,_RNCNvNtNtNtCsbwworP4HFOr_7mostrix2ui10currencies5testss_42resolve_falls_back_to_full_list_when_empty0B9_
FNDA:1,_RNCNvNtNtNtCsbwworP4HFOr_7mostrix2ui10currencies5testss_45filter_matches_code_prefix_and_name_substring0B9_
FNDA:8,_RNCNvNtNtNtCsbwworP4HFOr_7mostrix2ui10currencies5testss_45filter_matches_code_prefix_and_name_substrings_0B9_
FNDA:1,_RNvNtNtNtCsbwworP4HFOr_7mostrix2ui10currencies5testss_42resolve_falls_back_to_full_list_when_empty
FNDA:1,_RNvNtNtNtCsbwworP4HFOr_7mostrix2ui10currencies5testss_45filter_matches_code_prefix_and_name_substring
FNDA:1,_RNvNtNtNtCsbwworP4HFOr_7mostrix2ui10currencies5testss_46resolve_dedupes_and_skips_blank_accepted_codes
FNDA:1,_RNvNtNtNtCsbwworP4HFOr_7mostrix2ui10currencies5testss_46resolve_uses_accepted_and_enriches_known_codes
FNF:15
FNH:15
DA:236,8
DA:237,8
DA:238,112
DA:239,8
DA:242,8
DA:243,8
DA:244,8
DA:251,12
DA:252,12
DA:253,8
DA:254,8
DA:255,8
DA:256,408
DA:257,408
DA:258,408
DA:259,8
DA:260,4
DA:262,4
DA:263,4
DA:264,4
DA:265,12
DA:266,12
DA:267,12
DA:268,4
DA:269,8
DA:270,8
DA:271,8
DA:272,8
DA:273,8
DA:274,12
DA:275,4
DA:276,12
DA:280,10
DA:281,10
DA:282,10
DA:283,2
DA:284,8
DA:285,8
DA:286,8
DA:287,408
DA:288,8
DA:289,8
DA:290,10
DA:297,2
DA:298,2
DA:299,2
DA:300,2
DA:301,2
DA:304,2
DA:305,2
DA:306,2
DA:307,2
DA:308,2
DA:309,2
DA:310,2
DA:311,2
DA:314,2
DA:315,2
DA:316,2
DA:317,2
DA:318,2
DA:319,2
DA:320,2
DA:321,2
DA:322,2
DA:323,2
DA:324,2
DA:327,2
DA:328,2
DA:329,2
DA:330,2
DA:331,2
DA:332,16
DA:333,2
DA:334,2
BRF:0
BRH:0
LF:81
LH:81
end_of_record
SF:/home/runner/work/mostrix/mostrix/src/ui/dispute_bond_slash_popup.rs
FN:10,_RNvNtNtCsaruqlPBEY0K_7mostrix2ui24dispute_bond_slash_popup25render_bond_slash_overlay
FN:10,_RNvNtNtCs3smmrQNj5EW_7mostrix2ui24dispute_bond_slash_popup25render_bond_slash_overlay
FN:10,_RNvNtNtCs1oYyZhp1ftr_7mostrix2ui24dispute_bond_slash_popup25render_bond_slash_overlay
FN:10,_RNvNtNtCsbwworP4HFOr_7mostrix2ui24dispute_bond_slash_popup25render_bond_slash_overlay
FNDA:0,_RNvNtNtCsaruqlPBEY0K_7mostrix2ui24dispute_bond_slash_popup25render_bond_slash_overlay
FNDA:0,_RNvNtNtCs3smmrQNj5EW_7mostrix2ui24dispute_bond_slash_popup25render_bond_slash_overlay
FNDA:0,_RNvNtNtCs1oYyZhp1ftr_7mostrix2ui24dispute_bond_slash_popup25render_bond_slash_overlay
FNDA:0,_RNvNtNtCsbwworP4HFOr_7mostrix2ui24dispute_bond_slash_popup25render_bond_slash_overlay
FNF:1
FNH:0
DA:10,0
DA:11,0
DA:12,0
DA:13,0
DA:14,0
DA:15,0
DA:16,0
DA:17,0
DA:18,0
DA:20,0
DA:21,0
DA:22,0
DA:23,0
DA:25,0
DA:26,0
DA:28,0
DA:29,0
DA:30,0
DA:31,0
DA:32,0
DA:33,0
DA:34,0
DA:35,0
DA:36,0
DA:37,0
DA:38,0
DA:40,0
DA:41,0
DA:42,0
DA:43,0
DA:46,0
DA:47,0
DA:48,0
DA:49,0
DA:50,0
DA:51,0
DA:52,0
DA:53,0
DA:55,0
DA:57,0
DA:58,0
DA:59,0
DA:60,0
DA:63,0
DA:64,0
DA:65,0
DA:68,0
DA:69,0
DA:70,0
DA:72,0
DA:73,0
DA:74,0
DA:76,0
DA:77,0
DA:79,0
DA:80,0
DA:81,0
DA:83,0
DA:84,0
DA:86,0
DA:87,0
DA:88,0
DA:90,0
DA:92,0
DA:93,0
DA:95,0
BRF:0
BRH:0
LF:66
LH:0
end_of_record
SF:/home/runner/work/mostrix/mostrix/src/ui/dispute_finalization_confirm.rs
FN:24,_RNCNvNtNtCsaruqlPBEY0K_7mostrix2ui28dispute_finalization_confirm27render_finalization_confirm0B7_
FN:138,_RNCNvNtNtCsaruqlPBEY0K_7mostrix2ui28dispute_finalization_confirm27render_finalization_confirms0_0B7_
FN:49,_RNCNvNtNtCsaruqlPBEY0K_7mostrix2ui28dispute_finalization_confirm27render_finalization_confirms_0B7_
FN:10,_RNvNtNtCsaruqlPBEY0K_7mostrix2ui28dispute_finalization_confirm27render_finalization_confirm
FN:24,_RNCNvNtNtCs3smmrQNj5EW_7mostrix2ui28dispute_finalization_confirm27render_finalization_confirm0B7_
FN:138,_RNCNvNtNtCs3smmrQNj5EW_7mostrix2ui28dispute_finalization_confirm27render_finalization_confirms0_0B7_
FN:49,_RNCNvNtNtCs3smmrQNj5EW_7mostrix2ui28dispute_finalization_confirm27render_finalization_confirms_0B7_
FN:10,_RNvNtNtCs3smmrQNj5EW_7mostrix2ui28dispute_finalization_confirm27render_finalization_confirm
FN:24,_RNCNvNtNtCs1oYyZhp1ftr_7mostrix2ui28dispute_finalization_confirm27render_finalization_confirm0B7_
FN:138,_RNCNvNtNtCs1oYyZhp1ftr_7mostrix2ui28dispute_finalization_confirm27render_finalization_confirms0_0B7_
FN:49,_RNCNvNtNtCs1oYyZhp1ftr_7mostrix2ui28dispute_finalization_confirm27render_finalization_confirms_0B7_
FN:10,_RNvNtNtCs1oYyZhp1ftr_7mostrix2ui28dispute_finalization_confirm27render_finalization_confirm
FN:24,_RNCNvNtNtCsbwworP4HFOr_7mostrix2ui28dispute_finalization_confirm27render_finalization_confirm0B7_
FN:138,_RNCNvNtNtCsbwworP4HFOr_7mostrix2ui28dispute_finalization_confirm27render_finalization_confirms0_0B7_
FN:49,_RNCNvNtNtCsbwworP4HFOr_7mostrix2ui28dispute_finalization_confirm27render_finalization_confirms_0B7_
FN:10,_RNvNtNtCsbwworP4HFOr_7mostrix2ui28dispute_finalization_confirm27render_finalization_confirm
FNDA:0,_RNCNvNtNtCsaruqlPBEY0K_7mostrix2ui28dispute_finalization_confirm27render_finalization_confirm0B7_
FNDA:0,_RNCNvNtNtCsaruqlPBEY0K_7mostrix2ui28dispute_finalization_confirm27render_finalization_confirms0_0B7_
FNDA:0,_RNCNvNtNtCsaruqlPBEY0K_7mostrix2ui28dispute_finalization_confirm27render_finalization_confirms_0B7_
FNDA:0,_RNvNtNtCsaruqlPBEY0K_7mostrix2ui28dispute_finalization_confirm27render_finalization_confirm
FNDA:0,_RNCNvNtNtCs3smmrQNj5EW_7mostrix2ui28dispute_finalization_confirm27render_finalization_confirm0B7_
FNDA:0,_RNCNvNtNtCs3smmrQNj5EW_7mostrix2ui28dispute_finalization_confirm27render_finalization_confirms0_0B7_
FNDA:0,_RNCNvNtNtCs3smmrQNj5EW_7mostrix2ui28dispute_finalization_confirm27render_finalization_confirms_0B7_
FNDA:0,_RNvNtNtCs3smmrQNj5EW_7mostrix2ui28dispute_finalization_confirm27render_finalization_confirm
FNDA:0,_RNCNvNtNtCs1oYyZhp1ftr_7mostrix2ui28dispute_finalization_confirm27render_finalization_confirm0B7_
FNDA:0,_RNCNvNtNtCs1oYyZhp1ftr_7mostrix2ui28dispute_finalization_confirm27render_finalization_confirms0_0B7_
FNDA:0,_RNCNvNtNtCs1oYyZhp1ftr_7mostrix2ui28dispute_finalization_confirm27render_finalization_confirms_0B7_
FNDA:0,_RNvNtNtCs1oYyZhp1ftr_7mostrix2ui28dispute_finalization_confirm27render_finalization_confirm
FNDA:0,_RNCNvNtNtCsbwworP4HFOr_7mostrix2ui28dispute_finalization_confirm27render_finalization_confirm0B7_
FNDA:0,_RNCNvNtNtCsbwworP4HFOr_7mostrix2ui28dispute_finalization_confirm27render_finalization_confirms0_0B7_
FNDA:0,_RNCNvNtNtCsbwworP4HFOr_7mostrix2ui28dispute_finalization_confirm27render_finalization_confirms_0B7_
FNDA:0,_RNvNtNtCsbwworP4HFOr_7mostrix2ui28dispute_finalization_confirm27render_finalization_confirm
FNF:4
FNH:0
DA:10,0
DA:11,0
DA:12,0
DA:13,0
DA:14,0
DA:15,0
DA:16,0
DA:17,0
DA:18,0
DA:19,0
DA:21,0
DA:22,0
DA:23,0
DA:24,0
DA:26,0
DA:28,0
DA:29,0
DA:30,0
DA:31,0
DA:32,0
DA:34,0
DA:35,0
DA:36,0
DA:37,0
DA:39,0
DA:40,0
DA:42,0
DA:44,0
DA:45,0
DA:46,0
DA:47,0
DA:48,0
DA:49,0
DA:50,0
DA:52,0
DA:53,0
DA:54,0
DA:55,0
DA:56,0
DA:57,0
DA:58,0
DA:60,0
DA:63,0
DA:64,0
DA:65,0
DA:68,0
DA:69,0
DA:70,0
DA:71,0
DA:72,0
DA:75,0
DA:76,0
DA:77,0
DA:78,0
DA:79,0
DA:80,0
DA:82,0
DA:83,0
DA:84,0
DA:85,0
DA:86,0
DA:89,0
DA:90,0
DA:91,0
DA:92,0
DA:94,0
DA:95,0
DA:97,0
DA:98,0
DA:99,0
DA:100,0
DA:101,0
DA:103,0
DA:104,0
DA:105,0
DA:106,0
DA:107,0
DA:108,0
DA:109,0
DA:110,0
DA:111,0
DA:112,0
DA:114,0
DA:115,0
DA:116,0
DA:117,0
DA:120,0
DA:121,0
DA:122,0
DA:124,0
DA:126,0
DA:127,0
DA:128,0
DA:131,0
DA:132,0
DA:136,0
DA:137,0
DA:138,0
DA:139,0
DA:140,0
DA:141,0
DA:142,0
DA:145,0
DA:146,0
DA:147,0
DA:148,0
DA:149,0
DA:150,0
DA:151,0
DA:152,0
DA:153,0
DA:154,0
DA:157,0
DA:158,0
DA:159,0
DA:160,0
DA:162,0
DA:163,0
DA:164,0
DA:165,0
DA:166,0
DA:167,0
DA:168,0
DA:170,0
DA:171,0
DA:172,0
DA:173,0
DA:174,0
DA:175,0
DA:176,0
DA:177,0
DA:178,0
DA:181,0
DA:182,0
DA:183,0
DA:184,0
DA:185,0
DA:187,0
DA:188,0
DA:189,0
DA:192,0
DA:193,0
DA:195,0
DA:196,0
DA:197,0
DA:199,0
DA:200,0
DA:202,0
DA:203,0
DA:204,0
DA:206,0
DA:208,0
DA:210,0
DA:211,0
DA:215,0
DA:216,0
DA:217,0
DA:218,0
DA:219,0
DA:221,0
DA:224,0
DA:225,0
DA:227,0
DA:228,0
DA:229,0
DA:231,0
DA:232,0
DA:234,0
DA:235,0
DA:236,0
DA:238,0
DA:240,0
DA:242,0
DA:243,0
DA:247,0
DA:248,0
DA:249,0
DA:250,0
DA:252,0
DA:253,0
DA:254,0
DA:256,0
DA:257,0
DA:258,0
DA:260,0
DA:261,0
DA:262,0
DA:264,0
DA:266,0
DA:267,0
DA:271,0
DA:272,0
DA:273,0
DA:274,0
DA:276,0
DA:277,0
DA:278,0
DA:280,0
DA:282,0
DA:283,0
DA:285,0
BRF:0
BRH:0
LF:204
LH:0
end_of_record
SF:/home/runner/work/mostrix/mostrix/src/ui/dispute_finalization_popup.rs
FN:109,_RNCNCNvNtNtCsaruqlPBEY0K_7mostrix2ui26dispute_finalization_popup25render_finalization_popups0_00B9_
FN:186,_RNCNvNtNtCsaruqlPBEY0K_7mostrix2ui26dispute_finalization_popup22render_dispute_details0B7_
FN:212,_RNCNvNtNtCsaruqlPBEY0K_7mostrix2ui26dispute_finalization_popup22render_dispute_detailss0_0B7_
FN:216,_RNCNvNtNtCsaruqlPBEY0K_7mostrix2ui26dispute_finalization_popup22render_dispute_detailss1_0B7_
FN:217,_RNCNvNtNtCsaruqlPBEY0K_7mostrix2ui26dispute_finalization_popup22render_dispute_detailss2_0B7_
FN:269,_RNCNvNtNtCsaruqlPBEY0K_7mostrix2ui26dispute_finalization_popup22render_dispute_detailss3_0B7_
FN:273,_RNCNvNtNtCsaruqlPBEY0K_7mostrix2ui26dispute_finalization_popup22render_dispute_detailss4_0B7_
FN:274,_RNCNvNtNtCsaruqlPBEY0K_7mostrix2ui26dispute_finalization_popup22render_dispute_detailss5_0B7_
FN:211,_RNCNvNtNtCsaruqlPBEY0K_7mostrix2ui26dispute_finalization_popup22render_dispute_detailss_0B7_
FN:28,_RNCNvNtNtCsaruqlPBEY0K_7mostrix2ui26dispute_finalization_popup25render_finalization_popup0B7_
FN:105,_RNCNvNtNtCsaruqlPBEY0K_7mostrix2ui26dispute_finalization_popup25render_finalization_popups0_0B7_
FN:57,_RNCNvNtNtCsaruqlPBEY0K_7mostrix2ui26dispute_finalization_popup25render_finalization_popups_0B7_
FN:488,_RNvNtNtCsaruqlPBEY0K_7mostrix2ui26dispute_finalization_popup11center_rect
FN:379,_RNvNtNtCsaruqlPBEY0K_7mostrix2ui26dispute_finalization_popup21render_action_buttons
FN:180,_RNvNtNtCsaruqlPBEY0K_7mostrix2ui26dispute_finalization_popup22render_dispute_details
FN:13,_RNvNtNtCsaruqlPBEY0K_7mostrix2ui26dispute_finalization_popup25render_finalization_popup
FN:109,_RNCNCNvNtNtCs3smmrQNj5EW_7mostrix2ui26dispute_finalization_popup25render_finalization_popups0_00B9_
FN:186,_RNCNvNtNtCs3smmrQNj5EW_7mostrix2ui26dispute_finalization_popup22render_dispute_details0B7_
FN:212,_RNCNvNtNtCs3smmrQNj5EW_7mostrix2ui26dispute_finalization_popup22render_dispute_detailss0_0B7_
FN:216,_RNCNvNtNtCs3smmrQNj5EW_7mostrix2ui26dispute_finalization_popup22render_dispute_detailss1_0B7_
FN:217,_RNCNvNtNtCs3smmrQNj5EW_7mostrix2ui26dispute_finalization_popup22render_dispute_detailss2_0B7_
FN:269,_RNCNvNtNtCs3smmrQNj5EW_7mostrix2ui26dispute_finalization_popup22render_dispute_detailss3_0B7_
FN:273,_RNCNvNtNtCs3smmrQNj5EW_7mostrix2ui26dispute_finalization_popup22render_dispute_detailss4_0B7_
FN:274,_RNCNvNtNtCs3smmrQNj5EW_7mostrix2ui26dispute_finalization_popup22render_dispute_detailss5_0B7_
FN:211,_RNCNvNtNtCs3smmrQNj5EW_7mostrix2ui26dispute_finalization_popup22render_dispute_detailss_0B7_
FN:28,_RNCNvNtNtCs3smmrQNj5EW_7mostrix2ui26dispute_finalization_popup25render_finalization_popup0B7_
FN:105,_RNCNvNtNtCs3smmrQNj5EW_7mostrix2ui26dispute_finalization_popup25render_finalization_popups0_0B7_
FN:57,_RNCNvNtNtCs3smmrQNj5EW_7mostrix2ui26dispute_finalization_popup25render_finalization_popups_0B7_
FN:488,_RNvNtNtCs3smmrQNj5EW_7mostrix2ui26dispute_finalization_popup11center_rect
FN:379,_RNvNtNtCs3smmrQNj5EW_7mostrix2ui26dispute_finalization_popup21render_action_buttons
FN:180,_RNvNtNtCs3smmrQNj5EW_7mostrix2ui26dispute_finalization_popup22render_dispute_details
FN:13,_RNvNtNtCs3smmrQNj5EW_7mostrix2ui26dispute_finalization_popup25render_finalization_popup
FN:109,_RNCNCNvNtNtCs1oYyZhp1ftr_7mostrix2ui26dispute_finalization_popup25render_finalization_popups0_00B9_
FN:186,_RNCNvNtNtCs1oYyZhp1ftr_7mostrix2ui26dispute_finalization_popup22render_dispute_details0B7_
FN:212,_RNCNvNtNtCs1oYyZhp1ftr_7mostrix2ui26dispute_finalization_popup22render_dispute_detailss0_0B7_
FN:216,_RNCNvNtNtCs1oYyZhp1ftr_7mostrix2ui26dispute_finalization_popup22render_dispute_detailss1_0B7_
FN:217,_RNCNvNtNtCs1oYyZhp1ftr_7mostrix2ui26dispute_finalization_popup22render_dispute_detailss2_0B7_
FN:269,_RNCNvNtNtCs1oYyZhp1ftr_7mostrix2ui26dispute_finalization_popup22render_dispute_detailss3_0B7_
FN:273,_RNCNvNtNtCs1oYyZhp1ftr_7mostrix2ui26dispute_finalization_popup22render_dispute_detailss4_0B7_
FN:274,_RNCNvNtNtCs1oYyZhp1ftr_7mostrix2ui26dispute_finalization_popup22render_dispute_detailss5_0B7_
FN:211,_RNCNvNtNtCs1oYyZhp1ftr_7mostrix2ui26dispute_finalization_popup22render_dispute_detailss_0B7_
FN:28,_RNCNvNtNtCs1oYyZhp1ftr_7mostrix2ui26dispute_finalization_popup25render_finalization_popup0B7_
FN:105,_RNCNvNtNtCs1oYyZhp1ftr_7mostrix2ui26dispute_finalization_popup25render_finalization_popups0_0B7_
FN:57,_RNCNvNtNtCs1oYyZhp1ftr_7mostrix2ui26dispute_finalization_popup25render_finalization_popups_0B7_
FN:488,_RNvNtNtCs1oYyZhp1ftr_7mostrix2ui26dispute_finalization_popup11center_rect
FN:379,_RNvNtNtCs1oYyZhp1ftr_7mostrix2ui26dispute_finalization_popup21render_action_buttons
FN:180,_RNvNtNtCs1oYyZhp1ftr_7mostrix2ui26dispute_finalization_popup22render_dispute_details
FN:13,_RNvNtNtCs1oYyZhp1ftr_7mostrix2ui26dispute_finalization_popup25render_finalization_popup
FN:109,_RNCNCNvNtNtCsbwworP4HFOr_7mostrix2ui26dispute_finalization_popup25render_finalization_popups0_00B9_
FN:186,_RNCNvNtNtCsbwworP4HFOr_7mostrix2ui26dispute_finalization_popup22render_dispute_details0B7_
FN:212,_RNCNvNtNtCsbwworP4HFOr_7mostrix2ui26dispute_finalization_popup22render_dispute_detailss0_0B7_
FN:216,_RNCNvNtNtCsbwworP4HFOr_7mostrix2ui26dispute_finalization_popup22render_dispute_detailss1_0B7_
FN:217,_RNCNvNtNtCsbwworP4HFOr_7mostrix2ui26dispute_finalization_popup22render_dispute_detailss2_0B7_
FN:269,_RNCNvNtNtCsbwworP4HFOr_7mostrix2ui26dispute_finalization_popup22render_dispute_detailss3_0B7_
FN:273,_RNCNvNtNtCsbwworP4HFOr_7mostrix2ui26dispute_finalization_popup22render_dispute_detailss4_0B7_
FN:274,_RNCNvNtNtCsbwworP4HFOr_7mostrix2ui26dispute_finalization_popup22render_dispute_detailss5_0B7_
FN:211,_RNCNvNtNtCsbwworP4HFOr_7mostrix2ui26dispute_finalization_popup22render_dispute_detailss_0B7_
FN:28,_RNCNvNtNtCsbwworP4HFOr_7mostrix2ui26dispute_finalization_popup25render_finalization_popup0B7_
FN:105,_RNCNvNtNtCsbwworP4HFOr_7mostrix2ui26dispute_finalization_popup25render_finalization_popups0_0B7_
FN:57,_RNCNvNtNtCsbwworP4HFOr_7mostrix2ui26dispute_finalization_popup25render_finalization_popups_0B7_
FN:488,_RNvNtNtCsbwworP4HFOr_7mostrix2ui26dispute_finalization_popup11center_rect
FN:379,_RNvNtNtCsbwworP4HFOr_7mostrix2ui26dispute_finalization_popup21render_action_buttons
FN:180,_RNvNtNtCsbwworP4HFOr_7mostrix2ui26dispute_finalization_popup22render_dispute_details
FN:13,_RNvNtNtCsbwworP4HFOr_7mostrix2ui26dispute_finalization_popup25render_finalization_popup
FNDA:0,_RNCNCNvNtNtCsaruqlPBEY0K_7mostrix2ui26dispute_finalization_popup25render_finalization_popups0_00B9_
FNDA:0,_RNCNvNtNtCsaruqlPBEY0K_7mostrix2ui26dispute_finalization_popup22render_dispute_details0B7_
FNDA:0,_RNCNvNtNtCsaruqlPBEY0K_7mostrix2ui26dispute_finalization_popup22render_dispute_detailss0_0B7_
FNDA:0,_RNCNvNtNtCsaruqlPBEY0K_7mostrix2ui26dispute_finalization_popup22render_dispute_detailss1_0B7_
FNDA:0,_RNCNvNtNtCsaruqlPBEY0K_7mostrix2ui26dispute_finalization_popup22render_dispute_detailss2_0B7_
FNDA:0,_RNCNvNtNtCsaruqlPBEY0K_7mostrix2ui26dispute_finalization_popup22render_dispute_detailss3_0B7_
FNDA:0,_RNCNvNtNtCsaruqlPBEY0K_7mostrix2ui26dispute_finalization_popup22render_dispute_detailss4_0B7_
FNDA:0,_RNCNvNtNtCsaruqlPBEY0K_7mostrix2ui26dispute_finalization_popup22render_dispute_detailss5_0B7_
FNDA:0,_RNCNvNtNtCsaruqlPBEY0K_7mostrix2ui26dispute_finalization_popup22render_dispute_detailss_0B7_
FNDA:0,_RNCNvNtNtCsaruqlPBEY0K_7mostrix2ui26dispute_finalization_popup25render_finalization_popup0B7_
FNDA:0,_RNCNvNtNtCsaruqlPBEY0K_7mostrix2ui26dispute_finalization_popup25render_finalization_popups0_0B7_
FNDA:0,_RNCNvNtNtCsaruqlPBEY0K_7mostrix2ui26dispute_finalization_popup25render_finalization_popups_0B7_
FNDA:0,_RNvNtNtCsaruqlPBEY0K_7mostrix2ui26dispute_finalization_popup11center_rect
FNDA:0,_RNvNtNtCsaruqlPBEY0K_7mostrix2ui26dispute_finalization_popup21render_action_buttons
FNDA:0,_RNvNtNtCsaruqlPBEY0K_7mostrix2ui26dispute_finalization_popup22render_dispute_details
FNDA:0,_RNvNtNtCsaruqlPBEY0K_7mostrix2ui26dispute_finalization_popup25render_finalization_popup
FNDA:0,_RNCNCNvNtNtCs3smmrQNj5EW_7mostrix2ui26dispute_finalization_popup25render_finalization_popups0_00B9_
FNDA:0,_RNCNvNtNtCs3smmrQNj5EW_7mostrix2ui26dispute_finalization_popup22render_dispute_details0B7_
FNDA:0,_RNCNvNtNtCs3smmrQNj5EW_7mostrix2ui26dispute_finalization_popup22render_dispute_detailss0_0B7_
FNDA:0,_RNCNvNtNtCs3smmrQNj5EW_7mostrix2ui26dispute_finalization_popup22render_dispute_detailss1_0B7_
FNDA:0,_RNCNvNtNtCs3smmrQNj5EW_7mostrix2ui26dispute_finalization_popup22render_dispute_detailss2_0B7_
FNDA:0,_RNCNvNtNtCs3smmrQNj5EW_7mostrix2ui26dispute_finalization_popup22render_dispute_detailss3_0B7_
FNDA:0,_RNCNvNtNtCs3smmrQNj5EW_7mostrix2ui26dispute_finalization_popup22render_dispute_detailss4_0B7_
FNDA:0,_RNCNvNtNtCs3smmrQNj5EW_7mostrix2ui26dispute_finalization_popup22render_dispute_detailss5_0B7_
FNDA:0,_RNCNvNtNtCs3smmrQNj5EW_7mostrix2ui26dispute_finalization_popup22render_dispute_detailss_0B7_
FNDA:0,_RNCNvNtNtCs3smmrQNj5EW_7mostrix2ui26dispute_finalization_popup25render_finalization_popup0B7_
FNDA:0,_RNCNvNtNtCs3smmrQNj5EW_7mostrix2ui26dispute_finalization_popup25render_finalization_popups0_0B7_
FNDA:0,_RNCNvNtNtCs3smmrQNj5EW_7mostrix2ui26dispute_finalization_popup25render_finalization_popups_0B7_
FNDA:0,_RNvNtNtCs3smmrQNj5EW_7mostrix2ui26dispute_finalization_popup11center_rect
FNDA:0,_RNvNtNtCs3smmrQNj5EW_7mostrix2ui26dispute_finalization_popup21render_action_buttons
FNDA:0,_RNvNtNtCs3smmrQNj5EW_7mostrix2ui26dispute_finalization_popup22render_dispute_details
FNDA:0,_RNvNtNtCs3smmrQNj5EW_7mostrix2ui26dispute_finalization_popup25render_finalization_popup
FNDA:0,_RNCNCNvNtNtCs1oYyZhp1ftr_7mostrix2ui26dispute_finalization_popup25render_finalization_popups0_00B9_
FNDA:0,_RNCNvNtNtCs1oYyZhp1ftr_7mostrix2ui26dispute_finalization_popup22render_dispute_details0B7_
FNDA:0,_RNCNvNtNtCs1oYyZhp1ftr_7mostrix2ui26dispute_finalization_popup22render_dispute_detailss0_0B7_
FNDA:0,_RNCNvNtNtCs1oYyZhp1ftr_7mostrix2ui26dispute_finalization_popup22render_dispute_detailss1_0B7_
FNDA:0,_RNCNvNtNtCs1oYyZhp1ftr_7mostrix2ui26dispute_finalization_popup22render_dispute_detailss2_0B7_
FNDA:0,_RNCNvNtNtCs1oYyZhp1ftr_7mostrix2ui26dispute_finalization_popup22render_dispute_detailss3_0B7_
FNDA:0,_RNCNvNtNtCs1oYyZhp1ftr_7mostrix2ui26dispute_finalization_popup22render_dispute_detailss4_0B7_
FNDA:0,_RNCNvNtNtCs1oYyZhp1ftr_7mostrix2ui26dispute_finalization_popup22render_dispute_detailss5_0B7_
FNDA:0,_RNCNvNtNtCs1oYyZhp1ftr_7mostrix2ui26dispute_finalization_popup22render_dispute_detailss_0B7_
FNDA:0,_RNCNvNtNtCs1oYyZhp1ftr_7mostrix2ui26dispute_finalization_popup25render_finalization_popup0B7_
FNDA:0,_RNCNvNtNtCs1oYyZhp1ftr_7mostrix2ui26dispute_finalization_popup25render_finalization_popups0_0B7_
FNDA:0,_RNCNvNtNtCs1oYyZhp1ftr_7mostrix2ui26dispute_finalization_popup25render_finalization_popups_0B7_
FNDA:0,_RNvNtNtCs1oYyZhp1ftr_7mostrix2ui26dispute_finalization_popup11center_rect
FNDA:0,_RNvNtNtCs1oYyZhp1ftr_7mostrix2ui26dispute_finalization_popup21render_action_buttons
FNDA:0,_RNvNtNtCs1oYyZhp1ftr_7mostrix2ui26dispute_finalization_popup22render_dispute_details
FNDA:0,_RNvNtNtCs1oYyZhp1ftr_7mostrix2ui26dispute_finalization_popup25render_finalization_popup
FNDA:0,_RNCNCNvNtNtCsbwworP4HFOr_7mostrix2ui26dispute_finalization_popup25render_finalization_popups0_00B9_
FNDA:0,_RNCNvNtNtCsbwworP4HFOr_7mostrix2ui26dispute_finalization_popup22render_dispute_details0B7_
FNDA:0,_RNCNvNtNtCsbwworP4HFOr_7mostrix2ui26dispute_finalization_popup22render_dispute_detailss0_0B7_
FNDA:0,_RNCNvNtNtCsbwworP4HFOr_7mostrix2ui26dispute_finalization_popup22render_dispute_detailss1_0B7_
FNDA:0,_RNCNvNtNtCsbwworP4HFOr_7mostrix2ui26dispute_finalization_popup22render_dispute_detailss2_0B7_
FNDA:0,_RNCNvNtNtCsbwworP4HFOr_7mostrix2ui26dispute_finalization_popup22render_dispute_detailss3_0B7_
FNDA:0,_RNCNvNtNtCsbwworP4HFOr_7mostrix2ui26dispute_finalization_popup22render_dispute_detailss4_0B7_
FNDA:0,_RNCNvNtNtCsbwworP4HFOr_7mostrix2ui26dispute_finalization_popup22render_dispute_detailss5_0B7_
FNDA:0,_RNCNvNtNtCsbwworP4HFOr_7mostrix2ui26dispute_finalization_popup22render_dispute_detailss_0B7_
FNDA:0,_RNCNvNtNtCsbwworP4HFOr_7mostrix2ui26dispute_finalization_popup25render_finalization_popup0B7_
FNDA:0,_RNCNvNtNtCsbwworP4HFOr_7mostrix2ui26dispute_finalization_popup25render_finalization_popups0_0B7_
FNDA:0,_RNCNvNtNtCsbwworP4HFOr_7mostrix2ui26dispute_finalization_popup25render_finalization_popups_0B7_
FNDA:0,_RNvNtNtCsbwworP4HFOr_7mostrix2ui26dispute_finalization_popup11center_rect
FNDA:0,_RNvNtNtCsbwworP4HFOr_7mostrix2ui26dispute_finalization_popup21render_action_buttons
FNDA:0,_RNvNtNtCsbwworP4HFOr_7mostrix2ui26dispute_finalization_popup22render_dispute_details
FNDA:0,_RNvNtNtCsbwworP4HFOr_7mostrix2ui26dispute_finalization_popup25render_finalization_popup
FNF:16
FNH:0
DA:13,0
DA:14,0
DA:15,0
DA:16,0
DA:17,0
DA:18,0
DA:19,0
DA:20,0
DA:21,0
DA:22,0
DA:23,0
DA:25,0
DA:26,0
DA:27,0
DA:28,0
DA:30,0
DA:32,0
DA:33,0
DA:34,0
DA:35,0
DA:36,0
DA:38,0
DA:39,0
DA:40,0
DA:41,0
DA:44,0
DA:45,0
DA:48,0
DA:52,0
DA:53,0
DA:54,0
DA:55,0
DA:56,0
DA:57,0
DA:58,0
DA:60,0
DA:61,0
DA:62,0
DA:63,0
DA:64,0
DA:65,0
DA:66,0
DA:68,0
DA:71,0
DA:72,0
DA:73,0
DA:77,0
DA:79,0
DA:80,0
DA:81,0
DA:82,0
DA:83,0
DA:85,0
DA:86,0
DA:87,0
DA:88,0
DA:90,0
DA:91,0
DA:93,0
DA:94,0
DA:95,0
DA:96,0
DA:97,0
DA:102,0
DA:103,0
DA:104,0
DA:105,0
DA:106,0
DA:107,0
DA:108,0
DA:109,0
DA:110,0
DA:111,0
DA:112,0
DA:114,0
DA:115,0
DA:116,0
DA:117,0
DA:119,0
DA:122,0
DA:123,0
DA:124,0
DA:125,0
DA:127,0
DA:129,0
DA:130,0
DA:131,0
DA:134,0
DA:137,0
DA:138,0
DA:139,0
DA:140,0
DA:141,0
DA:144,0
DA:145,0
DA:146,0
DA:147,0
DA:148,0
DA:149,0
DA:151,0
DA:152,0
DA:153,0
DA:154,0
DA:155,0
DA:156,0
DA:157,0
DA:158,0
DA:161,0
DA:164,0
DA:165,0
DA:166,0
DA:167,0
DA:168,0
DA:169,0
DA:170,0
DA:171,0
DA:174,0
DA:175,0
DA:176,0
DA:177,0
DA:180,0
DA:181,0
DA:182,0
DA:183,0
DA:184,0
DA:186,0
DA:187,0
DA:188,0
DA:190,0
DA:192,0
DA:195,0
DA:196,0
DA:197,0
DA:198,0
DA:199,0
DA:200,0
DA:201,0
DA:202,0
DA:204,0
DA:205,0
DA:206,0
DA:209,0
DA:210,0
DA:211,0
DA:212,0
DA:214,0
DA:215,0
DA:216,0
DA:217,0
DA:220,0
DA:221,0
DA:223,0
DA:225,0
DA:227,0
DA:228,0
DA:230,0
DA:232,0
DA:236,0
DA:237,0
DA:238,0
DA:239,0
DA:241,0
DA:242,0
DA:243,0
DA:247,0
DA:248,0
DA:249,0
DA:250,0
DA:252,0
DA:253,0
DA:255,0
DA:257,0
DA:259,0
DA:260,0
DA:261,0
DA:262,0
DA:263,0
DA:264,0
DA:265,0
DA:266,0
DA:267,0
DA:268,0
DA:269,0
DA:271,0
DA:272,0
DA:273,0
DA:274,0
DA:277,0
DA:278,0
DA:279,0
DA:280,0
DA:281,0
DA:282,0
DA:284,0
DA:285,0
DA:287,0
DA:288,0
DA:289,0
DA:291,0
DA:295,0
DA:296,0
DA:298,0
DA:300,0
DA:301,0
DA:302,0
DA:303,0
DA:304,0
DA:306,0
DA:307,0
DA:308,0
DA:309,0
DA:310,0
DA:312,0
DA:313,0
DA:316,0
DA:317,0
DA:319,0
DA:321,0
DA:322,0
DA:323,0
DA:325,0
DA:326,0
DA:327,0
DA:328,0
DA:329,0
DA:331,0
DA:332,0
DA:335,0
DA:337,0
DA:338,0
DA:339,0
DA:341,0
DA:342,0
DA:343,0
DA:344,0
DA:345,0
DA:346,0
DA:350,0
DA:351,0
DA:353,0
DA:355,0
DA:358,0
DA:359,0
DA:360,0
DA:363,0
DA:364,0
DA:365,0
DA:366,0
DA:367,0
DA:368,0
DA:369,0
DA:370,0
DA:371,0
DA:372,0
DA:374,0
DA:375,0
DA:376,0
DA:379,0
DA:380,0
DA:381,0
DA:382,0
DA:383,0
DA:384,0
DA:385,0
DA:386,0
DA:387,0
DA:388,0
DA:389,0
DA:390,0
DA:391,0
DA:392,0
DA:393,0
DA:394,0
DA:395,0
DA:396,0
DA:398,0
DA:399,0
DA:400,0
DA:401,0
DA:402,0
DA:406,0
DA:407,0
DA:408,0
DA:409,0
DA:410,0
DA:411,0
DA:412,0
DA:413,0
DA:414,0
DA:416,0
DA:418,0
DA:419,0
DA:420,0
DA:421,0
DA:422,0
DA:423,0
DA:424,0
DA:425,0
DA:426,0
DA:427,0
DA:428,0
DA:429,0
DA:430,0
DA:431,0
DA:434,0
DA:435,0
DA:436,0
DA:437,0
DA:438,0
DA:439,0
DA:440,0
DA:441,0
DA:442,0
DA:444,0
DA:446,0
DA:447,0
DA:448,0
DA:449,0
DA:450,0
DA:451,0
DA:452,0
DA:453,0
DA:454,0
DA:455,0
DA:456,0
DA:457,0
DA:458,0
DA:459,0
DA:461,0
DA:462,0
DA:463,0
DA:464,0
DA:465,0
DA:466,0
DA:467,0
DA:469,0
DA:471,0
DA:472,0
DA:473,0
DA:474,0
DA:475,0
DA:476,0
DA:477,0
DA:478,0
DA:479,0
DA:480,0
DA:481,0
DA:482,0
DA:483,0
DA:484,0
DA:485,0
DA:488,0
DA:489,0
DA:490,0
DA:491,0
DA:492,0
DA:493,0
DA:494,0
DA:495,0
DA:496,0
BRF:0
BRH:0
LF:372
LH:0
end_of_record
SF:/home/runner/work/mostrix/mostrix/src/ui/draw.rs
FN:306,_RNCNvNtNtCsaruqlPBEY0K_7mostrix2ui4draw7ui_draw0B7_
FN:308,_RNCNvNtNtCsaruqlPBEY0K_7mostrix2ui4draw7ui_draws0_0B7_
FN:307,_RNCNvNtNtCsaruqlPBEY0K_7mostrix2ui4draw7ui_draws_0B7_
FN:497,_RNvNtNtCsaruqlPBEY0K_7mostrix2ui4draw23render_add_solver_popup
FN:16,_RNvNtNtCsaruqlPBEY0K_7mostrix2ui4draw7ui_draw
FN:306,_RNCNvNtNtCs3smmrQNj5EW_7mostrix2ui4draw7ui_draw0B7_
FN:308,_RNCNvNtNtCs3smmrQNj5EW_7mostrix2ui4draw7ui_draws0_0B7_
FN:307,_RNCNvNtNtCs3smmrQNj5EW_7mostrix2ui4draw7ui_draws_0B7_
FN:497,_RNvNtNtCs3smmrQNj5EW_7mostrix2ui4draw23render_add_solver_popup
FN:16,_RNvNtNtCs3smmrQNj5EW_7mostrix2ui4draw7ui_draw
FN:306,_RNCNvNtNtCs1oYyZhp1ftr_7mostrix2ui4draw7ui_draw0B7_
FN:308,_RNCNvNtNtCs1oYyZhp1ftr_7mostrix2ui4draw7ui_draws0_0B7_
FN:307,_RNCNvNtNtCs1oYyZhp1ftr_7mostrix2ui4draw7ui_draws_0B7_
FN:497,_RNvNtNtCs1oYyZhp1ftr_7mostrix2ui4draw23render_add_solver_popup
FN:16,_RNvNtNtCs1oYyZhp1ftr_7mostrix2ui4draw7ui_draw
FN:306,_RNCNvNtNtCsbwworP4HFOr_7mostrix2ui4draw7ui_draw0B7_
FN:308,_RNCNvNtNtCsbwworP4HFOr_7mostrix2ui4draw7ui_draws0_0B7_
FN:307,_RNCNvNtNtCsbwworP4HFOr_7mostrix2ui4draw7ui_draws_0B7_
FN:497,_RNvNtNtCsbwworP4HFOr_7mostrix2ui4draw23render_add_solver_popup
FN:16,_RNvNtNtCsbwworP4HFOr_7mostrix2ui4draw7ui_draw
FNDA:0,_RNCNvNtNtCsaruqlPBEY0K_7mostrix2ui4draw7ui_draw0B7_
FNDA:0,_RNCNvNtNtCsaruqlPBEY0K_7mostrix2ui4draw7ui_draws0_0B7_
FNDA:0,_RNCNvNtNtCsaruqlPBEY0K_7mostrix2ui4draw7ui_draws_0B7_
FNDA:0,_RNvNtNtCsaruqlPBEY0K_7mostrix2ui4draw23render_add_solver_popup
FNDA:0,_RNvNtNtCsaruqlPBEY0K_7mostrix2ui4draw7ui_draw
FNDA:0,_RNCNvNtNtCs3smmrQNj5EW_7mostrix2ui4draw7ui_draw0B7_
FNDA:0,_RNCNvNtNtCs3smmrQNj5EW_7mostrix2ui4draw7ui_draws0_0B7_
FNDA:0,_RNCNvNtNtCs3smmrQNj5EW_7mostrix2ui4draw7ui_draws_0B7_
FNDA:0,_RNvNtNtCs3smmrQNj5EW_7mostrix2ui4draw23render_add_solver_popup
FNDA:0,_RNvNtNtCs3smmrQNj5EW_7mostrix2ui4draw7ui_draw
FNDA:0,_RNCNvNtNtCs1oYyZhp1ftr_7mostrix2ui4draw7ui_draw0B7_
FNDA:0,_RNCNvNtNtCs1oYyZhp1ftr_7mostrix2ui4draw7ui_draws0_0B7_
FNDA:0,_RNCNvNtNtCs1oYyZhp1ftr_7mostrix2ui4draw7ui_draws_0B7_
FNDA:0,_RNvNtNtCs1oYyZhp1ftr_7mostrix2ui4draw23render_add_solver_popup
FNDA:0,_RNvNtNtCs1oYyZhp1ftr_7mostrix2ui4draw7ui_draw
FNDA:0,_RNCNvNtNtCsbwworP4HFOr_7mostrix2ui4draw7ui_draw0B7_
FNDA:0,_RNCNvNtNtCsbwworP4HFOr_7mostrix2ui4draw7ui_draws0_0B7_
FNDA:0,_RNCNvNtNtCsbwworP4HFOr_7mostrix2ui4draw7ui_draws_0B7_
FNDA:0,_RNvNtNtCsbwworP4HFOr_7mostrix2ui4draw23render_add_solver_popup
FNDA:0,_RNvNtNtCsbwworP4HFOr_7mostrix2ui4draw7ui_draw
FNF:5
FNH:0
DA:16,0
DA:17,0
DA:18,0
DA:19,0
DA:20,0
DA:21,0
DA:22,0
DA:24,0
DA:25,0
DA:26,0
DA:27,0
DA:28,0
DA:29,0
DA:30,0
DA:31,0
DA:32,0
DA:35,0
DA:38,0
DA:39,0
DA:40,0
DA:41,0
DA:42,0
DA:43,0
DA:48,0
DA:49,0
DA:50,0
DA:51,0
DA:52,0
DA:53,0
DA:54,0
DA:55,0
DA:56,0
DA:57,0
DA:60,0
DA:61,0
DA:62,0
DA:63,0
DA:64,0
DA:65,0
DA:66,0
DA:67,0
DA:70,0
DA:73,0
DA:74,0
DA:75,0
DA:76,0
DA:77,0
DA:79,0
DA:82,0
DA:83,0
DA:84,0
DA:86,0
DA:87,0
DA:88,0
DA:89,0
DA:90,0
DA:94,0
DA:96,0
DA:97,0
DA:98,0
DA:99,0
DA:100,0
DA:103,0
DA:104,0
DA:105,0
DA:106,0
DA:107,0
DA:110,0
DA:111,0
DA:112,0
DA:113,0
DA:114,0
DA:118,0
DA:121,0
DA:124,0
DA:127,0
DA:128,0
DA:129,0
DA:130,0
DA:131,0
DA:136,0
DA:140,0
DA:145,0
DA:146,0
DA:147,0
DA:148,0
DA:149,0
DA:150,0
DA:152,0
DA:155,0
DA:156,0
DA:160,0
DA:161,0
DA:162,0
DA:163,0
DA:164,0
DA:165,0
DA:168,0
DA:169,0
DA:170,0
DA:173,0
DA:174,0
DA:175,0
DA:178,0
DA:179,0
DA:180,0
DA:183,0
DA:184,0
DA:185,0
DA:187,0
DA:188,0
DA:189,0
DA:192,0
DA:193,0
DA:194,0
DA:197,0
DA:198,0
DA:199,0
DA:200,0
DA:201,0
DA:202,0
DA:203,0
DA:204,0
DA:205,0
DA:206,0
DA:209,0
DA:210,0
DA:211,0
DA:214,0
DA:215,0
DA:216,0
DA:219,0
DA:220,0
DA:221,0
DA:224,0
DA:225,0
DA:226,0
DA:229,0
DA:230,0
DA:231,0
DA:234,0
DA:235,0
DA:236,0
DA:239,0
DA:240,0
DA:241,0
DA:242,0
DA:243,0
DA:244,0
DA:245,0
DA:246,0
DA:247,0
DA:248,0
DA:249,0
DA:250,0
DA:251,0
DA:252,0
DA:253,0
DA:254,0
DA:255,0
DA:256,0
DA:257,0
DA:258,0
DA:259,0
DA:260,0
DA:261,0
DA:262,0
DA:263,0
DA:264,0
DA:265,0
DA:266,0
DA:267,0
DA:268,0
DA:269,0
DA:270,0
DA:271,0
DA:272,0
DA:273,0
DA:274,0
DA:275,0
DA:276,0
DA:277,0
DA:278,0
DA:279,0
DA:280,0
DA:281,0
DA:282,0
DA:283,0
DA:284,0
DA:285,0
DA:286,0
DA:287,0
DA:288,0
DA:289,0
DA:290,0
DA:291,0
DA:292,0
DA:293,0
DA:294,0
DA:295,0
DA:296,0
DA:297,0
DA:298,0
DA:299,0
DA:300,0
DA:301,0
DA:302,0
DA:303,0
DA:304,0
DA:305,0
DA:306,0
DA:307,0
DA:308,0
DA:309,0
DA:310,0
DA:311,0
DA:312,0
DA:313,0
DA:315,0
DA:316,0
DA:317,0
DA:318,0
DA:319,0
DA:320,0
DA:321,0
DA:322,0
DA:323,0
DA:324,0
DA:325,0
DA:326,0
DA:327,0
DA:328,0
DA:329,0
DA:330,0
DA:331,0
DA:332,0
DA:333,0
DA:334,0
DA:335,0
DA:336,0
DA:337,0
DA:338,0
DA:339,0
DA:340,0
DA:341,0
DA:342,0
DA:343,0
DA:344,0
DA:345,0
DA:346,0
DA:347,0
DA:348,0
DA:349,0
DA:350,0
DA:351,0
DA:352,0
DA:353,0
DA:354,0
DA:355,0
DA:356,0
DA:357,0
DA:358,0
DA:359,0
DA:360,0
DA:361,0
DA:362,0
DA:365,0
DA:366,0
DA:367,0
DA:368,0
DA:369,0
DA:370,0
DA:371,0
DA:372,0
DA:373,0
DA:374,0
DA:375,0
DA:376,0
DA:377,0
DA:380,0
DA:381,0
DA:382,0
DA:383,0
DA:384,0
DA:385,0
DA:386,0
DA:387,0
DA:388,0
DA:389,0
DA:390,0
DA:391,0
DA:392,0
DA:394,0
DA:395,0
DA:396,0
DA:397,0
DA:398,0
DA:399,0
DA:400,0
DA:401,0
DA:402,0
DA:403,0
DA:404,0
DA:405,0
DA:406,0
DA:407,0
DA:408,0
DA:409,0
DA:410,0
DA:411,0
DA:412,0
DA:413,0
DA:414,0
DA:415,0
DA:416,0
DA:417,0
DA:420,0
DA:421,0
DA:422,0
DA:426,0
DA:427,0
DA:428,0
DA:429,0
DA:430,0
DA:431,0
DA:432,0
DA:433,0
DA:434,0
DA:435,0
DA:436,0
DA:437,0
DA:438,0
DA:439,0
DA:440,0
DA:441,0
DA:442,0
DA:446,0
DA:447,0
DA:448,0
DA:449,0
DA:450,0
DA:451,0
DA:452,0
DA:453,0
DA:454,0
DA:455,0
DA:456,0
DA:457,0
DA:458,0
DA:459,0
DA:460,0
DA:463,0
DA:464,0
DA:465,0
DA:468,0
DA:469,0
DA:470,0
DA:473,0
DA:474,0
DA:475,0
DA:476,0
DA:477,0
DA:478,0
DA:479,0
DA:480,0
DA:483,0
DA:484,0
DA:485,0
DA:487,0
DA:488,0
DA:489,0
DA:492,0
DA:493,0
DA:494,0
DA:495,0
DA:497,0
DA:498,0
DA:499,0
DA:500,0
DA:502,0
DA:503,0
DA:504,0
DA:505,0
DA:506,0
DA:508,0
DA:509,0
DA:510,0
DA:511,0
DA:512,0
DA:513,0
DA:514,0
DA:515,0
DA:516,0
DA:517,0
DA:518,0
DA:519,0
DA:520,0
DA:521,0
DA:523,0
DA:524,0
DA:525,0
DA:526,0
DA:527,0
DA:528,0
DA:530,0
DA:531,0
DA:534,0
DA:535,0
DA:537,0
DA:540,0
DA:541,0
DA:542,0
DA:543,0
DA:544,0
DA:545,0
DA:546,0
DA:548,0
DA:549,0
DA:550,0
DA:551,0
DA:552,0
DA:554,0
DA:557,0
DA:558,0
DA:559,0
DA:560,0
DA:561,0
DA:562,0
DA:564,0
DA:566,0
DA:567,0
DA:569,0
DA:570,0
DA:571,0
DA:572,0
DA:575,0
DA:576,0
DA:577,0
DA:578,0
DA:579,0
DA:581,0
DA:582,0
DA:583,0
DA:586,0
DA:587,0
DA:589,0
DA:591,0
DA:592,0
DA:595,0
DA:596,0
DA:597,0
DA:598,0
DA:600,0
DA:601,0
DA:602,0
DA:604,0
DA:606,0
DA:607,0
DA:610,0
DA:611,0
BRF:0
BRH:0
LF:463
LH:0
end_of_record
SF:/home/runner/work/mostrix/mostrix/src/ui/exit_confirm.rs
FN:9,_RNvNtNtCsaruqlPBEY0K_7mostrix2ui12exit_confirm19render_exit_confirm
FN:9,_RNvNtNtCs3smmrQNj5EW_7mostrix2ui12exit_confirm19render_exit_confirm
FN:9,_RNvNtNtCs1oYyZhp1ftr_7mostrix2ui12exit_confirm19render_exit_confirm
FN:9,_RNvNtNtCsbwworP4HFOr_7mostrix2ui12exit_confirm19render_exit_confirm
FNDA:0,_RNvNtNtCsaruqlPBEY0K_7mostrix2ui12exit_confirm19render_exit_confirm
FNDA:0,_RNvNtNtCs3smmrQNj5EW_7mostrix2ui12exit_confirm19render_exit_confirm
FNDA:0,_RNvNtNtCs1oYyZhp1ftr_7mostrix2ui12exit_confirm19render_exit_confirm
FNDA:0,_RNvNtNtCsbwworP4HFOr_7mostrix2ui12exit_confirm19render_exit_confirm
FNF:1
FNH:0
DA:9,0
DA:10,0
DA:11,0
DA:12,0
DA:14,0
DA:16,0
DA:18,0
DA:19,0
DA:20,0
DA:21,0
DA:24,0
DA:26,0
DA:27,0
DA:28,0
DA:29,0
DA:30,0
DA:31,0
DA:32,0
DA:33,0
DA:34,0
DA:35,0
DA:36,0
DA:37,0
DA:40,0
DA:43,0
DA:44,0
DA:46,0
DA:48,0
DA:49,0
DA:50,0
DA:54,0
DA:57,0
DA:58,0
DA:59,0
DA:60,0
DA:62,0
DA:63,0
DA:64,0
DA:66,0
DA:67,0
DA:68,0
DA:70,0
DA:71,0
DA:72,0
DA:74,0
DA:76,0
DA:77,0
DA:81,0
DA:82,0
DA:83,0
DA:84,0
DA:86,0
DA:87,0
DA:88,0
DA:90,0
DA:92,0
DA:93,0
DA:95,0
BRF:0
BRH:0
LF:58
LH:0
end_of_record
SF:/home/runner/work/mostrix/mostrix/src/ui/generate_keys_popup.rs
FN:65,_RNCNvNtNtCsaruqlPBEY0K_7mostrix2ui19generate_keys_popup22render_backup_new_keys0B7_
FN:38,_RNvNtNtCsaruqlPBEY0K_7mostrix2ui19generate_keys_popup22render_backup_new_keys
FN:8,_RNvNtNtCsaruqlPBEY0K_7mostrix2ui19generate_keys_popup32render_confirm_generate_new_keys
FN:65,_RNCNvNtNtCs3smmrQNj5EW_7mostrix2ui19generate_keys_popup22render_backup_new_keys0B7_
FN:38,_RNvNtNtCs3smmrQNj5EW_7mostrix2ui19generate_keys_popup22render_backup_new_keys
FN:8,_RNvNtNtCs3smmrQNj5EW_7mostrix2ui19generate_keys_popup32render_confirm_generate_new_keys
FN:65,_RNCNvNtNtCs1oYyZhp1ftr_7mostrix2ui19generate_keys_popup22render_backup_new_keys0B7_
FN:38,_RNvNtNtCs1oYyZhp1ftr_7mostrix2ui19generate_keys_popup22render_backup_new_keys
FN:8,_RNvNtNtCs1oYyZhp1ftr_7mostrix2ui19generate_keys_popup32render_confirm_generate_new_keys
FN:65,_RNCNvNtNtCsbwworP4HFOr_7mostrix2ui19generate_keys_popup22render_backup_new_keys0B7_
FN:38,_RNvNtNtCsbwworP4HFOr_7mostrix2ui19generate_keys_popup22render_backup_new_keys
FN:8,_RNvNtNtCsbwworP4HFOr_7mostrix2ui19generate_keys_popup32render_confirm_generate_new_keys
FNDA:0,_RNCNvNtNtCsaruqlPBEY0K_7mostrix2ui19generate_keys_popup22render_backup_new_keys0B7_
FNDA:0,_RNvNtNtCsaruqlPBEY0K_7mostrix2ui19generate_keys_popup22render_backup_new_keys
FNDA:0,_RNvNtNtCsaruqlPBEY0K_7mostrix2ui19generate_keys_popup32render_confirm_generate_new_keys
FNDA:0,_RNCNvNtNtCs3smmrQNj5EW_7mostrix2ui19generate_keys_popup22render_backup_new_keys0B7_
FNDA:0,_RNvNtNtCs3smmrQNj5EW_7mostrix2ui19generate_keys_popup22render_backup_new_keys
FNDA:0,_RNvNtNtCs3smmrQNj5EW_7mostrix2ui19generate_keys_popup32render_confirm_generate_new_keys
FNDA:0,_RNCNvNtNtCs1oYyZhp1ftr_7mostrix2ui19generate_keys_popup22render_backup_new_keys0B7_
FNDA:0,_RNvNtNtCs1oYyZhp1ftr_7mostrix2ui19generate_keys_popup22render_backup_new_keys
FNDA:0,_RNvNtNtCs1oYyZhp1ftr_7mostrix2ui19generate_keys_popup32render_confirm_generate_new_keys
FNDA:0,_RNCNvNtNtCsbwworP4HFOr_7mostrix2ui19generate_keys_popup22render_backup_new_keys0B7_
FNDA:0,_RNvNtNtCsbwworP4HFOr_7mostrix2ui19generate_keys_popup22render_backup_new_keys
FNDA:0,_RNvNtNtCsbwworP4HFOr_7mostrix2ui19generate_keys_popup32render_confirm_generate_new_keys
FNF:3
FNH:0
DA:8,0
DA:9,0
DA:10,0
DA:11,0
DA:12,0
DA:13,0
DA:18,0
DA:19,0
DA:20,0
DA:21,0
DA:23,0
DA:24,0
DA:25,0
DA:29,0
DA:30,0
DA:31,0
DA:32,0
DA:33,0
DA:34,0
DA:36,0
DA:38,0
DA:39,0
DA:40,0
DA:42,0
DA:44,0
DA:45,0
DA:47,0
DA:48,0
DA:50,0
DA:51,0
DA:52,0
DA:54,0
DA:55,0
DA:56,0
DA:57,0
DA:61,0
DA:62,0
DA:63,0
DA:64,0
DA:65,0
DA:66,0
DA:67,0
DA:68,0
DA:69,0
DA:71,0
DA:74,0
DA:75,0
DA:78,0
DA:79,0
DA:80,0
DA:81,0
DA:82,0
DA:83,0
DA:84,0
DA:85,0
DA:86,0
DA:87,0
DA:88,0
DA:89,0
DA:91,0
DA:92,0
DA:93,0
DA:94,0
DA:95,0
DA:98,0
DA:99,0
DA:100,0
DA:101,0
DA:102,0
DA:105,0
DA:106,0
DA:107,0
DA:108,0
DA:110,0
DA:111,0
DA:112,0
DA:114,0
DA:115,0
DA:117,0
DA:118,0
DA:119,0
DA:121,0
DA:123,0
DA:124,0
DA:126,0
BRF:0
BRH:0
LF:86
LH:0
end_of_record
SF:/home/runner/work/mostrix/mostrix/src/ui/help_popup.rs
FN:74,_RNCNvNtNtCsaruqlPBEY0K_7mostrix2ui10help_popup17render_help_popup0B7_
FN:303,_RNvNtNtCsaruqlPBEY0K_7mostrix2ui10help_popup12help_content
FN:11,_RNvNtNtCsaruqlPBEY0K_7mostrix2ui10help_popup17render_help_popup
FN:183,_RNvNtNtCsaruqlPBEY0K_7mostrix2ui10help_popup18help_shortcut_line
FN:167,_RNvNtNtCsaruqlPBEY0K_7mostrix2ui10help_popup20help_my_trades_intro
FN:206,_RNvNtNtCsaruqlPBEY0K_7mostrix2ui10help_popup26settings_instruction_lines
FN:198,_RNvNtNtCsaruqlPBEY0K_7mostrix2ui10help_popup30push_settings_instruction_line
FN:152,_RNvNtNtCsaruqlPBEY0K_7mostrix2ui10help_popup31help_disputes_in_progress_intro
FN:144,_RNvNtNtCsaruqlPBEY0K_7mostrix2ui10help_popup32settings_instruction_block_style
FN:88,_RNvNtNtCsaruqlPBEY0K_7mostrix2ui10help_popup34render_settings_instructions_popup
FN:74,_RNCNvNtNtCs3smmrQNj5EW_7mostrix2ui10help_popup17render_help_popup0B7_
FN:303,_RNvNtNtCs3smmrQNj5EW_7mostrix2ui10help_popup12help_content
FN:11,_RNvNtNtCs3smmrQNj5EW_7mostrix2ui10help_popup17render_help_popup
FN:183,_RNvNtNtCs3smmrQNj5EW_7mostrix2ui10help_popup18help_shortcut_line
FN:167,_RNvNtNtCs3smmrQNj5EW_7mostrix2ui10help_popup20help_my_trades_intro
FN:206,_RNvNtNtCs3smmrQNj5EW_7mostrix2ui10help_popup26settings_instruction_lines
FN:198,_RNvNtNtCs3smmrQNj5EW_7mostrix2ui10help_popup30push_settings_instruction_line
FN:152,_RNvNtNtCs3smmrQNj5EW_7mostrix2ui10help_popup31help_disputes_in_progress_intro
FN:144,_RNvNtNtCs3smmrQNj5EW_7mostrix2ui10help_popup32settings_instruction_block_style
FN:88,_RNvNtNtCs3smmrQNj5EW_7mostrix2ui10help_popup34render_settings_instructions_popup
FN:74,_RNCNvNtNtCs1oYyZhp1ftr_7mostrix2ui10help_popup17render_help_popup0B7_
FN:303,_RNvNtNtCs1oYyZhp1ftr_7mostrix2ui10help_popup12help_content
FN:11,_RNvNtNtCs1oYyZhp1ftr_7mostrix2ui10help_popup17render_help_popup
FN:183,_RNvNtNtCs1oYyZhp1ftr_7mostrix2ui10help_popup18help_shortcut_line
FN:167,_RNvNtNtCs1oYyZhp1ftr_7mostrix2ui10help_popup20help_my_trades_intro
FN:206,_RNvNtNtCs1oYyZhp1ftr_7mostrix2ui10help_popup26settings_instruction_lines
FN:198,_RNvNtNtCs1oYyZhp1ftr_7mostrix2ui10help_popup30push_settings_instruction_line
FN:152,_RNvNtNtCs1oYyZhp1ftr_7mostrix2ui10help_popup31help_disputes_in_progress_intro
FN:144,_RNvNtNtCs1oYyZhp1ftr_7mostrix2ui10help_popup32settings_instruction_block_style
FN:88,_RNvNtNtCs1oYyZhp1ftr_7mostrix2ui10help_popup34render_settings_instructions_popup
FN:74,_RNCNvNtNtCsbwworP4HFOr_7mostrix2ui10help_popup17render_help_popup0B7_
FN:303,_RNvNtNtCsbwworP4HFOr_7mostrix2ui10help_popup12help_content
FN:11,_RNvNtNtCsbwworP4HFOr_7mostrix2ui10help_popup17render_help_popup
FN:183,_RNvNtNtCsbwworP4HFOr_7mostrix2ui10help_popup18help_shortcut_line
FN:167,_RNvNtNtCsbwworP4HFOr_7mostrix2ui10help_popup20help_my_trades_intro
FN:206,_RNvNtNtCsbwworP4HFOr_7mostrix2ui10help_popup26settings_instruction_lines
FN:198,_RNvNtNtCsbwworP4HFOr_7mostrix2ui10help_popup30push_settings_instruction_line
FN:152,_RNvNtNtCsbwworP4HFOr_7mostrix2ui10help_popup31help_disputes_in_progress_intro
FN:144,_RNvNtNtCsbwworP4HFOr_7mostrix2ui10help_popup32settings_instruction_block_style
FN:88,_RNvNtNtCsbwworP4HFOr_7mostrix2ui10help_popup34render_settings_instructions_popup
FNDA:0,_RNCNvNtNtCsaruqlPBEY0K_7mostrix2ui10help_popup17render_help_popup0B7_
FNDA:0,_RNvNtNtCsaruqlPBEY0K_7mostrix2ui10help_popup12help_content
FNDA:0,_RNvNtNtCsaruqlPBEY0K_7mostrix2ui10help_popup17render_help_popup
FNDA:0,_RNvNtNtCsaruqlPBEY0K_7mostrix2ui10help_popup18help_shortcut_line
FNDA:0,_RNvNtNtCsaruqlPBEY0K_7mostrix2ui10help_popup20help_my_trades_intro
FNDA:0,_RNvNtNtCsaruqlPBEY0K_7mostrix2ui10help_popup26settings_instruction_lines
FNDA:0,_RNvNtNtCsaruqlPBEY0K_7mostrix2ui10help_popup30push_settings_instruction_line
FNDA:0,_RNvNtNtCsaruqlPBEY0K_7mostrix2ui10help_popup31help_disputes_in_progress_intro
FNDA:0,_RNvNtNtCsaruqlPBEY0K_7mostrix2ui10help_popup32settings_instruction_block_style
FNDA:0,_RNvNtNtCsaruqlPBEY0K_7mostrix2ui10help_popup34render_settings_instructions_popup
FNDA:0,_RNCNvNtNtCs3smmrQNj5EW_7mostrix2ui10help_popup17render_help_popup0B7_
FNDA:0,_RNvNtNtCs3smmrQNj5EW_7mostrix2ui10help_popup12help_content
FNDA:0,_RNvNtNtCs3smmrQNj5EW_7mostrix2ui10help_popup17render_help_popup
FNDA:0,_RNvNtNtCs3smmrQNj5EW_7mostrix2ui10help_popup18help_shortcut_line
FNDA:0,_RNvNtNtCs3smmrQNj5EW_7mostrix2ui10help_popup20help_my_trades_intro
FNDA:0,_RNvNtNtCs3smmrQNj5EW_7mostrix2ui10help_popup26settings_instruction_lines
FNDA:0,_RNvNtNtCs3smmrQNj5EW_7mostrix2ui10help_popup30push_settings_instruction_line
FNDA:0,_RNvNtNtCs3smmrQNj5EW_7mostrix2ui10help_popup31help_disputes_in_progress_intro
FNDA:0,_RNvNtNtCs3smmrQNj5EW_7mostrix2ui10help_popup32settings_instruction_block_style
FNDA:0,_RNvNtNtCs3smmrQNj5EW_7mostrix2ui10help_popup34render_settings_instructions_popup
FNDA:0,_RNCNvNtNtCs1oYyZhp1ftr_7mostrix2ui10help_popup17render_help_popup0B7_
FNDA:0,_RNvNtNtCs1oYyZhp1ftr_7mostrix2ui10help_popup12help_content
FNDA:0,_RNvNtNtCs1oYyZhp1ftr_7mostrix2ui10help_popup17render_help_popup
FNDA:0,_RNvNtNtCs1oYyZhp1ftr_7mostrix2ui10help_popup18help_shortcut_line
FNDA:0,_RNvNtNtCs1oYyZhp1ftr_7mostrix2ui10help_popup20help_my_trades_intro
FNDA:0,_RNvNtNtCs1oYyZhp1ftr_7mostrix2ui10help_popup26settings_instruction_lines
FNDA:0,_RNvNtNtCs1oYyZhp1ftr_7mostrix2ui10help_popup30push_settings_instruction_line
FNDA:0,_RNvNtNtCs1oYyZhp1ftr_7mostrix2ui10help_popup31help_disputes_in_progress_intro
FNDA:0,_RNvNtNtCs1oYyZhp1ftr_7mostrix2ui10help_popup32settings_instruction_block_style
FNDA:0,_RNvNtNtCs1oYyZhp1ftr_7mostrix2ui10help_popup34render_settings_instructions_popup
FNDA:0,_RNCNvNtNtCsbwworP4HFOr_7mostrix2ui10help_popup17render_help_popup0B7_
FNDA:0,_RNvNtNtCsbwworP4HFOr_7mostrix2ui10help_popup12help_content
FNDA:0,_RNvNtNtCsbwworP4HFOr_7mostrix2ui10help_popup17render_help_popup
FNDA:0,_RNvNtNtCsbwworP4HFOr_7mostrix2ui10help_popup18help_shortcut_line
FNDA:0,_RNvNtNtCsbwworP4HFOr_7mostrix2ui10help_popup20help_my_trades_intro
FNDA:0,_RNvNtNtCsbwworP4HFOr_7mostrix2ui10help_popup26settings_instruction_lines
FNDA:0,_RNvNtNtCsbwworP4HFOr_7mostrix2ui10help_popup30push_settings_instruction_line
FNDA:0,_RNvNtNtCsbwworP4HFOr_7mostrix2ui10help_popup31help_disputes_in_progress_intro
FNDA:0,_RNvNtNtCsbwworP4HFOr_7mostrix2ui10help_popup32settings_instruction_block_style
FNDA:0,_RNvNtNtCsbwworP4HFOr_7mostrix2ui10help_popup34render_settings_instructions_popup
FNF:10
FNH:0
DA:11,0
DA:12,0
DA:13,0
DA:16,0
DA:17,0
DA:21,0
DA:22,0
DA:24,0
DA:25,0
DA:26,0
DA:27,0
DA:28,0
DA:31,0
DA:32,0
DA:33,0
DA:34,0
DA:35,0
DA:36,0
DA:37,0
DA:38,0
DA:41,0
DA:43,0
DA:44,0
DA:45,0
DA:46,0
DA:47,0
DA:48,0
DA:50,0
DA:51,0
DA:52,0
DA:53,0
DA:55,0
DA:56,0
DA:57,0
DA:58,0
DA:59,0
DA:60,0
DA:61,0
DA:62,0
DA:63,0
DA:64,0
DA:65,0
DA:67,0
DA:69,0
DA:70,0
DA:72,0
DA:73,0
DA:74,0
DA:75,0
DA:76,0
DA:77,0
DA:78,0
DA:80,0
DA:82,0
DA:83,0
DA:85,0
DA:88,0
DA:89,0
DA:90,0
DA:92,0
DA:93,0
DA:95,0
DA:97,0
DA:98,0
DA:99,0
DA:100,0
DA:102,0
DA:104,0
DA:106,0
DA:112,0
DA:113,0
DA:115,0
DA:116,0
DA:117,0
DA:118,0
DA:119,0
DA:120,0
DA:121,0
DA:122,0
DA:125,0
DA:127,0
DA:128,0
DA:129,0
DA:130,0
DA:131,0
DA:132,0
DA:134,0
DA:135,0
DA:136,0
DA:137,0
DA:139,0
DA:140,0
DA:141,0
DA:142,0
DA:144,0
DA:145,0
DA:146,0
DA:147,0
DA:148,0
DA:149,0
DA:150,0
DA:152,0
DA:153,0
DA:154,0
DA:156,0
DA:158,0
DA:159,0
DA:160,0
DA:161,0
DA:162,0
DA:163,0
DA:165,0
DA:167,0
DA:168,0
DA:169,0
DA:171,0
DA:173,0
DA:174,0
DA:175,0
DA:176,0
DA:177,0
DA:178,0
DA:180,0
DA:183,0
DA:184,0
DA:185,0
DA:186,0
DA:187,0
DA:188,0
DA:190,0
DA:191,0
DA:192,0
DA:195,0
DA:198,0
DA:199,0
DA:200,0
DA:201,0
DA:202,0
DA:204,0
DA:206,0
DA:207,0
DA:208,0
DA:209,0
DA:210,0
DA:212,0
DA:214,0
DA:215,0
DA:216,0
DA:217,0
DA:218,0
DA:219,0
DA:220,0
DA:221,0
DA:222,0
DA:223,0
DA:224,0
DA:225,0
DA:226,0
DA:227,0
DA:228,0
DA:229,0
DA:230,0
DA:231,0
DA:232,0
DA:233,0
DA:234,0
DA:235,0
DA:236,0
DA:237,0
DA:238,0
DA:239,0
DA:240,0
DA:241,0
DA:242,0
DA:243,0
DA:244,0
DA:245,0
DA:246,0
DA:247,0
DA:248,0
DA:249,0
DA:250,0
DA:251,0
DA:253,0
DA:254,0
DA:255,0
DA:256,0
DA:257,0
DA:258,0
DA:259,0
DA:260,0
DA:261,0
DA:262,0
DA:263,0
DA:264,0
DA:265,0
DA:266,0
DA:267,0
DA:268,0
DA:269,0
DA:270,0
DA:271,0
DA:272,0
DA:273,0
DA:274,0
DA:275,0
DA:276,0
DA:277,0
DA:278,0
DA:279,0
DA:280,0
DA:281,0
DA:282,0
DA:283,0
DA:284,0
DA:285,0
DA:286,0
DA:287,0
DA:288,0
DA:289,0
DA:290,0
DA:292,0
DA:293,0
DA:294,0
DA:296,0
DA:297,0
DA:298,0
DA:300,0
DA:301,0
DA:303,0
DA:304,0
DA:306,0
DA:307,0
DA:308,0
DA:309,0
DA:310,0
DA:311,0
DA:312,0
DA:313,0
DA:315,0
DA:316,0
DA:317,0
DA:318,0
DA:319,0
DA:320,0
DA:321,0
DA:323,0
DA:324,0
DA:325,0
DA:326,0
DA:327,0
DA:328,0
DA:330,0
DA:331,0
DA:332,0
DA:333,0
DA:334,0
DA:335,0
DA:336,0
DA:337,0
DA:338,0
DA:339,0
DA:340,0
DA:341,0
DA:342,0
DA:343,0
DA:344,0
DA:345,0
DA:346,0
DA:347,0
DA:348,0
DA:349,0
DA:350,0
DA:351,0
DA:352,0
DA:353,0
DA:354,0
DA:355,0
DA:356,0
DA:357,0
DA:358,0
DA:359,0
DA:360,0
DA:361,0
DA:362,0
DA:363,0
DA:364,0
DA:365,0
DA:366,0
DA:367,0
DA:368,0
DA:369,0
DA:370,0
DA:371,0
DA:372,0
DA:373,0
DA:374,0
DA:375,0
DA:376,0
DA:377,0
DA:378,0
DA:379,0
DA:380,0
DA:381,0
DA:382,0
DA:383,0
DA:384,0
DA:385,0
DA:386,0
DA:387,0
DA:388,0
DA:389,0
DA:390,0
DA:391,0
DA:392,0
DA:393,0
DA:394,0
DA:395,0
DA:396,0
DA:397,0
DA:398,0
DA:399,0
DA:400,0
DA:401,0
DA:402,0
DA:403,0
DA:404,0
DA:405,0
DA:406,0
DA:407,0
DA:408,0
DA:409,0
DA:410,0
DA:411,0
DA:412,0
DA:413,0
DA:415,0
BRF:0
BRH:0
LF:338
LH:0
end_of_record
SF:/home/runner/work/mostrix/mostrix/src/ui/helpers/ascii_art.rs
FN:6,_RINvNtNtNtCsaruqlPBEY0K_7mostrix2ui7helpers9ascii_art21render_centered_linesNvNtB6_14startup_splash18style_loading_lineEB8_
FN:6,_RINvNtNtNtCsaruqlPBEY0K_7mostrix2ui7helpers9ascii_art21render_centered_linesNvNtNtB6_4tabs11tab_content20style_exit_logo_lineEB8_
FN:6,_RINvNtNtNtCs3smmrQNj5EW_7mostrix2ui7helpers9ascii_art21render_centered_linespEB8_
FN:6,_RINvNtNtNtCs1oYyZhp1ftr_7mostrix2ui7helpers9ascii_art21render_centered_linesNvNtB6_14startup_splash18style_loading_lineEB8_
FN:6,_RINvNtNtNtCs1oYyZhp1ftr_7mostrix2ui7helpers9ascii_art21render_centered_linesNvNtNtB6_4tabs11tab_content20style_exit_logo_lineEB8_
FN:6,_RINvNtNtNtCsbwworP4HFOr_7mostrix2ui7helpers9ascii_art21render_centered_linespEB8_
FNDA:0,_RINvNtNtNtCsaruqlPBEY0K_7mostrix2ui7helpers9ascii_art21render_centered_linesNvNtB6_14startup_splash18style_loading_lineEB8_
FNDA:0,_RINvNtNtNtCsaruqlPBEY0K_7mostrix2ui7helpers9ascii_art21render_centered_linesNvNtNtB6_4tabs11tab_content20style_exit_logo_lineEB8_
FNDA:0,_RINvNtNtNtCs3smmrQNj5EW_7mostrix2ui7helpers9ascii_art21render_centered_linespEB8_
FNDA:0,_RINvNtNtNtCs1oYyZhp1ftr_7mostrix2ui7helpers9ascii_art21render_centered_linesNvNtB6_14startup_splash18style_loading_lineEB8_
FNDA:0,_RINvNtNtNtCs1oYyZhp1ftr_7mostrix2ui7helpers9ascii_art21render_centered_linesNvNtNtB6_4tabs11tab_content20style_exit_logo_lineEB8_
FNDA:0,_RINvNtNtNtCsbwworP4HFOr_7mostrix2ui7helpers9ascii_art21render_centered_linespEB8_
FNF:1
FNH:0
DA:6,0
DA:7,0
DA:8,0
DA:10,0
DA:11,0
DA:12,0
DA:14,0
DA:15,0
DA:16,0
DA:18,0
DA:21,0
DA:22,0
DA:23,0
DA:24,0
DA:25,0
DA:27,0
DA:28,0
DA:29,0
DA:31,0
DA:34,0
DA:35,0
DA:36,0
DA:37,0
DA:38,0
DA:39,0
DA:41,0
DA:43,0
BRF:0
BRH:0
LF:27
LH:0
end_of_record
SF:/home/runner/work/mostrix/mostrix/src/ui/helpers/attachments.rs
FN:12,_RNCNvNtNtNtCsaruqlPBEY0K_7mostrix2ui7helpers11attachments23attachment_nonce_to_hex0B9_
FN:24,_RNCNvNtNtNtCsaruqlPBEY0K_7mostrix2ui7helpers11attachments23expire_attachment_toast0B9_
FN:242,_RNCNvNtNtNtCsaruqlPBEY0K_7mostrix2ui7helpers11attachments25build_file_encrypted_json0B9_
FN:201,_RNCNvNtNtNtCsaruqlPBEY0K_7mostrix2ui7helpers11attachments26build_image_encrypted_json0B9_
FN:124,_RNCNvNtNtNtCsaruqlPBEY0K_7mostrix2ui7helpers11attachments28try_parse_attachment_message0B9_
FN:129,_RNCNvNtNtNtCsaruqlPBEY0K_7mostrix2ui7helpers11attachments28try_parse_attachment_messages0_0B9_
FN:130,_RNCNvNtNtNtCsaruqlPBEY0K_7mostrix2ui7helpers11attachments28try_parse_attachment_messages1_0B9_
FN:128,_RNCNvNtNtNtCsaruqlPBEY0K_7mostrix2ui7helpers11attachments28try_parse_attachment_messages_0B9_
FN:86,_RNCNvNtNtNtCsaruqlPBEY0K_7mostrix2ui7helpers11attachments35legacy_placeholder_matches_filename0B9_
FN:65,_RNCNvNtNtNtCsaruqlPBEY0K_7mostrix2ui7helpers11attachments35serialize_attachment_for_transcript0B9_
FN:40,_RNvNtNtNtCsaruqlPBEY0K_7mostrix2ui7helpers11attachments22attachment_is_saveable
FN:31,_RNvNtNtNtCsaruqlPBEY0K_7mostrix2ui7helpers11attachments22attachment_placeholder
FN:250,_RNvNtNtNtCsaruqlPBEY0K_7mostrix2ui7helpers11attachments22build_attachment_toast
FN:11,_RNvNtNtNtCsaruqlPBEY0K_7mostrix2ui7helpers11attachments23attachment_nonce_to_hex
FN:20,_RNvNtNtNtCsaruqlPBEY0K_7mostrix2ui7helpers11attachments23expire_attachment_toast
FN:210,_RNvNtNtNtCsaruqlPBEY0K_7mostrix2ui7helpers11attachments25build_file_encrypted_json
FN:168,_RNvNtNtNtCsaruqlPBEY0K_7mostrix2ui7helpers11attachments26build_image_encrypted_json
FN:104,_RNvNtNtNtCsaruqlPBEY0K_7mostrix2ui7helpers11attachments28try_parse_attachment_message
FN:69,_RNvNtNtNtCsaruqlPBEY0K_7mostrix2ui7helpers11attachments32try_parse_attachment_placeholder
FN:85,_RNvNtNtNtCsaruqlPBEY0K_7mostrix2ui7helpers11attachments35legacy_placeholder_matches_filename
FN:45,_RNvNtNtNtCsaruqlPBEY0K_7mostrix2ui7helpers11attachments35serialize_attachment_for_transcript
FN:90,_RNvNtNtNtCsaruqlPBEY0K_7mostrix2ui7helpers11attachments38message_fields_from_transcript_content
FN:24,_RNCNvNtNtNtCs3smmrQNj5EW_7mostrix2ui7helpers11attachments23expire_attachment_toast0B9_
FN:250,_RNvNtNtNtCs3smmrQNj5EW_7mostrix2ui7helpers11attachments22build_attachment_toast
FN:20,_RNvNtNtNtCs3smmrQNj5EW_7mostrix2ui7helpers11attachments23expire_attachment_toast
FN:261,_RNvNtNtNtNtCs3smmrQNj5EW_7mostrix2ui7helpers11attachments5tests17sample_attachment
FN:312,_RNvNtNtNtNtCs3smmrQNj5EW_7mostrix2ui7helpers11attachments5testss_35message_fields_from_json_transcript
FN:272,_RNvNtNtNtNtCs3smmrQNj5EW_7mostrix2ui7helpers11attachments5testss_39serialize_roundtrip_restores_attachment
FN:303,_RNvNtNtNtNtCs3smmrQNj5EW_7mostrix2ui7helpers11attachments5testss_43empty_blossom_url_is_not_saveable_or_parsed
FN:291,_RNvNtNtNtNtCs3smmrQNj5EW_7mostrix2ui7helpers11attachments5testss_43legacy_placeholder_matches_filename_by_name
FN:283,_RNvNtNtNtNtCs3smmrQNj5EW_7mostrix2ui7helpers11attachments5testss_43legacy_placeholder_parser_extracts_filename
FN:346,_RNvNtNtNtNtCs3smmrQNj5EW_7mostrix2ui7helpers11attachments5testss_44build_file_encrypted_json_includes_file_type
FN:322,_RNvNtNtNtNtCs3smmrQNj5EW_7mostrix2ui7helpers11attachments5testss_48build_image_encrypted_json_matches_mobile_schema
FN:12,_RNCNvNtNtNtCs3smmrQNj5EW_7mostrix2ui7helpers11attachments23attachment_nonce_to_hex0B9_
FN:242,_RNCNvNtNtNtCs3smmrQNj5EW_7mostrix2ui7helpers11attachments25build_file_encrypted_json0B9_
FN:201,_RNCNvNtNtNtCs3smmrQNj5EW_7mostrix2ui7helpers11attachments26build_image_encrypted_json0B9_
FN:124,_RNCNvNtNtNtCs3smmrQNj5EW_7mostrix2ui7helpers11attachments28try_parse_attachment_message0B9_
FN:129,_RNCNvNtNtNtCs3smmrQNj5EW_7mostrix2ui7helpers11attachments28try_parse_attachment_messages0_0B9_
FN:130,_RNCNvNtNtNtCs3smmrQNj5EW_7mostrix2ui7helpers11attachments28try_parse_attachment_messages1_0B9_
FN:128,_RNCNvNtNtNtCs3smmrQNj5EW_7mostrix2ui7helpers11attachments28try_parse_attachment_messages_0B9_
FN:86,_RNCNvNtNtNtCs3smmrQNj5EW_7mostrix2ui7helpers11attachments35legacy_placeholder_matches_filename0B9_
FN:65,_RNCNvNtNtNtCs3smmrQNj5EW_7mostrix2ui7helpers11attachments35serialize_attachment_for_transcript0B9_
FN:40,_RNvNtNtNtCs3smmrQNj5EW_7mostrix2ui7helpers11attachments22attachment_is_saveable
FN:31,_RNvNtNtNtCs3smmrQNj5EW_7mostrix2ui7helpers11attachments22attachment_placeholder
FN:11,_RNvNtNtNtCs3smmrQNj5EW_7mostrix2ui7helpers11attachments23attachment_nonce_to_hex
FN:210,_RNvNtNtNtCs3smmrQNj5EW_7mostrix2ui7helpers11attachments25build_file_encrypted_json
FN:168,_RNvNtNtNtCs3smmrQNj5EW_7mostrix2ui7helpers11attachments26build_image_encrypted_json
FN:104,_RNvNtNtNtCs3smmrQNj5EW_7mostrix2ui7helpers11attachments28try_parse_attachment_message
FN:69,_RNvNtNtNtCs3smmrQNj5EW_7mostrix2ui7helpers11attachments32try_parse_attachment_placeholder
FN:85,_RNvNtNtNtCs3smmrQNj5EW_7mostrix2ui7helpers11attachments35legacy_placeholder_matches_filename
FN:45,_RNvNtNtNtCs3smmrQNj5EW_7mostrix2ui7helpers11attachments35serialize_attachment_for_transcript
FN:90,_RNvNtNtNtCs3smmrQNj5EW_7mostrix2ui7helpers11attachments38message_fields_from_transcript_content
FN:12,_RNCNvNtNtNtCs1oYyZhp1ftr_7mostrix2ui7helpers11attachments23attachment_nonce_to_hex0B9_
FN:24,_RNCNvNtNtNtCs1oYyZhp1ftr_7mostrix2ui7helpers11attachments23expire_attachment_toast0B9_
FN:242,_RNCNvNtNtNtCs1oYyZhp1ftr_7mostrix2ui7helpers11attachments25build_file_encrypted_json0B9_
FN:201,_RNCNvNtNtNtCs1oYyZhp1ftr_7mostrix2ui7helpers11attachments26build_image_encrypted_json0B9_
FN:124,_RNCNvNtNtNtCs1oYyZhp1ftr_7mostrix2ui7helpers11attachments28try_parse_attachment_message0B9_
FN:129,_RNCNvNtNtNtCs1oYyZhp1ftr_7mostrix2ui7helpers11attachments28try_parse_attachment_messages0_0B9_
FN:130,_RNCNvNtNtNtCs1oYyZhp1ftr_7mostrix2ui7helpers11attachments28try_parse_attachment_messages1_0B9_
FN:128,_RNCNvNtNtNtCs1oYyZhp1ftr_7mostrix2ui7helpers11attachments28try_parse_attachment_messages_0B9_
FN:86,_RNCNvNtNtNtCs1oYyZhp1ftr_7mostrix2ui7helpers11attachments35legacy_placeholder_matches_filename0B9_
FN:65,_RNCNvNtNtNtCs1oYyZhp1ftr_7mostrix2ui7helpers11attachments35serialize_attachment_for_transcript0B9_
FN:40,_RNvNtNtNtCs1oYyZhp1ftr_7mostrix2ui7helpers11attachments22attachment_is_saveable
FN:31,_RNvNtNtNtCs1oYyZhp1ftr_7mostrix2ui7helpers11attachments22attachment_placeholder
FN:250,_RNvNtNtNtCs1oYyZhp1ftr_7mostrix2ui7helpers11attachments22build_attachment_toast
FN:11,_RNvNtNtNtCs1oYyZhp1ftr_7mostrix2ui7helpers11attachments23attachment_nonce_to_hex
FN:20,_RNvNtNtNtCs1oYyZhp1ftr_7mostrix2ui7helpers11attachments23expire_attachment_toast
FN:210,_RNvNtNtNtCs1oYyZhp1ftr_7mostrix2ui7helpers11attachments25build_file_encrypted_json
FN:168,_RNvNtNtNtCs1oYyZhp1ftr_7mostrix2ui7helpers11attachments26build_image_encrypted_json
FN:104,_RNvNtNtNtCs1oYyZhp1ftr_7mostrix2ui7helpers11attachments28try_parse_attachment_message
FN:69,_RNvNtNtNtCs1oYyZhp1ftr_7mostrix2ui7helpers11attachments32try_parse_attachment_placeholder
FN:85,_RNvNtNtNtCs1oYyZhp1ftr_7mostrix2ui7helpers11attachments35legacy_placeholder_matches_filename
FN:45,_RNvNtNtNtCs1oYyZhp1ftr_7mostrix2ui7helpers11attachments35serialize_attachment_for_transcript
FN:90,_RNvNtNtNtCs1oYyZhp1ftr_7mostrix2ui7helpers11attachments38message_fields_from_transcript_content
FN:12,_RNCNvNtNtNtCsbwworP4HFOr_7mostrix2ui7helpers11attachments23attachment_nonce_to_hex0B9_
FN:242,_RNCNvNtNtNtCsbwworP4HFOr_7mostrix2ui7helpers11attachments25build_file_encrypted_json0B9_
FN:201,_RNCNvNtNtNtCsbwworP4HFOr_7mostrix2ui7helpers11attachments26build_image_encrypted_json0B9_
FN:124,_RNCNvNtNtNtCsbwworP4HFOr_7mostrix2ui7helpers11attachments28try_parse_attachment_message0B9_
FN:129,_RNCNvNtNtNtCsbwworP4HFOr_7mostrix2ui7helpers11attachments28try_parse_attachment_messages0_0B9_
FN:130,_RNCNvNtNtNtCsbwworP4HFOr_7mostrix2ui7helpers11attachments28try_parse_attachment_messages1_0B9_
FN:128,_RNCNvNtNtNtCsbwworP4HFOr_7mostrix2ui7helpers11attachments28try_parse_attachment_messages_0B9_
FN:86,_RNCNvNtNtNtCsbwworP4HFOr_7mostrix2ui7helpers11attachments35legacy_placeholder_matches_filename0B9_
FN:65,_RNCNvNtNtNtCsbwworP4HFOr_7mostrix2ui7helpers11attachments35serialize_attachment_for_transcript0B9_
FN:40,_RNvNtNtNtCsbwworP4HFOr_7mostrix2ui7helpers11attachments22attachment_is_saveable
FN:31,_RNvNtNtNtCsbwworP4HFOr_7mostrix2ui7helpers11attachments22attachment_placeholder
FN:11,_RNvNtNtNtCsbwworP4HFOr_7mostrix2ui7helpers11attachments23attachment_nonce_to_hex
FN:210,_RNvNtNtNtCsbwworP4HFOr_7mostrix2ui7helpers11attachments25build_file_encrypted_json
FN:168,_RNvNtNtNtCsbwworP4HFOr_7mostrix2ui7helpers11attachments26build_image_encrypted_json
FN:104,_RNvNtNtNtCsbwworP4HFOr_7mostrix2ui7helpers11attachments28try_parse_attachment_message
FN:69,_RNvNtNtNtCsbwworP4HFOr_7mostrix2ui7helpers11attachments32try_parse_attachment_placeholder
FN:85,_RNvNtNtNtCsbwworP4HFOr_7mostrix2ui7helpers11attachments35legacy_placeholder_matches_filename
FN:45,_RNvNtNtNtCsbwworP4HFOr_7mostrix2ui7helpers11attachments35serialize_attachment_for_transcript
FN:90,_RNvNtNtNtCsbwworP4HFOr_7mostrix2ui7helpers11attachments38message_fields_from_transcript_content
FN:24,_RNCNvNtNtNtCsbwworP4HFOr_7mostrix2ui7helpers11attachments23expire_attachment_toast0B9_
FN:250,_RNvNtNtNtCsbwworP4HFOr_7mostrix2ui7helpers11attachments22build_attachment_toast
FN:20,_RNvNtNtNtCsbwworP4HFOr_7mostrix2ui7helpers11attachments23expire_attachment_toast
FN:261,_RNvNtNtNtNtCsbwworP4HFOr_7mostrix2ui7helpers11attachments5tests17sample_attachment
FN:312,_RNvNtNtNtNtCsbwworP4HFOr_7mostrix2ui7helpers11attachments5testss_35message_fields_from_json_transcript
FN:272,_RNvNtNtNtNtCsbwworP4HFOr_7mostrix2ui7helpers11attachments5testss_39serialize_roundtrip_restores_attachment
FN:303,_RNvNtNtNtNtCsbwworP4HFOr_7mostrix2ui7helpers11attachments5testss_43empty_blossom_url_is_not_saveable_or_parsed
FN:291,_RNvNtNtNtNtCsbwworP4HFOr_7mostrix2ui7helpers11attachments5testss_43legacy_placeholder_matches_filename_by_name
FN:283,_RNvNtNtNtNtCsbwworP4HFOr_7mostrix2ui7helpers11attachments5testss_43legacy_placeholder_parser_extracts_filename
FN:346,_RNvNtNtNtNtCsbwworP4HFOr_7mostrix2ui7helpers11attachments5testss_44build_file_encrypted_json_includes_file_type
FN:322,_RNvNtNtNtNtCsbwworP4HFOr_7mostrix2ui7helpers11attachments5testss_48build_image_encrypted_json_matches_mobile_schema
FNDA:0,_RNCNvNtNtNtCsaruqlPBEY0K_7mostrix2ui7helpers11attachments23attachment_nonce_to_hex0B9_
FNDA:0,_RNCNvNtNtNtCsaruqlPBEY0K_7mostrix2ui7helpers11attachments23expire_attachment_toast0B9_
FNDA:0,_RNCNvNtNtNtCsaruqlPBEY0K_7mostrix2ui7helpers11attachments25build_file_encrypted_json0B9_
FNDA:0,_RNCNvNtNtNtCsaruqlPBEY0K_7mostrix2ui7helpers11attachments26build_image_encrypted_json0B9_
FNDA:0,_RNCNvNtNtNtCsaruqlPBEY0K_7mostrix2ui7helpers11attachments28try_parse_attachment_message0B9_
FNDA:0,_RNCNvNtNtNtCsaruqlPBEY0K_7mostrix2ui7helpers11attachments28try_parse_attachment_messages0_0B9_
FNDA:0,_RNCNvNtNtNtCsaruqlPBEY0K_7mostrix2ui7helpers11attachments28try_parse_attachment_messages1_0B9_
FNDA:0,_RNCNvNtNtNtCsaruqlPBEY0K_7mostrix2ui7helpers11attachments28try_parse_attachment_messages_0B9_
FNDA:0,_RNCNvNtNtNtCsaruqlPBEY0K_7mostrix2ui7helpers11attachments35legacy_placeholder_matches_filename0B9_
FNDA:0,_RNCNvNtNtNtCsaruqlPBEY0K_7mostrix2ui7helpers11attachments35serialize_attachment_for_transcript0B9_
FNDA:0,_RNvNtNtNtCsaruqlPBEY0K_7mostrix2ui7helpers11attachments22attachment_is_saveable
FNDA:0,_RNvNtNtNtCsaruqlPBEY0K_7mostrix2ui7helpers11attachments22attachment_placeholder
FNDA:0,_RNvNtNtNtCsaruqlPBEY0K_7mostrix2ui7helpers11attachments22build_attachment_toast
FNDA:0,_RNvNtNtNtCsaruqlPBEY0K_7mostrix2ui7helpers11attachments23attachment_nonce_to_hex
FNDA:0,_RNvNtNtNtCsaruqlPBEY0K_7mostrix2ui7helpers11attachments23expire_attachment_toast
FNDA:0,_RNvNtNtNtCsaruqlPBEY0K_7mostrix2ui7helpers11attachments25build_file_encrypted_json
FNDA:0,_RNvNtNtNtCsaruqlPBEY0K_7mostrix2ui7helpers11attachments26build_image_encrypted_json
FNDA:0,_RNvNtNtNtCsaruqlPBEY0K_7mostrix2ui7helpers11attachments28try_parse_attachment_message
FNDA:0,_RNvNtNtNtCsaruqlPBEY0K_7mostrix2ui7helpers11attachments32try_parse_attachment_placeholder
FNDA:0,_RNvNtNtNtCsaruqlPBEY0K_7mostrix2ui7helpers11attachments35legacy_placeholder_matches_filename
FNDA:0,_RNvNtNtNtCsaruqlPBEY0K_7mostrix2ui7helpers11attachments35serialize_attachment_for_transcript
FNDA:0,_RNvNtNtNtCsaruqlPBEY0K_7mostrix2ui7helpers11attachments38message_fields_from_transcript_content
FNDA:0,_RNCNvNtNtNtCs3smmrQNj5EW_7mostrix2ui7helpers11attachments23expire_attachment_toast0B9_
FNDA:0,_RNvNtNtNtCs3smmrQNj5EW_7mostrix2ui7helpers11attachments22build_attachment_toast
FNDA:0,_RNvNtNtNtCs3smmrQNj5EW_7mostrix2ui7helpers11attachments23expire_attachment_toast
FNDA:2,_RNvNtNtNtNtCs3smmrQNj5EW_7mostrix2ui7helpers11attachments5tests17sample_attachment
FNDA:1,_RNvNtNtNtNtCs3smmrQNj5EW_7mostrix2ui7helpers11attachments5testss_35message_fields_from_json_transcript
FNDA:1,_RNvNtNtNtNtCs3smmrQNj5EW_7mostrix2ui7helpers11attachments5testss_39serialize_roundtrip_restores_attachment
FNDA:1,_RNvNtNtNtNtCs3smmrQNj5EW_7mostrix2ui7helpers11attachments5testss_43empty_blossom_url_is_not_saveable_or_parsed
FNDA:1,_RNvNtNtNtNtCs3smmrQNj5EW_7mostrix2ui7helpers11attachments5testss_43legacy_placeholder_matches_filename_by_name
FNDA:1,_RNvNtNtNtNtCs3smmrQNj5EW_7mostrix2ui7helpers11attachments5testss_43legacy_placeholder_parser_extracts_filename
FNDA:1,_RNvNtNtNtNtCs3smmrQNj5EW_7mostrix2ui7helpers11attachments5testss_44build_file_encrypted_json_includes_file_type
FNDA:1,_RNvNtNtNtNtCs3smmrQNj5EW_7mostrix2ui7helpers11attachments5testss_48build_image_encrypted_json_matches_mobile_schema
FNDA:24,_RNCNvNtNtNtCs3smmrQNj5EW_7mostrix2ui7helpers11attachments23attachment_nonce_to_hex0B9_
FNDA:0,_RNCNvNtNtNtCs3smmrQNj5EW_7mostrix2ui7helpers11attachments25build_file_encrypted_json0B9_
FNDA:0,_RNCNvNtNtNtCs3smmrQNj5EW_7mostrix2ui7helpers11attachments26build_image_encrypted_json0B9_
FNDA:5,_RNCNvNtNtNtCs3smmrQNj5EW_7mostrix2ui7helpers11attachments28try_parse_attachment_message0B9_
FNDA:0,_RNCNvNtNtNtCs3smmrQNj5EW_7mostrix2ui7helpers11attachments28try_parse_attachment_messages0_0B9_
FNDA:0,_RNCNvNtNtNtCs3smmrQNj5EW_7mostrix2ui7helpers11attachments28try_parse_attachment_messages1_0B9_
FNDA:0,_RNCNvNtNtNtCs3smmrQNj5EW_7mostrix2ui7helpers11attachments28try_parse_attachment_messages_0B9_
FNDA:2,_RNCNvNtNtNtCs3smmrQNj5EW_7mostrix2ui7helpers11attachments35legacy_placeholder_matches_filename0B9_
FNDA:0,_RNCNvNtNtNtCs3smmrQNj5EW_7mostrix2ui7helpers11attachments35serialize_attachment_for_transcript0B9_
FNDA:6,_RNvNtNtNtCs3smmrQNj5EW_7mostrix2ui7helpers11attachments22attachment_is_saveable
FNDA:0,_RNvNtNtNtCs3smmrQNj5EW_7mostrix2ui7helpers11attachments22attachment_placeholder
FNDA:2,_RNvNtNtNtCs3smmrQNj5EW_7mostrix2ui7helpers11attachments23attachment_nonce_to_hex
FNDA:1,_RNvNtNtNtCs3smmrQNj5EW_7mostrix2ui7helpers11attachments25build_file_encrypted_json
FNDA:1,_RNvNtNtNtCs3smmrQNj5EW_7mostrix2ui7helpers11attachments26build_image_encrypted_json
FNDA:9,_RNvNtNtNtCs3smmrQNj5EW_7mostrix2ui7helpers11attachments28try_parse_attachment_message
FNDA:3,_RNvNtNtNtCs3smmrQNj5EW_7mostrix2ui7helpers11attachments32try_parse_attachment_placeholder
FNDA:2,_RNvNtNtNtCs3smmrQNj5EW_7mostrix2ui7helpers11attachments35legacy_placeholder_matches_filename
FNDA:4,_RNvNtNtNtCs3smmrQNj5EW_7mostrix2ui7helpers11attachments35serialize_attachment_for_transcript
FNDA:4,_RNvNtNtNtCs3smmrQNj5EW_7mostrix2ui7helpers11attachments38message_fields_from_transcript_content
FNDA:0,_RNCNvNtNtNtCs1oYyZhp1ftr_7mostrix2ui7helpers11attachments23attachment_nonce_to_hex0B9_
FNDA:0,_RNCNvNtNtNtCs1oYyZhp1ftr_7mostrix2ui7helpers11attachments23expire_attachment_toast0B9_
FNDA:0,_RNCNvNtNtNtCs1oYyZhp1ftr_7mostrix2ui7helpers11attachments25build_file_encrypted_json0B9_
FNDA:0,_RNCNvNtNtNtCs1oYyZhp1ftr_7mostrix2ui7helpers11attachments26build_image_encrypted_json0B9_
FNDA:0,_RNCNvNtNtNtCs1oYyZhp1ftr_7mostrix2ui7helpers11attachments28try_parse_attachment_message0B9_
FNDA:0,_RNCNvNtNtNtCs1oYyZhp1ftr_7mostrix2ui7helpers11attachments28try_parse_attachment_messages0_0B9_
FNDA:0,_RNCNvNtNtNtCs1oYyZhp1ftr_7mostrix2ui7helpers11attachments28try_parse_attachment_messages1_0B9_
FNDA:0,_RNCNvNtNtNtCs1oYyZhp1ftr_7mostrix2ui7helpers11attachments28try_parse_attachment_messages_0B9_
FNDA:0,_RNCNvNtNtNtCs1oYyZhp1ftr_7mostrix2ui7helpers11attachments35legacy_placeholder_matches_filename0B9_
FNDA:0,_RNCNvNtNtNtCs1oYyZhp1ftr_7mostrix2ui7helpers11attachments35serialize_attachment_for_transcript0B9_
FNDA:0,_RNvNtNtNtCs1oYyZhp1ftr_7mostrix2ui7helpers11attachments22attachment_is_saveable
FNDA:0,_RNvNtNtNtCs1oYyZhp1ftr_7mostrix2ui7helpers11attachments22attachment_placeholder
FNDA:0,_RNvNtNtNtCs1oYyZhp1ftr_7mostrix2ui7helpers11attachments22build_attachment_toast
FNDA:0,_RNvNtNtNtCs1oYyZhp1ftr_7mostrix2ui7helpers11attachments23attachment_nonce_to_hex
FNDA:0,_RNvNtNtNtCs1oYyZhp1ftr_7mostrix2ui7helpers11attachments23expire_attachment_toast
FNDA:0,_RNvNtNtNtCs1oYyZhp1ftr_7mostrix2ui7helpers11attachments25build_file_encrypted_json
FNDA:0,_RNvNtNtNtCs1oYyZhp1ftr_7mostrix2ui7helpers11attachments26build_image_encrypted_json
FNDA:0,_RNvNtNtNtCs1oYyZhp1ftr_7mostrix2ui7helpers11attachments28try_parse_attachment_message
FNDA:0,_RNvNtNtNtCs1oYyZhp1ftr_7mostrix2ui7helpers11attachments32try_parse_attachment_placeholder
FNDA:0,_RNvNtNtNtCs1oYyZhp1ftr_7mostrix2ui7helpers11attachments35legacy_placeholder_matches_filename
FNDA:0,_RNvNtNtNtCs1oYyZhp1ftr_7mostrix2ui7helpers11attachments35serialize_attachment_for_transcript
FNDA:0,_RNvNtNtNtCs1oYyZhp1ftr_7mostrix2ui7helpers11attachments38message_fields_from_transcript_content
FNDA:24,_RNCNvNtNtNtCsbwworP4HFOr_7mostrix2ui7helpers11attachments23attachment_nonce_to_hex0B9_
FNDA:0,_RNCNvNtNtNtCsbwworP4HFOr_7mostrix2ui7helpers11attachments25build_file_encrypted_json0B9_
FNDA:0,_RNCNvNtNtNtCsbwworP4HFOr_7mostrix2ui7helpers11attachments26build_image_encrypted_json0B9_
FNDA:5,_RNCNvNtNtNtCsbwworP4HFOr_7mostrix2ui7helpers11attachments28try_parse_attachment_message0B9_
FNDA:0,_RNCNvNtNtNtCsbwworP4HFOr_7mostrix2ui7helpers11attachments28try_parse_attachment_messages0_0B9_
FNDA:0,_RNCNvNtNtNtCsbwworP4HFOr_7mostrix2ui7helpers11attachments28try_parse_attachment_messages1_0B9_
FNDA:0,_RNCNvNtNtNtCsbwworP4HFOr_7mostrix2ui7helpers11attachments28try_parse_attachment_messages_0B9_
FNDA:2,_RNCNvNtNtNtCsbwworP4HFOr_7mostrix2ui7helpers11attachments35legacy_placeholder_matches_filename0B9_
FNDA:0,_RNCNvNtNtNtCsbwworP4HFOr_7mostrix2ui7helpers11attachments35serialize_attachment_for_transcript0B9_
FNDA:6,_RNvNtNtNtCsbwworP4HFOr_7mostrix2ui7helpers11attachments22attachment_is_saveable
FNDA:0,_RNvNtNtNtCsbwworP4HFOr_7mostrix2ui7helpers11attachments22attachment_placeholder
FNDA:2,_RNvNtNtNtCsbwworP4HFOr_7mostrix2ui7helpers11attachments23attachment_nonce_to_hex
FNDA:1,_RNvNtNtNtCsbwworP4HFOr_7mostrix2ui7helpers11attachments25build_file_encrypted_json
FNDA:1,_RNvNtNtNtCsbwworP4HFOr_7mostrix2ui7helpers11attachments26build_image_encrypted_json
FNDA:9,_RNvNtNtNtCsbwworP4HFOr_7mostrix2ui7helpers11attachments28try_parse_attachment_message
FNDA:3,_RNvNtNtNtCsbwworP4HFOr_7mostrix2ui7helpers11attachments32try_parse_attachment_placeholder
FNDA:2,_RNvNtNtNtCsbwworP4HFOr_7mostrix2ui7helpers11attachments35legacy_placeholder_matches_filename
FNDA:4,_RNvNtNtNtCsbwworP4HFOr_7mostrix2ui7helpers11attachments35serialize_attachment_for_transcript
FNDA:4,_RNvNtNtNtCsbwworP4HFOr_7mostrix2ui7helpers11attachments38message_fields_from_transcript_content
FNDA:0,_RNCNvNtNtNtCsbwworP4HFOr_7mostrix2ui7helpers11attachments23expire_attachment_toast0B9_
FNDA:0,_RNvNtNtNtCsbwworP4HFOr_7mostrix2ui7helpers11attachments22build_attachment_toast
FNDA:0,_RNvNtNtNtCsbwworP4HFOr_7mostrix2ui7helpers11attachments23expire_attachment_toast
FNDA:2,_RNvNtNtNtNtCsbwworP4HFOr_7mostrix2ui7helpers11attachments5tests17sample_attachment
FNDA:1,_RNvNtNtNtNtCsbwworP4HFOr_7mostrix2ui7helpers11attachments5testss_35message_fields_from_json_transcript
FNDA:1,_RNvNtNtNtNtCsbwworP4HFOr_7mostrix2ui7helpers11attachments5testss_39serialize_roundtrip_restores_attachment
FNDA:1,_RNvNtNtNtNtCsbwworP4HFOr_7mostrix2ui7helpers11attachments5testss_43empty_blossom_url_is_not_saveable_or_parsed
FNDA:1,_RNvNtNtNtNtCsbwworP4HFOr_7mostrix2ui7helpers11attachments5testss_43legacy_placeholder_matches_filename_by_name
FNDA:1,_RNvNtNtNtNtCsbwworP4HFOr_7mostrix2ui7helpers11attachments5testss_43legacy_placeholder_parser_extracts_filename
FNDA:1,_RNvNtNtNtNtCsbwworP4HFOr_7mostrix2ui7helpers11attachments5testss_44build_file_encrypted_json_includes_file_type
FNDA:1,_RNvNtNtNtNtCsbwworP4HFOr_7mostrix2ui7helpers11attachments5testss_48build_image_encrypted_json_matches_mobile_schema
FNF:30
FNH:20
DA:11,4
DA:12,48
DA:13,4
DA:20,0
DA:21,0
DA:22,0
DA:23,0
DA:24,0
DA:25,0
DA:26,0
DA:27,0
DA:28,0
DA:31,0
DA:32,0
DA:33,0
DA:34,0
DA:36,0
DA:37,0
DA:40,12
DA:41,12
DA:42,12
DA:45,8
DA:46,8
DA:47,0
DA:48,8
DA:49,8
DA:50,4
DA:51,4
DA:53,8
DA:54,8
DA:55,8
DA:56,8
DA:57,8
DA:58,4
DA:59,4
DA:60,8
DA:61,0
DA:62,0
DA:63,0
DA:64,8
DA:65,8
DA:66,8
DA:69,6
DA:70,6
DA:71,6
DA:72,6
DA:73,6
DA:74,6
DA:75,6
DA:76,6
DA:77,6
DA:78,2
DA:79,0
DA:81,6
DA:82,6
DA:85,4
DA:86,4
DA:87,4
DA:90,8
DA:91,8
DA:92,8
DA:93,8
DA:94,4
DA:95,4
DA:96,0
DA:97,0
DA:98,4
DA:99,4
DA:100,8
DA:104,18
DA:105,18
DA:106,18
DA:107,2
DA:108,16
DA:109,16
DA:110,16
DA:111,16
DA:112,16
DA:113,16
DA:114,8
DA:115,0
DA:117,16
DA:118,16
DA:119,4
DA:120,12
DA:121,12
DA:122,12
DA:123,12
DA:124,12
DA:125,12
DA:126,12
DA:127,12
DA:128,12
DA:129,12
DA:130,12
DA:131,12
DA:132,0
DA:134,12
DA:136,12
DA:137,12
DA:138,12
DA:139,12
DA:140,12
DA:141,12
DA:142,12
DA:143,12
DA:144,8
DA:145,4
DA:147,12
DA:148,18
DA:168,2
DA:169,2
DA:170,2
DA:171,2
DA:172,2
DA:173,2
DA:174,2
DA:175,2
DA:176,2
DA:177,2
DA:178,0
DA:179,0
DA:180,0
DA:181,0
DA:182,2
DA:183,2
DA:184,2
DA:185,2
DA:186,2
DA:187,2
DA:188,2
DA:190,2
DA:191,2
DA:192,2
DA:193,2
DA:194,2
DA:195,2
DA:196,2
DA:197,2
DA:199,2
DA:200,2
DA:201,2
DA:202,2
DA:203,2
DA:204,2
DA:205,2
DA:206,2
DA:207,2
DA:210,2
DA:211,2
DA:212,2
DA:213,2
DA:214,2
DA:215,2
DA:216,2
DA:217,2
DA:218,2
DA:219,2
DA:220,0
DA:221,0
DA:222,0
DA:223,0
DA:224,2
DA:225,2
DA:226,2
DA:227,2
DA:228,2
DA:229,2
DA:230,2
DA:232,2
DA:233,2
DA:234,2
DA:235,2
DA:236,2
DA:237,2
DA:238,2
DA:240,2
DA:241,2
DA:242,2
DA:243,2
DA:244,2
DA:245,2
DA:246,2
DA:247,2
DA:248,2
DA:250,0
DA:251,0
DA:252,0
DA:253,0
DA:254,0
DA:255,0
DA:261,4
DA:262,4
DA:263,4
DA:264,4
DA:265,4
DA:266,4
DA:267,4
DA:268,4
DA:269,4
DA:272,2
DA:273,2
DA:274,2
DA:275,2
DA:276,2
DA:277,2
DA:278,2
DA:279,2
DA:280,2
DA:283,2
DA:284,2
DA:285,2
DA:286,2
DA:287,2
DA:288,2
DA:291,2
DA:292,2
DA:293,2
DA:294,2
DA:296,2
DA:297,2
DA:298,2
DA:299,2
DA:300,2
DA:303,2
DA:304,2
DA:305,2
DA:306,2
DA:307,2
DA:308,2
DA:309,2
DA:312,2
DA:313,2
DA:314,2
DA:315,2
DA:316,2
DA:317,2
DA:318,2
DA:319,2
DA:322,2
DA:323,2
DA:324,2
DA:325,2
DA:326,2
DA:327,2
DA:328,2
DA:329,2
DA:333,2
DA:334,2
DA:335,2
DA:336,2
DA:337,2
DA:338,2
DA:339,2
DA:340,2
DA:341,2
DA:342,2
DA:343,2
DA:346,2
DA:347,2
DA:348,2
DA:349,2
DA:350,2
DA:351,2
DA:352,2
DA:353,2
DA:357,2
DA:358,2
DA:359,2
DA:360,2
BRF:0
BRH:0
LF:280
LH:235
end_of_record
SF:/home/runner/work/mostrix/mostrix/src/ui/helpers/chat_render.rs
FN:63,_RNCNvNtNtNtCsaruqlPBEY0K_7mostrix2ui7helpers11chat_render20format_message_lines0B9_
FN:88,_RNCNvNtNtNtCsaruqlPBEY0K_7mostrix2ui7helpers11chat_render20format_message_liness1_0B9_
FN:89,_RNCNvNtNtNtCsaruqlPBEY0K_7mostrix2ui7helpers11chat_render20format_message_liness2_0B9_
FN:101,_RNCNvNtNtNtCsaruqlPBEY0K_7mostrix2ui7helpers11chat_render20format_message_liness3_0B9_
FN:102,_RNCNvNtNtNtCsaruqlPBEY0K_7mostrix2ui7helpers11chat_render20format_message_liness4_0B9_
FN:68,_RNCNvNtNtNtCsaruqlPBEY0K_7mostrix2ui7helpers11chat_render20format_message_liness_0B9_
FN:122,_RNCNvNtNtNtCsaruqlPBEY0K_7mostrix2ui7helpers11chat_render21build_chat_list_items0B9_
FN:123,_RNCNvNtNtNtCsaruqlPBEY0K_7mostrix2ui7helpers11chat_render21build_chat_list_itemss_0B9_
FN:156,_RNCNvNtNtNtCsaruqlPBEY0K_7mostrix2ui7helpers11chat_render29build_chat_scrollview_content0B9_
FN:13,_RNvNtNtNtCsaruqlPBEY0K_7mostrix2ui7helpers11chat_render18wrap_text_to_lines
FN:58,_RNvNtNtNtCsaruqlPBEY0K_7mostrix2ui7helpers11chat_render20format_message_lines
FN:115,_RNvNtNtNtCsaruqlPBEY0K_7mostrix2ui7helpers11chat_render21build_chat_list_items
FN:145,_RNvNtNtNtCsaruqlPBEY0K_7mostrix2ui7helpers11chat_render29build_chat_scrollview_content
FN:179,_RNvNtNtNtCsaruqlPBEY0K_7mostrix2ui7helpers11chat_render33build_observer_scrollview_content
FN:63,_RNCNvNtNtNtCs3smmrQNj5EW_7mostrix2ui7helpers11chat_render20format_message_lines0B9_
FN:88,_RNCNvNtNtNtCs3smmrQNj5EW_7mostrix2ui7helpers11chat_render20format_message_liness1_0B9_
FN:89,_RNCNvNtNtNtCs3smmrQNj5EW_7mostrix2ui7helpers11chat_render20format_message_liness2_0B9_
FN:101,_RNCNvNtNtNtCs3smmrQNj5EW_7mostrix2ui7helpers11chat_render20format_message_liness3_0B9_
FN:102,_RNCNvNtNtNtCs3smmrQNj5EW_7mostrix2ui7helpers11chat_render20format_message_liness4_0B9_
FN:68,_RNCNvNtNtNtCs3smmrQNj5EW_7mostrix2ui7helpers11chat_render20format_message_liness_0B9_
FN:122,_RNCNvNtNtNtCs3smmrQNj5EW_7mostrix2ui7helpers11chat_render21build_chat_list_items0B9_
FN:123,_RNCNvNtNtNtCs3smmrQNj5EW_7mostrix2ui7helpers11chat_render21build_chat_list_itemss_0B9_
FN:156,_RNCNvNtNtNtCs3smmrQNj5EW_7mostrix2ui7helpers11chat_render29build_chat_scrollview_content0B9_
FN:58,_RNvNtNtNtCs3smmrQNj5EW_7mostrix2ui7helpers11chat_render20format_message_lines
FN:115,_RNvNtNtNtCs3smmrQNj5EW_7mostrix2ui7helpers11chat_render21build_chat_list_items
FN:145,_RNvNtNtNtCs3smmrQNj5EW_7mostrix2ui7helpers11chat_render29build_chat_scrollview_content
FN:179,_RNvNtNtNtCs3smmrQNj5EW_7mostrix2ui7helpers11chat_render33build_observer_scrollview_content
FN:13,_RNvNtNtNtCs3smmrQNj5EW_7mostrix2ui7helpers11chat_render18wrap_text_to_lines
FN:122,_RNCNvNtNtNtCs1oYyZhp1ftr_7mostrix2ui7helpers11chat_render21build_chat_list_items0B9_
FN:123,_RNCNvNtNtNtCs1oYyZhp1ftr_7mostrix2ui7helpers11chat_render21build_chat_list_itemss_0B9_
FN:115,_RNvNtNtNtCs1oYyZhp1ftr_7mostrix2ui7helpers11chat_render21build_chat_list_items
FN:63,_RNCNvNtNtNtCs1oYyZhp1ftr_7mostrix2ui7helpers11chat_render20format_message_lines0B9_
FN:88,_RNCNvNtNtNtCs1oYyZhp1ftr_7mostrix2ui7helpers11chat_render20format_message_liness1_0B9_
FN:89,_RNCNvNtNtNtCs1oYyZhp1ftr_7mostrix2ui7helpers11chat_render20format_message_liness2_0B9_
FN:101,_RNCNvNtNtNtCs1oYyZhp1ftr_7mostrix2ui7helpers11chat_render20format_message_liness3_0B9_
FN:102,_RNCNvNtNtNtCs1oYyZhp1ftr_7mostrix2ui7helpers11chat_render20format_message_liness4_0B9_
FN:68,_RNCNvNtNtNtCs1oYyZhp1ftr_7mostrix2ui7helpers11chat_render20format_message_liness_0B9_
FN:156,_RNCNvNtNtNtCs1oYyZhp1ftr_7mostrix2ui7helpers11chat_render29build_chat_scrollview_content0B9_
FN:13,_RNvNtNtNtCs1oYyZhp1ftr_7mostrix2ui7helpers11chat_render18wrap_text_to_lines
FN:58,_RNvNtNtNtCs1oYyZhp1ftr_7mostrix2ui7helpers11chat_render20format_message_lines
FN:145,_RNvNtNtNtCs1oYyZhp1ftr_7mostrix2ui7helpers11chat_render29build_chat_scrollview_content
FN:179,_RNvNtNtNtCs1oYyZhp1ftr_7mostrix2ui7helpers11chat_render33build_observer_scrollview_content
FN:63,_RNCNvNtNtNtCsbwworP4HFOr_7mostrix2ui7helpers11chat_render20format_message_lines0B9_
FN:88,_RNCNvNtNtNtCsbwworP4HFOr_7mostrix2ui7helpers11chat_render20format_message_liness1_0B9_
FN:89,_RNCNvNtNtNtCsbwworP4HFOr_7mostrix2ui7helpers11chat_render20format_message_liness2_0B9_
FN:101,_RNCNvNtNtNtCsbwworP4HFOr_7mostrix2ui7helpers11chat_render20format_message_liness3_0B9_
FN:102,_RNCNvNtNtNtCsbwworP4HFOr_7mostrix2ui7helpers11chat_render20format_message_liness4_0B9_
FN:68,_RNCNvNtNtNtCsbwworP4HFOr_7mostrix2ui7helpers11chat_render20format_message_liness_0B9_
FN:122,_RNCNvNtNtNtCsbwworP4HFOr_7mostrix2ui7helpers11chat_render21build_chat_list_items0B9_
FN:123,_RNCNvNtNtNtCsbwworP4HFOr_7mostrix2ui7helpers11chat_render21build_chat_list_itemss_0B9_
FN:156,_RNCNvNtNtNtCsbwworP4HFOr_7mostrix2ui7helpers11chat_render29build_chat_scrollview_content0B9_
FN:58,_RNvNtNtNtCsbwworP4HFOr_7mostrix2ui7helpers11chat_render20format_message_lines
FN:115,_RNvNtNtNtCsbwworP4HFOr_7mostrix2ui7helpers11chat_render21build_chat_list_items
FN:145,_RNvNtNtNtCsbwworP4HFOr_7mostrix2ui7helpers11chat_render29build_chat_scrollview_content
FN:179,_RNvNtNtNtCsbwworP4HFOr_7mostrix2ui7helpers11chat_render33build_observer_scrollview_content
FN:13,_RNvNtNtNtCsbwworP4HFOr_7mostrix2ui7helpers11chat_render18wrap_text_to_lines
FNDA:0,_RNCNvNtNtNtCsaruqlPBEY0K_7mostrix2ui7helpers11chat_render20format_message_lines0B9_
FNDA:0,_RNCNvNtNtNtCsaruqlPBEY0K_7mostrix2ui7helpers11chat_render20format_message_liness1_0B9_
FNDA:0,_RNCNvNtNtNtCsaruqlPBEY0K_7mostrix2ui7helpers11chat_render20format_message_liness2_0B9_
FNDA:0,_RNCNvNtNtNtCsaruqlPBEY0K_7mostrix2ui7helpers11chat_render20format_message_liness3_0B9_
FNDA:0,_RNCNvNtNtNtCsaruqlPBEY0K_7mostrix2ui7helpers11chat_render20format_message_liness4_0B9_
FNDA:0,_RNCNvNtNtNtCsaruqlPBEY0K_7mostrix2ui7helpers11chat_render20format_message_liness_0B9_
FNDA:0,_RNCNvNtNtNtCsaruqlPBEY0K_7mostrix2ui7helpers11chat_render21build_chat_list_items0B9_
FNDA:0,_RNCNvNtNtNtCsaruqlPBEY0K_7mostrix2ui7helpers11chat_render21build_chat_list_itemss_0B9_
FNDA:0,_RNCNvNtNtNtCsaruqlPBEY0K_7mostrix2ui7helpers11chat_render29build_chat_scrollview_content0B9_
FNDA:0,_RNvNtNtNtCsaruqlPBEY0K_7mostrix2ui7helpers11chat_render18wrap_text_to_lines
FNDA:0,_RNvNtNtNtCsaruqlPBEY0K_7mostrix2ui7helpers11chat_render20format_message_lines
FNDA:0,_RNvNtNtNtCsaruqlPBEY0K_7mostrix2ui7helpers11chat_render21build_chat_list_items
FNDA:0,_RNvNtNtNtCsaruqlPBEY0K_7mostrix2ui7helpers11chat_render29build_chat_scrollview_content
FNDA:0,_RNvNtNtNtCsaruqlPBEY0K_7mostrix2ui7helpers11chat_render33build_observer_scrollview_content
FNDA:0,_RNCNvNtNtNtCs3smmrQNj5EW_7mostrix2ui7helpers11chat_render20format_message_lines0B9_
FNDA:0,_RNCNvNtNtNtCs3smmrQNj5EW_7mostrix2ui7helpers11chat_render20format_message_liness1_0B9_
FNDA:0,_RNCNvNtNtNtCs3smmrQNj5EW_7mostrix2ui7helpers11chat_render20format_message_liness2_0B9_
FNDA:0,_RNCNvNtNtNtCs3smmrQNj5EW_7mostrix2ui7helpers11chat_render20format_message_liness3_0B9_
FNDA:0,_RNCNvNtNtNtCs3smmrQNj5EW_7mostrix2ui7helpers11chat_render20format_message_liness4_0B9_
FNDA:0,_RNCNvNtNtNtCs3smmrQNj5EW_7mostrix2ui7helpers11chat_render20format_message_liness_0B9_
FNDA:0,_RNCNvNtNtNtCs3smmrQNj5EW_7mostrix2ui7helpers11chat_render21build_chat_list_items0B9_
FNDA:0,_RNCNvNtNtNtCs3smmrQNj5EW_7mostrix2ui7helpers11chat_render21build_chat_list_itemss_0B9_
FNDA:0,_RNCNvNtNtNtCs3smmrQNj5EW_7mostrix2ui7helpers11chat_render29build_chat_scrollview_content0B9_
FNDA:0,_RNvNtNtNtCs3smmrQNj5EW_7mostrix2ui7helpers11chat_render20format_message_lines
FNDA:0,_RNvNtNtNtCs3smmrQNj5EW_7mostrix2ui7helpers11chat_render21build_chat_list_items
FNDA:0,_RNvNtNtNtCs3smmrQNj5EW_7mostrix2ui7helpers11chat_render29build_chat_scrollview_content
FNDA:0,_RNvNtNtNtCs3smmrQNj5EW_7mostrix2ui7helpers11chat_render33build_observer_scrollview_content
FNDA:0,_RNvNtNtNtCs3smmrQNj5EW_7mostrix2ui7helpers11chat_render18wrap_text_to_lines
FNDA:0,_RNCNvNtNtNtCs1oYyZhp1ftr_7mostrix2ui7helpers11chat_render21build_chat_list_items0B9_
FNDA:0,_RNCNvNtNtNtCs1oYyZhp1ftr_7mostrix2ui7helpers11chat_render21build_chat_list_itemss_0B9_
FNDA:0,_RNvNtNtNtCs1oYyZhp1ftr_7mostrix2ui7helpers11chat_render21build_chat_list_items
FNDA:0,_RNCNvNtNtNtCs1oYyZhp1ftr_7mostrix2ui7helpers11chat_render20format_message_lines0B9_
FNDA:0,_RNCNvNtNtNtCs1oYyZhp1ftr_7mostrix2ui7helpers11chat_render20format_message_liness1_0B9_
FNDA:0,_RNCNvNtNtNtCs1oYyZhp1ftr_7mostrix2ui7helpers11chat_render20format_message_liness2_0B9_
FNDA:0,_RNCNvNtNtNtCs1oYyZhp1ftr_7mostrix2ui7helpers11chat_render20format_message_liness3_0B9_
FNDA:0,_RNCNvNtNtNtCs1oYyZhp1ftr_7mostrix2ui7helpers11chat_render20format_message_liness4_0B9_
FNDA:0,_RNCNvNtNtNtCs1oYyZhp1ftr_7mostrix2ui7helpers11chat_render20format_message_liness_0B9_
FNDA:0,_RNCNvNtNtNtCs1oYyZhp1ftr_7mostrix2ui7helpers11chat_render29build_chat_scrollview_content0B9_
FNDA:0,_RNvNtNtNtCs1oYyZhp1ftr_7mostrix2ui7helpers11chat_render18wrap_text_to_lines
FNDA:0,_RNvNtNtNtCs1oYyZhp1ftr_7mostrix2ui7helpers11chat_render20format_message_lines
FNDA:0,_RNvNtNtNtCs1oYyZhp1ftr_7mostrix2ui7helpers11chat_render29build_chat_scrollview_content
FNDA:0,_RNvNtNtNtCs1oYyZhp1ftr_7mostrix2ui7helpers11chat_render33build_observer_scrollview_content
FNDA:0,_RNCNvNtNtNtCsbwworP4HFOr_7mostrix2ui7helpers11chat_render20format_message_lines0B9_
FNDA:0,_RNCNvNtNtNtCsbwworP4HFOr_7mostrix2ui7helpers11chat_render20format_message_liness1_0B9_
FNDA:0,_RNCNvNtNtNtCsbwworP4HFOr_7mostrix2ui7helpers11chat_render20format_message_liness2_0B9_
FNDA:0,_RNCNvNtNtNtCsbwworP4HFOr_7mostrix2ui7helpers11chat_render20format_message_liness3_0B9_
FNDA:0,_RNCNvNtNtNtCsbwworP4HFOr_7mostrix2ui7helpers11chat_render20format_message_liness4_0B9_
FNDA:0,_RNCNvNtNtNtCsbwworP4HFOr_7mostrix2ui7helpers11chat_render20format_message_liness_0B9_
FNDA:0,_RNCNvNtNtNtCsbwworP4HFOr_7mostrix2ui7helpers11chat_render21build_chat_list_items0B9_
FNDA:0,_RNCNvNtNtNtCsbwworP4HFOr_7mostrix2ui7helpers11chat_render21build_chat_list_itemss_0B9_
FNDA:0,_RNCNvNtNtNtCsbwworP4HFOr_7mostrix2ui7helpers11chat_render29build_chat_scrollview_content0B9_
FNDA:0,_RNvNtNtNtCsbwworP4HFOr_7mostrix2ui7helpers11chat_render20format_message_lines
FNDA:0,_RNvNtNtNtCsbwworP4HFOr_7mostrix2ui7helpers11chat_render21build_chat_list_items
FNDA:0,_RNvNtNtNtCsbwworP4HFOr_7mostrix2ui7helpers11chat_render29build_chat_scrollview_content
FNDA:0,_RNvNtNtNtCsbwworP4HFOr_7mostrix2ui7helpers11chat_render33build_observer_scrollview_content
FNDA:0,_RNvNtNtNtCsbwworP4HFOr_7mostrix2ui7helpers11chat_render18wrap_text_to_lines
FNF:14
FNH:0
DA:13,0
DA:14,0
DA:15,0
DA:16,0
DA:17,0
DA:18,0
DA:19,0
DA:20,0
DA:22,0
DA:23,0
DA:24,0
DA:26,0
DA:27,0
DA:28,0
DA:29,0
DA:30,0
DA:31,0
DA:32,0
DA:33,0
DA:34,0
DA:35,0
DA:36,0
DA:37,0
DA:39,0
DA:40,0
DA:41,0
DA:42,0
DA:43,0
DA:44,0
DA:48,0
DA:49,0
DA:50,0
DA:51,0
DA:52,0
DA:53,0
DA:54,0
DA:55,0
DA:58,0
DA:59,0
DA:60,0
DA:61,0
DA:62,0
DA:63,0
DA:64,0
DA:65,0
DA:66,0
DA:67,0
DA:68,0
DA:70,0
DA:71,0
DA:72,0
DA:73,0
DA:75,0
DA:76,0
DA:77,0
DA:78,0
DA:79,0
DA:81,0
DA:82,0
DA:84,0
DA:85,0
DA:86,0
DA:87,0
DA:88,0
DA:89,0
DA:90,0
DA:91,0
DA:92,0
DA:93,0
DA:94,0
DA:96,0
DA:97,0
DA:98,0
DA:100,0
DA:101,0
DA:102,0
DA:103,0
DA:104,0
DA:105,0
DA:106,0
DA:107,0
DA:108,0
DA:110,0
DA:111,0
DA:112,0
DA:115,0
DA:116,0
DA:117,0
DA:118,0
DA:119,0
DA:120,0
DA:121,0
DA:122,0
DA:123,0
DA:124,0
DA:126,0
DA:127,0
DA:129,0
DA:131,0
DA:133,0
DA:134,0
DA:145,0
DA:146,0
DA:147,0
DA:148,0
DA:149,0
DA:150,0
DA:151,0
DA:152,0
DA:154,0
DA:155,0
DA:156,0
DA:157,0
DA:158,0
DA:159,0
DA:160,0
DA:162,0
DA:163,0
DA:164,0
DA:165,0
DA:166,0
DA:167,0
DA:169,0
DA:170,0
DA:171,0
DA:172,0
DA:173,0
DA:174,0
DA:175,0
DA:176,0
DA:179,0
DA:180,0
DA:181,0
DA:182,0
DA:183,0
DA:184,0
DA:185,0
DA:187,0
DA:188,0
DA:189,0
DA:190,0
DA:192,0
DA:193,0
DA:194,0
DA:195,0
DA:196,0
DA:197,0
DA:199,0
DA:200,0
DA:201,0
DA:202,0
DA:203,0
DA:204,0
DA:205,0
DA:206,0
BRF:0
BRH:0
LF:164
LH:0
end_of_record
SF:/home/runner/work/mostrix/mostrix/src/ui/helpers/chat_storage.rs
FN:448,_RNCNvNtNtNtCsaruqlPBEY0K_7mostrix2ui7helpers12chat_storage20max_party_timestamps0B9_
FN:454,_RNCNvNtNtNtCsaruqlPBEY0K_7mostrix2ui7helpers12chat_storage20max_party_timestampss0_0B9_
FN:265,_RNCNvNtNtNtCsaruqlPBEY0K_7mostrix2ui7helpers12chat_storage23save_order_chat_message0B9_
FN:288,_RNCNvNtNtNtCsaruqlPBEY0K_7mostrix2ui7helpers12chat_storage23save_order_chat_messages0_0B9_
FN:283,_RNCNvNtNtNtCsaruqlPBEY0K_7mostrix2ui7helpers12chat_storage23save_order_chat_messages_0B9_
FN:101,_RNCNvNtNtNtCsaruqlPBEY0K_7mostrix2ui7helpers12chat_storage24parse_last_message_block0B9_
FN:393,_RNCNvNtNtNtCsaruqlPBEY0K_7mostrix2ui7helpers12chat_storage25save_chat_message_by_kind0B9_
FN:398,_RNCNvNtNtNtCsaruqlPBEY0K_7mostrix2ui7helpers12chat_storage25save_chat_message_by_kinds_0B9_
FN:320,_RNCNvNtNtNtCsaruqlPBEY0K_7mostrix2ui7helpers12chat_storage26order_chat_since_from_file0B9_
FN:196,_RNCNvNtNtNtCsaruqlPBEY0K_7mostrix2ui7helpers12chat_storage27load_chat_from_file_by_kind0B9_
FN:221,_RNCNvNtNtNtCsaruqlPBEY0K_7mostrix2ui7helpers12chat_storage33load_order_chat_from_file_by_kind0B9_
FN:135,_RNCNvNtNtNtCsaruqlPBEY0K_7mostrix2ui7helpers12chat_storage36order_transcript_already_has_message0B9_
FN:165,_RNCNvNtNtNtCsaruqlPBEY0K_7mostrix2ui7helpers12chat_storage38dispute_transcript_already_has_message0B9_
FN:25,_RNvMNtNtNtCsaruqlPBEY0K_7mostrix2ui7helpers12chat_storageNtB2_15ChatStorageKind11folder_name
FN:32,_RNvMNtNtNtCsaruqlPBEY0K_7mostrix2ui7helpers12chat_storageNtB2_15ChatStorageKind9log_label
FN:176,_RNvNtNtNtCsaruqlPBEY0K_7mostrix2ui7helpers12chat_storage14chat_file_path
FN:340,_RNvNtNtNtCsaruqlPBEY0K_7mostrix2ui7helpers12chat_storage17save_chat_message
FN:239,_RNvNtNtNtCsaruqlPBEY0K_7mostrix2ui7helpers12chat_storage19load_chat_from_file
FN:445,_RNvNtNtNtCsaruqlPBEY0K_7mostrix2ui7helpers12chat_storage20max_party_timestamps
FN:40,_RNvNtNtNtCsaruqlPBEY0K_7mostrix2ui7helpers12chat_storage23parse_one_message_block
FN:244,_RNvNtNtNtCsaruqlPBEY0K_7mostrix2ui7helpers12chat_storage23save_order_chat_message
FN:98,_RNvNtNtNtCsaruqlPBEY0K_7mostrix2ui7helpers12chat_storage24parse_last_message_block
FN:314,_RNvNtNtNtCsaruqlPBEY0K_7mostrix2ui7helpers12chat_storage25load_order_chat_from_file
FN:344,_RNvNtNtNtCsaruqlPBEY0K_7mostrix2ui7helpers12chat_storage25save_chat_message_by_kind
FN:319,_RNvNtNtNtCsaruqlPBEY0K_7mostrix2ui7helpers12chat_storage26order_chat_since_from_file
FN:189,_RNvNtNtNtCsaruqlPBEY0K_7mostrix2ui7helpers12chat_storage27load_chat_from_file_by_kind
FN:326,_RNvNtNtNtCsaruqlPBEY0K_7mostrix2ui7helpers12chat_storage28dispute_chat_since_from_file
FN:77,_RNvNtNtNtCsaruqlPBEY0K_7mostrix2ui7helpers12chat_storage29parse_one_order_message_block
FN:214,_RNvNtNtNtCsaruqlPBEY0K_7mostrix2ui7helpers12chat_storage33load_order_chat_from_file_by_kind
FN:106,_RNvNtNtNtCsaruqlPBEY0K_7mostrix2ui7helpers12chat_storage33transcript_body_for_order_message
FN:113,_RNvNtNtNtCsaruqlPBEY0K_7mostrix2ui7helpers12chat_storage35transcript_body_for_dispute_message
FN:120,_RNvNtNtNtCsaruqlPBEY0K_7mostrix2ui7helpers12chat_storage36order_transcript_already_has_message
FN:146,_RNvNtNtNtCsaruqlPBEY0K_7mostrix2ui7helpers12chat_storage38dispute_transcript_already_has_message
FN:524,_RNvNtNtNtNtCs3smmrQNj5EW_7mostrix2ui7helpers12chat_storage5testss_37max_party_timestamps_tracks_each_side
FN:512,_RNvNtNtNtNtCs3smmrQNj5EW_7mostrix2ui7helpers12chat_storage5testss_44parse_last_message_returns_most_recent_block
FN:472,_RNvNtNtNtNtCs3smmrQNj5EW_7mostrix2ui7helpers12chat_storage5testss_44transcript_body_roundtrip_via_message_fields
FN:504,_RNvNtNtNtNtCs3smmrQNj5EW_7mostrix2ui7helpers12chat_storage5testss_47parse_order_block_supports_legacy_sender_labels
FN:496,_RNvNtNtNtNtCs3smmrQNj5EW_7mostrix2ui7helpers12chat_storage5testss_53legacy_placeholder_load_has_no_attachment_until_relay
FN:393,_RNCNvNtNtNtCs3smmrQNj5EW_7mostrix2ui7helpers12chat_storage25save_chat_message_by_kind0B9_
FN:398,_RNCNvNtNtNtCs3smmrQNj5EW_7mostrix2ui7helpers12chat_storage25save_chat_message_by_kinds_0B9_
FN:320,_RNCNvNtNtNtCs3smmrQNj5EW_7mostrix2ui7helpers12chat_storage26order_chat_since_from_file0B9_
FN:196,_RNCNvNtNtNtCs3smmrQNj5EW_7mostrix2ui7helpers12chat_storage27load_chat_from_file_by_kind0B9_
FN:221,_RNCNvNtNtNtCs3smmrQNj5EW_7mostrix2ui7helpers12chat_storage33load_order_chat_from_file_by_kind0B9_
FN:165,_RNCNvNtNtNtCs3smmrQNj5EW_7mostrix2ui7helpers12chat_storage38dispute_transcript_already_has_message0B9_
FN:32,_RNvMNtNtNtCs3smmrQNj5EW_7mostrix2ui7helpers12chat_storageNtB2_15ChatStorageKind9log_label
FN:340,_RNvNtNtNtCs3smmrQNj5EW_7mostrix2ui7helpers12chat_storage17save_chat_message
FN:239,_RNvNtNtNtCs3smmrQNj5EW_7mostrix2ui7helpers12chat_storage19load_chat_from_file
FN:314,_RNvNtNtNtCs3smmrQNj5EW_7mostrix2ui7helpers12chat_storage25load_order_chat_from_file
FN:344,_RNvNtNtNtCs3smmrQNj5EW_7mostrix2ui7helpers12chat_storage25save_chat_message_by_kind
FN:319,_RNvNtNtNtCs3smmrQNj5EW_7mostrix2ui7helpers12chat_storage26order_chat_since_from_file
FN:189,_RNvNtNtNtCs3smmrQNj5EW_7mostrix2ui7helpers12chat_storage27load_chat_from_file_by_kind
FN:326,_RNvNtNtNtCs3smmrQNj5EW_7mostrix2ui7helpers12chat_storage28dispute_chat_since_from_file
FN:214,_RNvNtNtNtCs3smmrQNj5EW_7mostrix2ui7helpers12chat_storage33load_order_chat_from_file_by_kind
FN:113,_RNvNtNtNtCs3smmrQNj5EW_7mostrix2ui7helpers12chat_storage35transcript_body_for_dispute_message
FN:146,_RNvNtNtNtCs3smmrQNj5EW_7mostrix2ui7helpers12chat_storage38dispute_transcript_already_has_message
FN:448,_RNCNvNtNtNtCs3smmrQNj5EW_7mostrix2ui7helpers12chat_storage20max_party_timestamps0B9_
FN:454,_RNCNvNtNtNtCs3smmrQNj5EW_7mostrix2ui7helpers12chat_storage20max_party_timestampss0_0B9_
FN:265,_RNCNvNtNtNtCs3smmrQNj5EW_7mostrix2ui7helpers12chat_storage23save_order_chat_message0B9_
FN:288,_RNCNvNtNtNtCs3smmrQNj5EW_7mostrix2ui7helpers12chat_storage23save_order_chat_messages0_0B9_
FN:283,_RNCNvNtNtNtCs3smmrQNj5EW_7mostrix2ui7helpers12chat_storage23save_order_chat_messages_0B9_
FN:101,_RNCNvNtNtNtCs3smmrQNj5EW_7mostrix2ui7helpers12chat_storage24parse_last_message_block0B9_
FN:135,_RNCNvNtNtNtCs3smmrQNj5EW_7mostrix2ui7helpers12chat_storage36order_transcript_already_has_message0B9_
FN:25,_RNvMNtNtNtCs3smmrQNj5EW_7mostrix2ui7helpers12chat_storageNtB2_15ChatStorageKind11folder_name
FN:176,_RNvNtNtNtCs3smmrQNj5EW_7mostrix2ui7helpers12chat_storage14chat_file_path
FN:445,_RNvNtNtNtCs3smmrQNj5EW_7mostrix2ui7helpers12chat_storage20max_party_timestamps
FN:40,_RNvNtNtNtCs3smmrQNj5EW_7mostrix2ui7helpers12chat_storage23parse_one_message_block
FN:244,_RNvNtNtNtCs3smmrQNj5EW_7mostrix2ui7helpers12chat_storage23save_order_chat_message
FN:98,_RNvNtNtNtCs3smmrQNj5EW_7mostrix2ui7helpers12chat_storage24parse_last_message_block
FN:77,_RNvNtNtNtCs3smmrQNj5EW_7mostrix2ui7helpers12chat_storage29parse_one_order_message_block
FN:106,_RNvNtNtNtCs3smmrQNj5EW_7mostrix2ui7helpers12chat_storage33transcript_body_for_order_message
FN:120,_RNvNtNtNtCs3smmrQNj5EW_7mostrix2ui7helpers12chat_storage36order_transcript_already_has_message
FN:448,_RNCNvNtNtNtCs1oYyZhp1ftr_7mostrix2ui7helpers12chat_storage20max_party_timestamps0B9_
FN:454,_RNCNvNtNtNtCs1oYyZhp1ftr_7mostrix2ui7helpers12chat_storage20max_party_timestampss0_0B9_
FN:265,_RNCNvNtNtNtCs1oYyZhp1ftr_7mostrix2ui7helpers12chat_storage23save_order_chat_message0B9_
FN:288,_RNCNvNtNtNtCs1oYyZhp1ftr_7mostrix2ui7helpers12chat_storage23save_order_chat_messages0_0B9_
FN:283,_RNCNvNtNtNtCs1oYyZhp1ftr_7mostrix2ui7helpers12chat_storage23save_order_chat_messages_0B9_
FN:101,_RNCNvNtNtNtCs1oYyZhp1ftr_7mostrix2ui7helpers12chat_storage24parse_last_message_block0B9_
FN:393,_RNCNvNtNtNtCs1oYyZhp1ftr_7mostrix2ui7helpers12chat_storage25save_chat_message_by_kind0B9_
FN:398,_RNCNvNtNtNtCs1oYyZhp1ftr_7mostrix2ui7helpers12chat_storage25save_chat_message_by_kinds_0B9_
FN:320,_RNCNvNtNtNtCs1oYyZhp1ftr_7mostrix2ui7helpers12chat_storage26order_chat_since_from_file0B9_
FN:196,_RNCNvNtNtNtCs1oYyZhp1ftr_7mostrix2ui7helpers12chat_storage27load_chat_from_file_by_kind0B9_
FN:221,_RNCNvNtNtNtCs1oYyZhp1ftr_7mostrix2ui7helpers12chat_storage33load_order_chat_from_file_by_kind0B9_
FN:135,_RNCNvNtNtNtCs1oYyZhp1ftr_7mostrix2ui7helpers12chat_storage36order_transcript_already_has_message0B9_
FN:165,_RNCNvNtNtNtCs1oYyZhp1ftr_7mostrix2ui7helpers12chat_storage38dispute_transcript_already_has_message0B9_
FN:25,_RNvMNtNtNtCs1oYyZhp1ftr_7mostrix2ui7helpers12chat_storageNtB2_15ChatStorageKind11folder_name
FN:32,_RNvMNtNtNtCs1oYyZhp1ftr_7mostrix2ui7helpers12chat_storageNtB2_15ChatStorageKind9log_label
FN:176,_RNvNtNtNtCs1oYyZhp1ftr_7mostrix2ui7helpers12chat_storage14chat_file_path
FN:340,_RNvNtNtNtCs1oYyZhp1ftr_7mostrix2ui7helpers12chat_storage17save_chat_message
FN:239,_RNvNtNtNtCs1oYyZhp1ftr_7mostrix2ui7helpers12chat_storage19load_chat_from_file
FN:445,_RNvNtNtNtCs1oYyZhp1ftr_7mostrix2ui7helpers12chat_storage20max_party_timestamps
FN:40,_RNvNtNtNtCs1oYyZhp1ftr_7mostrix2ui7helpers12chat_storage23parse_one_message_block
FN:244,_RNvNtNtNtCs1oYyZhp1ftr_7mostrix2ui7helpers12chat_storage23save_order_chat_message
FN:98,_RNvNtNtNtCs1oYyZhp1ftr_7mostrix2ui7helpers12chat_storage24parse_last_message_block
FN:314,_RNvNtNtNtCs1oYyZhp1ftr_7mostrix2ui7helpers12chat_storage25load_order_chat_from_file
FN:344,_RNvNtNtNtCs1oYyZhp1ftr_7mostrix2ui7helpers12chat_storage25save_chat_message_by_kind
FN:319,_RNvNtNtNtCs1oYyZhp1ftr_7mostrix2ui7helpers12chat_storage26order_chat_since_from_file
FN:189,_RNvNtNtNtCs1oYyZhp1ftr_7mostrix2ui7helpers12chat_storage27load_chat_from_file_by_kind
FN:326,_RNvNtNtNtCs1oYyZhp1ftr_7mostrix2ui7helpers12chat_storage28dispute_chat_since_from_file
FN:77,_RNvNtNtNtCs1oYyZhp1ftr_7mostrix2ui7helpers12chat_storage29parse_one_order_message_block
FN:214,_RNvNtNtNtCs1oYyZhp1ftr_7mostrix2ui7helpers12chat_storage33load_order_chat_from_file_by_kind
FN:106,_RNvNtNtNtCs1oYyZhp1ftr_7mostrix2ui7helpers12chat_storage33transcript_body_for_order_message
FN:113,_RNvNtNtNtCs1oYyZhp1ftr_7mostrix2ui7helpers12chat_storage35transcript_body_for_dispute_message
FN:120,_RNvNtNtNtCs1oYyZhp1ftr_7mostrix2ui7helpers12chat_storage36order_transcript_already_has_message
FN:146,_RNvNtNtNtCs1oYyZhp1ftr_7mostrix2ui7helpers12chat_storage38dispute_transcript_already_has_message
FN:393,_RNCNvNtNtNtCsbwworP4HFOr_7mostrix2ui7helpers12chat_storage25save_chat_message_by_kind0B9_
FN:398,_RNCNvNtNtNtCsbwworP4HFOr_7mostrix2ui7helpers12chat_storage25save_chat_message_by_kinds_0B9_
FN:320,_RNCNvNtNtNtCsbwworP4HFOr_7mostrix2ui7helpers12chat_storage26order_chat_since_from_file0B9_
FN:196,_RNCNvNtNtNtCsbwworP4HFOr_7mostrix2ui7helpers12chat_storage27load_chat_from_file_by_kind0B9_
FN:221,_RNCNvNtNtNtCsbwworP4HFOr_7mostrix2ui7helpers12chat_storage33load_order_chat_from_file_by_kind0B9_
FN:165,_RNCNvNtNtNtCsbwworP4HFOr_7mostrix2ui7helpers12chat_storage38dispute_transcript_already_has_message0B9_
FN:32,_RNvMNtNtNtCsbwworP4HFOr_7mostrix2ui7helpers12chat_storageNtB2_15ChatStorageKind9log_label
FN:340,_RNvNtNtNtCsbwworP4HFOr_7mostrix2ui7helpers12chat_storage17save_chat_message
FN:239,_RNvNtNtNtCsbwworP4HFOr_7mostrix2ui7helpers12chat_storage19load_chat_from_file
FN:314,_RNvNtNtNtCsbwworP4HFOr_7mostrix2ui7helpers12chat_storage25load_order_chat_from_file
FN:344,_RNvNtNtNtCsbwworP4HFOr_7mostrix2ui7helpers12chat_storage25save_chat_message_by_kind
FN:319,_RNvNtNtNtCsbwworP4HFOr_7mostrix2ui7helpers12chat_storage26order_chat_since_from_file
FN:189,_RNvNtNtNtCsbwworP4HFOr_7mostrix2ui7helpers12chat_storage27load_chat_from_file_by_kind
FN:326,_RNvNtNtNtCsbwworP4HFOr_7mostrix2ui7helpers12chat_storage28dispute_chat_since_from_file
FN:214,_RNvNtNtNtCsbwworP4HFOr_7mostrix2ui7helpers12chat_storage33load_order_chat_from_file_by_kind
FN:113,_RNvNtNtNtCsbwworP4HFOr_7mostrix2ui7helpers12chat_storage35transcript_body_for_dispute_message
FN:146,_RNvNtNtNtCsbwworP4HFOr_7mostrix2ui7helpers12chat_storage38dispute_transcript_already_has_message
FN:448,_RNCNvNtNtNtCsbwworP4HFOr_7mostrix2ui7helpers12chat_storage20max_party_timestamps0B9_
FN:454,_RNCNvNtNtNtCsbwworP4HFOr_7mostrix2ui7helpers12chat_storage20max_party_timestampss0_0B9_
FN:265,_RNCNvNtNtNtCsbwworP4HFOr_7mostrix2ui7helpers12chat_storage23save_order_chat_message0B9_
FN:288,_RNCNvNtNtNtCsbwworP4HFOr_7mostrix2ui7helpers12chat_storage23save_order_chat_messages0_0B9_
FN:283,_RNCNvNtNtNtCsbwworP4HFOr_7mostrix2ui7helpers12chat_storage23save_order_chat_messages_0B9_
FN:101,_RNCNvNtNtNtCsbwworP4HFOr_7mostrix2ui7helpers12chat_storage24parse_last_message_block0B9_
FN:135,_RNCNvNtNtNtCsbwworP4HFOr_7mostrix2ui7helpers12chat_storage36order_transcript_already_has_message0B9_
FN:25,_RNvMNtNtNtCsbwworP4HFOr_7mostrix2ui7helpers12chat_storageNtB2_15ChatStorageKind11folder_name
FN:176,_RNvNtNtNtCsbwworP4HFOr_7mostrix2ui7helpers12chat_storage14chat_file_path
FN:445,_RNvNtNtNtCsbwworP4HFOr_7mostrix2ui7helpers12chat_storage20max_party_timestamps
FN:40,_RNvNtNtNtCsbwworP4HFOr_7mostrix2ui7helpers12chat_storage23parse_one_message_block
FN:244,_RNvNtNtNtCsbwworP4HFOr_7mostrix2ui7helpers12chat_storage23save_order_chat_message
FN:98,_RNvNtNtNtCsbwworP4HFOr_7mostrix2ui7helpers12chat_storage24parse_last_message_block
FN:77,_RNvNtNtNtCsbwworP4HFOr_7mostrix2ui7helpers12chat_storage29parse_one_order_message_block
FN:106,_RNvNtNtNtCsbwworP4HFOr_7mostrix2ui7helpers12chat_storage33transcript_body_for_order_message
FN:120,_RNvNtNtNtCsbwworP4HFOr_7mostrix2ui7helpers12chat_storage36order_transcript_already_has_message
FN:524,_RNvNtNtNtNtCsbwworP4HFOr_7mostrix2ui7helpers12chat_storage5testss_37max_party_timestamps_tracks_each_side
FN:512,_RNvNtNtNtNtCsbwworP4HFOr_7mostrix2ui7helpers12chat_storage5testss_44parse_last_message_returns_most_recent_block
FN:472,_RNvNtNtNtNtCsbwworP4HFOr_7mostrix2ui7helpers12chat_storage5testss_44transcript_body_roundtrip_via_message_fields
FN:504,_RNvNtNtNtNtCsbwworP4HFOr_7mostrix2ui7helpers12chat_storage5testss_47parse_order_block_supports_legacy_sender_labels
FN:496,_RNvNtNtNtNtCsbwworP4HFOr_7mostrix2ui7helpers12chat_storage5testss_53legacy_placeholder_load_has_no_attachment_until_relay
FNDA:0,_RNCNvNtNtNtCsaruqlPBEY0K_7mostrix2ui7helpers12chat_storage20max_party_timestamps0B9_
FNDA:0,_RNCNvNtNtNtCsaruqlPBEY0K_7mostrix2ui7helpers12chat_storage20max_party_timestampss0_0B9_
FNDA:0,_RNCNvNtNtNtCsaruqlPBEY0K_7mostrix2ui7helpers12chat_storage23save_order_chat_message0B9_
FNDA:0,_RNCNvNtNtNtCsaruqlPBEY0K_7mostrix2ui7helpers12chat_storage23save_order_chat_messages0_0B9_
FNDA:0,_RNCNvNtNtNtCsaruqlPBEY0K_7mostrix2ui7helpers12chat_storage23save_order_chat_messages_0B9_
FNDA:0,_RNCNvNtNtNtCsaruqlPBEY0K_7mostrix2ui7helpers12chat_storage24parse_last_message_block0B9_
FNDA:0,_RNCNvNtNtNtCsaruqlPBEY0K_7mostrix2ui7helpers12chat_storage25save_chat_message_by_kind0B9_
FNDA:0,_RNCNvNtNtNtCsaruqlPBEY0K_7mostrix2ui7helpers12chat_storage25save_chat_message_by_kinds_0B9_
FNDA:0,_RNCNvNtNtNtCsaruqlPBEY0K_7mostrix2ui7helpers12chat_storage26order_chat_since_from_file0B9_
FNDA:0,_RNCNvNtNtNtCsaruqlPBEY0K_7mostrix2ui7helpers12chat_storage27load_chat_from_file_by_kind0B9_
FNDA:0,_RNCNvNtNtNtCsaruqlPBEY0K_7mostrix2ui7helpers12chat_storage33load_order_chat_from_file_by_kind0B9_
FNDA:0,_RNCNvNtNtNtCsaruqlPBEY0K_7mostrix2ui7helpers12chat_storage36order_transcript_already_has_message0B9_
FNDA:0,_RNCNvNtNtNtCsaruqlPBEY0K_7mostrix2ui7helpers12chat_storage38dispute_transcript_already_has_message0B9_
FNDA:0,_RNvMNtNtNtCsaruqlPBEY0K_7mostrix2ui7helpers12chat_storageNtB2_15ChatStorageKind11folder_name
FNDA:0,_RNvMNtNtNtCsaruqlPBEY0K_7mostrix2ui7helpers12chat_storageNtB2_15ChatStorageKind9log_label
FNDA:0,_RNvNtNtNtCsaruqlPBEY0K_7mostrix2ui7helpers12chat_storage14chat_file_path
FNDA:0,_RNvNtNtNtCsaruqlPBEY0K_7mostrix2ui7helpers12chat_storage17save_chat_message
FNDA:0,_RNvNtNtNtCsaruqlPBEY0K_7mostrix2ui7helpers12chat_storage19load_chat_from_file
FNDA:0,_RNvNtNtNtCsaruqlPBEY0K_7mostrix2ui7helpers12chat_storage20max_party_timestamps
FNDA:0,_RNvNtNtNtCsaruqlPBEY0K_7mostrix2ui7helpers12chat_storage23parse_one_message_block
FNDA:0,_RNvNtNtNtCsaruqlPBEY0K_7mostrix2ui7helpers12chat_storage23save_order_chat_message
FNDA:0,_RNvNtNtNtCsaruqlPBEY0K_7mostrix2ui7helpers12chat_storage24parse_last_message_block
FNDA:0,_RNvNtNtNtCsaruqlPBEY0K_7mostrix2ui7helpers12chat_storage25load_order_chat_from_file
FNDA:0,_RNvNtNtNtCsaruqlPBEY0K_7mostrix2ui7helpers12chat_storage25save_chat_message_by_kind
FNDA:0,_RNvNtNtNtCsaruqlPBEY0K_7mostrix2ui7helpers12chat_storage26order_chat_since_from_file
FNDA:0,_RNvNtNtNtCsaruqlPBEY0K_7mostrix2ui7helpers12chat_storage27load_chat_from_file_by_kind
FNDA:0,_RNvNtNtNtCsaruqlPBEY0K_7mostrix2ui7helpers12chat_storage28dispute_chat_since_from_file
FNDA:0,_RNvNtNtNtCsaruqlPBEY0K_7mostrix2ui7helpers12chat_storage29parse_one_order_message_block
FNDA:0,_RNvNtNtNtCsaruqlPBEY0K_7mostrix2ui7helpers12chat_storage33load_order_chat_from_file_by_kind
FNDA:0,_RNvNtNtNtCsaruqlPBEY0K_7mostrix2ui7helpers12chat_storage33transcript_body_for_order_message
FNDA:0,_RNvNtNtNtCsaruqlPBEY0K_7mostrix2ui7helpers12chat_storage35transcript_body_for_dispute_message
FNDA:0,_RNvNtNtNtCsaruqlPBEY0K_7mostrix2ui7helpers12chat_storage36order_transcript_already_has_message
FNDA:0,_RNvNtNtNtCsaruqlPBEY0K_7mostrix2ui7helpers12chat_storage38dispute_transcript_already_has_message
FNDA:1,_RNvNtNtNtNtCs3smmrQNj5EW_7mostrix2ui7helpers12chat_storage5testss_37max_party_timestamps_tracks_each_side
FNDA:1,_RNvNtNtNtNtCs3smmrQNj5EW_7mostrix2ui7helpers12chat_storage5testss_44parse_last_message_returns_most_recent_block
FNDA:1,_RNvNtNtNtNtCs3smmrQNj5EW_7mostrix2ui7helpers12chat_storage5testss_44transcript_body_roundtrip_via_message_fields
FNDA:1,_RNvNtNtNtNtCs3smmrQNj5EW_7mostrix2ui7helpers12chat_storage5testss_47parse_order_block_supports_legacy_sender_labels
FNDA:1,_RNvNtNtNtNtCs3smmrQNj5EW_7mostrix2ui7helpers12chat_storage5testss_53legacy_placeholder_load_has_no_attachment_until_relay
FNDA:0,_RNCNvNtNtNtCs3smmrQNj5EW_7mostrix2ui7helpers12chat_storage25save_chat_message_by_kind0B9_
FNDA:0,_RNCNvNtNtNtCs3smmrQNj5EW_7mostrix2ui7helpers12chat_storage25save_chat_message_by_kinds_0B9_
FNDA:0,_RNCNvNtNtNtCs3smmrQNj5EW_7mostrix2ui7helpers12chat_storage26order_chat_since_from_file0B9_
FNDA:0,_RNCNvNtNtNtCs3smmrQNj5EW_7mostrix2ui7helpers12chat_storage27load_chat_from_file_by_kind0B9_
FNDA:0,_RNCNvNtNtNtCs3smmrQNj5EW_7mostrix2ui7helpers12chat_storage33load_order_chat_from_file_by_kind0B9_
FNDA:0,_RNCNvNtNtNtCs3smmrQNj5EW_7mostrix2ui7helpers12chat_storage38dispute_transcript_already_has_message0B9_
FNDA:0,_RNvMNtNtNtCs3smmrQNj5EW_7mostrix2ui7helpers12chat_storageNtB2_15ChatStorageKind9log_label
FNDA:0,_RNvNtNtNtCs3smmrQNj5EW_7mostrix2ui7helpers12chat_storage17save_chat_message
FNDA:0,_RNvNtNtNtCs3smmrQNj5EW_7mostrix2ui7helpers12chat_storage19load_chat_from_file
FNDA:0,_RNvNtNtNtCs3smmrQNj5EW_7mostrix2ui7helpers12chat_storage25load_order_chat_from_file
FNDA:0,_RNvNtNtNtCs3smmrQNj5EW_7mostrix2ui7helpers12chat_storage25save_chat_message_by_kind
FNDA:0,_RNvNtNtNtCs3smmrQNj5EW_7mostrix2ui7helpers12chat_storage26order_chat_since_from_file
FNDA:0,_RNvNtNtNtCs3smmrQNj5EW_7mostrix2ui7helpers12chat_storage27load_chat_from_file_by_kind
FNDA:0,_RNvNtNtNtCs3smmrQNj5EW_7mostrix2ui7helpers12chat_storage28dispute_chat_since_from_file
FNDA:0,_RNvNtNtNtCs3smmrQNj5EW_7mostrix2ui7helpers12chat_storage33load_order_chat_from_file_by_kind
FNDA:0,_RNvNtNtNtCs3smmrQNj5EW_7mostrix2ui7helpers12chat_storage35transcript_body_for_dispute_message
FNDA:0,_RNvNtNtNtCs3smmrQNj5EW_7mostrix2ui7helpers12chat_storage38dispute_transcript_already_has_message
FNDA:3,_RNCNvNtNtNtCs3smmrQNj5EW_7mostrix2ui7helpers12chat_storage20max_party_timestamps0B9_
FNDA:3,_RNCNvNtNtNtCs3smmrQNj5EW_7mostrix2ui7helpers12chat_storage20max_party_timestampss0_0B9_
FNDA:0,_RNCNvNtNtNtCs3smmrQNj5EW_7mostrix2ui7helpers12chat_storage23save_order_chat_message0B9_
FNDA:0,_RNCNvNtNtNtCs3smmrQNj5EW_7mostrix2ui7helpers12chat_storage23save_order_chat_messages0_0B9_
FNDA:0,_RNCNvNtNtNtCs3smmrQNj5EW_7mostrix2ui7helpers12chat_storage23save_order_chat_messages_0B9_
FNDA:3,_RNCNvNtNtNtCs3smmrQNj5EW_7mostrix2ui7helpers12chat_storage24parse_last_message_block0B9_
FNDA:0,_RNCNvNtNtNtCs3smmrQNj5EW_7mostrix2ui7helpers12chat_storage36order_transcript_already_has_message0B9_
FNDA:0,_RNvMNtNtNtCs3smmrQNj5EW_7mostrix2ui7helpers12chat_storageNtB2_15ChatStorageKind11folder_name
FNDA:0,_RNvNtNtNtCs3smmrQNj5EW_7mostrix2ui7helpers12chat_storage14chat_file_path
FNDA:1,_RNvNtNtNtCs3smmrQNj5EW_7mostrix2ui7helpers12chat_storage20max_party_timestamps
FNDA:1,_RNvNtNtNtCs3smmrQNj5EW_7mostrix2ui7helpers12chat_storage23parse_one_message_block
FNDA:0,_RNvNtNtNtCs3smmrQNj5EW_7mostrix2ui7helpers12chat_storage23save_order_chat_message
FNDA:1,_RNvNtNtNtCs3smmrQNj5EW_7mostrix2ui7helpers12chat_storage24parse_last_message_block
FNDA:1,_RNvNtNtNtCs3smmrQNj5EW_7mostrix2ui7helpers12chat_storage29parse_one_order_message_block
FNDA:1,_RNvNtNtNtCs3smmrQNj5EW_7mostrix2ui7helpers12chat_storage33transcript_body_for_order_message
FNDA:0,_RNvNtNtNtCs3smmrQNj5EW_7mostrix2ui7helpers12chat_storage36order_transcript_already_has_message
FNDA:0,_RNCNvNtNtNtCs1oYyZhp1ftr_7mostrix2ui7helpers12chat_storage20max_party_timestamps0B9_
FNDA:0,_RNCNvNtNtNtCs1oYyZhp1ftr_7mostrix2ui7helpers12chat_storage20max_party_timestampss0_0B9_
FNDA:0,_RNCNvNtNtNtCs1oYyZhp1ftr_7mostrix2ui7helpers12chat_storage23save_order_chat_message0B9_
FNDA:0,_RNCNvNtNtNtCs1oYyZhp1ftr_7mostrix2ui7helpers12chat_storage23save_order_chat_messages0_0B9_
FNDA:0,_RNCNvNtNtNtCs1oYyZhp1ftr_7mostrix2ui7helpers12chat_storage23save_order_chat_messages_0B9_
FNDA:0,_RNCNvNtNtNtCs1oYyZhp1ftr_7mostrix2ui7helpers12chat_storage24parse_last_message_block0B9_
FNDA:0,_RNCNvNtNtNtCs1oYyZhp1ftr_7mostrix2ui7helpers12chat_storage25save_chat_message_by_kind0B9_
FNDA:0,_RNCNvNtNtNtCs1oYyZhp1ftr_7mostrix2ui7helpers12chat_storage25save_chat_message_by_kinds_0B9_
FNDA:0,_RNCNvNtNtNtCs1oYyZhp1ftr_7mostrix2ui7helpers12chat_storage26order_chat_since_from_file0B9_
FNDA:0,_RNCNvNtNtNtCs1oYyZhp1ftr_7mostrix2ui7helpers12chat_storage27load_chat_from_file_by_kind0B9_
FNDA:0,_RNCNvNtNtNtCs1oYyZhp1ftr_7mostrix2ui7helpers12chat_storage33load_order_chat_from_file_by_kind0B9_
FNDA:0,_RNCNvNtNtNtCs1oYyZhp1ftr_7mostrix2ui7helpers12chat_storage36order_transcript_already_has_message0B9_
FNDA:0,_RNCNvNtNtNtCs1oYyZhp1ftr_7mostrix2ui7helpers12chat_storage38dispute_transcript_already_has_message0B9_
FNDA:0,_RNvMNtNtNtCs1oYyZhp1ftr_7mostrix2ui7helpers12chat_storageNtB2_15ChatStorageKind11folder_name
FNDA:0,_RNvMNtNtNtCs1oYyZhp1ftr_7mostrix2ui7helpers12chat_storageNtB2_15ChatStorageKind9log_label
FNDA:0,_RNvNtNtNtCs1oYyZhp1ftr_7mostrix2ui7helpers12chat_storage14chat_file_path
FNDA:0,_RNvNtNtNtCs1oYyZhp1ftr_7mostrix2ui7helpers12chat_storage17save_chat_message
FNDA:0,_RNvNtNtNtCs1oYyZhp1ftr_7mostrix2ui7helpers12chat_storage19load_chat_from_file
FNDA:0,_RNvNtNtNtCs1oYyZhp1ftr_7mostrix2ui7helpers12chat_storage20max_party_timestamps
FNDA:0,_RNvNtNtNtCs1oYyZhp1ftr_7mostrix2ui7helpers12chat_storage23parse_one_message_block
FNDA:0,_RNvNtNtNtCs1oYyZhp1ftr_7mostrix2ui7helpers12chat_storage23save_order_chat_message
FNDA:0,_RNvNtNtNtCs1oYyZhp1ftr_7mostrix2ui7helpers12chat_storage24parse_last_message_block
FNDA:0,_RNvNtNtNtCs1oYyZhp1ftr_7mostrix2ui7helpers12chat_storage25load_order_chat_from_file
FNDA:0,_RNvNtNtNtCs1oYyZhp1ftr_7mostrix2ui7helpers12chat_storage25save_chat_message_by_kind
FNDA:0,_RNvNtNtNtCs1oYyZhp1ftr_7mostrix2ui7helpers12chat_storage26order_chat_since_from_file
FNDA:0,_RNvNtNtNtCs1oYyZhp1ftr_7mostrix2ui7helpers12chat_storage27load_chat_from_file_by_kind
FNDA:0,_RNvNtNtNtCs1oYyZhp1ftr_7mostrix2ui7helpers12chat_storage28dispute_chat_since_from_file
FNDA:0,_RNvNtNtNtCs1oYyZhp1ftr_7mostrix2ui7helpers12chat_storage29parse_one_order_message_block
FNDA:0,_RNvNtNtNtCs1oYyZhp1ftr_7mostrix2ui7helpers12chat_storage33load_order_chat_from_file_by_kind
FNDA:0,_RNvNtNtNtCs1oYyZhp1ftr_7mostrix2ui7helpers12chat_storage33transcript_body_for_order_message
FNDA:0,_RNvNtNtNtCs1oYyZhp1ftr_7mostrix2ui7helpers12chat_storage35transcript_body_for_dispute_message
FNDA:0,_RNvNtNtNtCs1oYyZhp1ftr_7mostrix2ui7helpers12chat_storage36order_transcript_already_has_message
FNDA:0,_RNvNtNtNtCs1oYyZhp1ftr_7mostrix2ui7helpers12chat_storage38dispute_transcript_already_has_message
FNDA:0,_RNCNvNtNtNtCsbwworP4HFOr_7mostrix2ui7helpers12chat_storage25save_chat_message_by_kind0B9_
FNDA:0,_RNCNvNtNtNtCsbwworP4HFOr_7mostrix2ui7helpers12chat_storage25save_chat_message_by_kinds_0B9_
FNDA:0,_RNCNvNtNtNtCsbwworP4HFOr_7mostrix2ui7helpers12chat_storage26order_chat_since_from_file0B9_
FNDA:0,_RNCNvNtNtNtCsbwworP4HFOr_7mostrix2ui7helpers12chat_storage27load_chat_from_file_by_kind0B9_
FNDA:0,_RNCNvNtNtNtCsbwworP4HFOr_7mostrix2ui7helpers12chat_storage33load_order_chat_from_file_by_kind0B9_
FNDA:0,_RNCNvNtNtNtCsbwworP4HFOr_7mostrix2ui7helpers12chat_storage38dispute_transcript_already_has_message0B9_
FNDA:0,_RNvMNtNtNtCsbwworP4HFOr_7mostrix2ui7helpers12chat_storageNtB2_15ChatStorageKind9log_label
FNDA:0,_RNvNtNtNtCsbwworP4HFOr_7mostrix2ui7helpers12chat_storage17save_chat_message
FNDA:0,_RNvNtNtNtCsbwworP4HFOr_7mostrix2ui7helpers12chat_storage19load_chat_from_file
FNDA:0,_RNvNtNtNtCsbwworP4HFOr_7mostrix2ui7helpers12chat_storage25load_order_chat_from_file
FNDA:0,_RNvNtNtNtCsbwworP4HFOr_7mostrix2ui7helpers12chat_storage25save_chat_message_by_kind
FNDA:0,_RNvNtNtNtCsbwworP4HFOr_7mostrix2ui7helpers12chat_storage26order_chat_since_from_file
FNDA:0,_RNvNtNtNtCsbwworP4HFOr_7mostrix2ui7helpers12chat_storage27load_chat_from_file_by_kind
FNDA:0,_RNvNtNtNtCsbwworP4HFOr_7mostrix2ui7helpers12chat_storage28dispute_chat_since_from_file
FNDA:0,_RNvNtNtNtCsbwworP4HFOr_7mostrix2ui7helpers12chat_storage33load_order_chat_from_file_by_kind
FNDA:0,_RNvNtNtNtCsbwworP4HFOr_7mostrix2ui7helpers12chat_storage35transcript_body_for_dispute_message
FNDA:0,_RNvNtNtNtCsbwworP4HFOr_7mostrix2ui7helpers12chat_storage38dispute_transcript_already_has_message
FNDA:3,_RNCNvNtNtNtCsbwworP4HFOr_7mostrix2ui7helpers12chat_storage20max_party_timestamps0B9_
FNDA:3,_RNCNvNtNtNtCsbwworP4HFOr_7mostrix2ui7helpers12chat_storage20max_party_timestampss0_0B9_
FNDA:0,_RNCNvNtNtNtCsbwworP4HFOr_7mostrix2ui7helpers12chat_storage23save_order_chat_message0B9_
FNDA:0,_RNCNvNtNtNtCsbwworP4HFOr_7mostrix2ui7helpers12chat_storage23save_order_chat_messages0_0B9_
FNDA:0,_RNCNvNtNtNtCsbwworP4HFOr_7mostrix2ui7helpers12chat_storage23save_order_chat_messages_0B9_
FNDA:3,_RNCNvNtNtNtCsbwworP4HFOr_7mostrix2ui7helpers12chat_storage24parse_last_message_block0B9_
FNDA:0,_RNCNvNtNtNtCsbwworP4HFOr_7mostrix2ui7helpers12chat_storage36order_transcript_already_has_message0B9_
FNDA:0,_RNvMNtNtNtCsbwworP4HFOr_7mostrix2ui7helpers12chat_storageNtB2_15ChatStorageKind11folder_name
FNDA:0,_RNvNtNtNtCsbwworP4HFOr_7mostrix2ui7helpers12chat_storage14chat_file_path
FNDA:1,_RNvNtNtNtCsbwworP4HFOr_7mostrix2ui7helpers12chat_storage20max_party_timestamps
FNDA:1,_RNvNtNtNtCsbwworP4HFOr_7mostrix2ui7helpers12chat_storage23parse_one_message_block
FNDA:0,_RNvNtNtNtCsbwworP4HFOr_7mostrix2ui7helpers12chat_storage23save_order_chat_message
FNDA:1,_RNvNtNtNtCsbwworP4HFOr_7mostrix2ui7helpers12chat_storage24parse_last_message_block
FNDA:1,_RNvNtNtNtCsbwworP4HFOr_7mostrix2ui7helpers12chat_storage29parse_one_order_message_block
FNDA:1,_RNvNtNtNtCsbwworP4HFOr_7mostrix2ui7helpers12chat_storage33transcript_body_for_order_message
FNDA:0,_RNvNtNtNtCsbwworP4HFOr_7mostrix2ui7helpers12chat_storage36order_transcript_already_has_message
FNDA:1,_RNvNtNtNtNtCsbwworP4HFOr_7mostrix2ui7helpers12chat_storage5testss_37max_party_timestamps_tracks_each_side
FNDA:1,_RNvNtNtNtNtCsbwworP4HFOr_7mostrix2ui7helpers12chat_storage5testss_44parse_last_message_returns_most_recent_block
FNDA:1,_RNvNtNtNtNtCsbwworP4HFOr_7mostrix2ui7helpers12chat_storage5testss_44transcript_body_roundtrip_via_message_fields
FNDA:1,_RNvNtNtNtNtCsbwworP4HFOr_7mostrix2ui7helpers12chat_storage5testss_47parse_order_block_supports_legacy_sender_labels
FNDA:1,_RNvNtNtNtNtCsbwworP4HFOr_7mostrix2ui7helpers12chat_storage5testss_53legacy_placeholder_load_has_no_attachment_until_relay
FNF:38
FNH:13
DA:25,0
DA:26,0
DA:27,0
DA:28,0
DA:30,0
DA:32,0
DA:33,0
DA:34,0
DA:35,0
DA:37,0
DA:40,2
DA:41,2
DA:42,2
DA:43,2
DA:44,2
DA:45,0
DA:46,2
DA:47,2
DA:48,2
DA:49,2
DA:50,0
DA:51,0
DA:52,0
DA:53,0
DA:54,0
DA:56,2
DA:57,2
DA:58,2
DA:59,2
DA:60,0
DA:61,0
DA:62,0
DA:65,2
DA:66,2
DA:67,0
DA:68,0
DA:69,0
DA:72,2
DA:73,2
DA:74,2
DA:75,2
DA:77,2
DA:78,2
DA:79,2
DA:80,2
DA:81,2
DA:82,0
DA:83,2
DA:84,2
DA:85,2
DA:86,2
DA:87,2
DA:88,0
DA:89,0
DA:91,2
DA:92,2
DA:93,2
DA:94,2
DA:95,2
DA:96,2
DA:98,2
DA:99,2
DA:100,2
DA:101,6
DA:102,2
DA:103,2
DA:104,2
DA:106,2
DA:107,2
DA:108,2
DA:109,0
DA:111,2
DA:113,0
DA:114,0
DA:115,0
DA:116,0
DA:118,0
DA:120,0
DA:121,0
DA:122,0
DA:123,0
DA:124,0
DA:125,0
DA:126,0
DA:127,0
DA:128,0
DA:129,0
DA:130,0
DA:131,0
DA:132,0
DA:133,0
DA:134,0
DA:135,0
DA:137,0
DA:138,0
DA:139,0
DA:140,0
DA:141,0
DA:142,0
DA:143,0
DA:144,0
DA:146,0
DA:147,0
DA:148,0
DA:149,0
DA:150,0
DA:151,0
DA:152,0
DA:153,0
DA:154,0
DA:155,0
DA:157,0
DA:158,0
DA:159,0
DA:160,0
DA:161,0
DA:162,0
DA:163,0
DA:164,0
DA:165,0
DA:167,0
DA:168,0
DA:169,0
DA:170,0
DA:171,0
DA:172,0
DA:173,0
DA:174,0
DA:176,0
DA:177,0
DA:178,0
DA:179,0
DA:180,0
DA:181,0
DA:182,0
DA:183,0
DA:184,0
DA:185,0
DA:186,0
DA:187,0
DA:189,0
DA:190,0
DA:191,0
DA:192,0
DA:193,0
DA:194,0
DA:195,0
DA:196,0
DA:197,0
DA:198,0
DA:199,0
DA:200,0
DA:201,0
DA:202,0
DA:203,0
DA:204,0
DA:205,0
DA:206,0
DA:208,0
DA:209,0
DA:210,0
DA:211,0
DA:212,0
DA:214,0
DA:215,0
DA:216,0
DA:217,0
DA:218,0
DA:219,0
DA:220,0
DA:221,0
DA:222,0
DA:223,0
DA:224,0
DA:225,0
DA:226,0
DA:227,0
DA:228,0
DA:229,0
DA:230,0
DA:232,0
DA:233,0
DA:234,0
DA:235,0
DA:236,0
DA:239,0
DA:240,0
DA:241,0
DA:244,0
DA:245,0
DA:246,0
DA:248,0
DA:249,0
DA:252,0
DA:253,0
DA:254,0
DA:256,0
DA:257,0
DA:258,0
DA:259,0
DA:261,0
DA:262,0
DA:263,0
DA:264,0
DA:265,0
DA:266,0
DA:267,0
DA:268,0
DA:269,0
DA:271,0
DA:272,0
DA:273,0
DA:274,0
DA:275,0
DA:277,0
DA:278,0
DA:279,0
DA:280,0
DA:281,0
DA:282,0
DA:283,0
DA:284,0
DA:285,0
DA:286,0
DA:287,0
DA:288,0
DA:289,0
DA:290,0
DA:291,0
DA:293,0
DA:294,0
DA:297,0
DA:298,0
DA:299,0
DA:300,0
DA:302,0
DA:303,0
DA:304,0
DA:306,0
DA:309,0
DA:311,0
DA:314,0
DA:315,0
DA:316,0
DA:319,0
DA:320,0
DA:321,0
DA:326,0
DA:327,0
DA:328,0
DA:329,0
DA:330,0
DA:331,0
DA:332,0
DA:333,0
DA:335,0
DA:337,0
DA:340,0
DA:341,0
DA:342,0
DA:344,0
DA:345,0
DA:346,0
DA:348,0
DA:349,0
DA:350,0
DA:353,0
DA:356,0
DA:357,0
DA:358,0
DA:359,0
DA:362,0
DA:364,0
DA:365,0
DA:366,0
DA:367,0
DA:371,0
DA:372,0
DA:374,0
DA:376,0
DA:377,0
DA:378,0
DA:380,0
DA:381,0
DA:382,0
DA:383,0
DA:384,0
DA:385,0
DA:387,0
DA:388,0
DA:389,0
DA:390,0
DA:392,0
DA:393,0
DA:394,0
DA:395,0
DA:396,0
DA:397,0
DA:398,0
DA:400,0
DA:401,0
DA:402,0
DA:403,0
DA:404,0
DA:405,0
DA:406,0
DA:408,0
DA:409,0
DA:410,0
DA:413,0
DA:414,0
DA:418,0
DA:419,0
DA:420,0
DA:421,0
DA:423,0
DA:424,0
DA:425,0
DA:426,0
DA:427,0
DA:431,0
DA:434,0
DA:435,0
DA:436,0
DA:437,0
DA:443,0
DA:445,2
DA:446,2
DA:447,2
DA:448,6
DA:449,2
DA:450,2
DA:451,2
DA:452,2
DA:453,2
DA:454,6
DA:455,2
DA:456,2
DA:457,2
DA:458,2
DA:459,2
DA:472,2
DA:473,2
DA:474,2
DA:475,2
DA:476,2
DA:477,2
DA:478,2
DA:479,2
DA:480,2
DA:481,2
DA:482,2
DA:483,2
DA:484,2
DA:486,2
DA:487,2
DA:488,2
DA:489,2
DA:490,2
DA:491,2
DA:492,2
DA:493,2
DA:496,2
DA:497,2
DA:498,2
DA:499,2
DA:500,2
DA:501,2
DA:504,2
DA:505,2
DA:506,2
DA:507,2
DA:508,2
DA:509,2
DA:512,2
DA:513,2
DA:517,2
DA:518,2
DA:519,2
DA:520,2
DA:521,2
DA:524,2
DA:525,2
DA:526,2
DA:527,2
DA:528,2
DA:529,2
DA:530,2
DA:531,2
DA:532,2
DA:533,2
DA:534,2
DA:535,2
DA:536,2
DA:537,2
DA:538,2
DA:539,2
DA:540,2
DA:541,2
DA:542,2
DA:543,2
DA:544,2
DA:545,2
DA:546,2
DA:548,2
DA:549,2
DA:550,2
DA:551,2
BRF:0
BRH:0
LF:421
LH:131
end_of_record
SF:/home/runner/work/mostrix/mostrix/src/ui/helpers/chat_visibility.rs
FN:57,_RNCNCNvNtNtNtCsaruqlPBEY0K_7mostrix2ui7helpers15chat_visibility29get_order_attachment_messages00Bb_
FN:21,_RNCNvNtNtNtCsaruqlPBEY0K_7mostrix2ui7helpers15chat_visibility25count_visible_attachments0B9_
FN:77,_RNCNvNtNtNtCsaruqlPBEY0K_7mostrix2ui7helpers15chat_visibility25get_selected_chat_message0B9_
FN:8,_RNCNvNtNtNtCsaruqlPBEY0K_7mostrix2ui7helpers15chat_visibility25message_visible_for_party0B9_
FN:54,_RNCNvNtNtNtCsaruqlPBEY0K_7mostrix2ui7helpers15chat_visibility29get_order_attachment_messages0B9_
FN:40,_RNCNvNtNtNtCsaruqlPBEY0K_7mostrix2ui7helpers15chat_visibility31get_visible_attachment_messages0B9_
FN:64,_RNvNtNtNtCsaruqlPBEY0K_7mostrix2ui7helpers15chat_visibility23count_order_attachments
FN:15,_RNvNtNtNtCsaruqlPBEY0K_7mostrix2ui7helpers15chat_visibility25count_visible_attachments
FN:69,_RNvNtNtNtCsaruqlPBEY0K_7mostrix2ui7helpers15chat_visibility25get_selected_chat_message
FN:6,_RNvNtNtNtCsaruqlPBEY0K_7mostrix2ui7helpers15chat_visibility25message_visible_for_party
FN:48,_RNvNtNtNtCsaruqlPBEY0K_7mostrix2ui7helpers15chat_visibility29get_order_attachment_messages
FN:30,_RNvNtNtNtCsaruqlPBEY0K_7mostrix2ui7helpers15chat_visibility31get_visible_attachment_messages
FN:57,_RNCNCNvNtNtNtCs3smmrQNj5EW_7mostrix2ui7helpers15chat_visibility29get_order_attachment_messages00Bb_
FN:21,_RNCNvNtNtNtCs3smmrQNj5EW_7mostrix2ui7helpers15chat_visibility25count_visible_attachments0B9_
FN:77,_RNCNvNtNtNtCs3smmrQNj5EW_7mostrix2ui7helpers15chat_visibility25get_selected_chat_message0B9_
FN:8,_RNCNvNtNtNtCs3smmrQNj5EW_7mostrix2ui7helpers15chat_visibility25message_visible_for_party0B9_
FN:54,_RNCNvNtNtNtCs3smmrQNj5EW_7mostrix2ui7helpers15chat_visibility29get_order_attachment_messages0B9_
FN:40,_RNCNvNtNtNtCs3smmrQNj5EW_7mostrix2ui7helpers15chat_visibility31get_visible_attachment_messages0B9_
FN:64,_RNvNtNtNtCs3smmrQNj5EW_7mostrix2ui7helpers15chat_visibility23count_order_attachments
FN:15,_RNvNtNtNtCs3smmrQNj5EW_7mostrix2ui7helpers15chat_visibility25count_visible_attachments
FN:69,_RNvNtNtNtCs3smmrQNj5EW_7mostrix2ui7helpers15chat_visibility25get_selected_chat_message
FN:6,_RNvNtNtNtCs3smmrQNj5EW_7mostrix2ui7helpers15chat_visibility25message_visible_for_party
FN:48,_RNvNtNtNtCs3smmrQNj5EW_7mostrix2ui7helpers15chat_visibility29get_order_attachment_messages
FN:30,_RNvNtNtNtCs3smmrQNj5EW_7mostrix2ui7helpers15chat_visibility31get_visible_attachment_messages
FN:57,_RNCNCNvNtNtNtCs1oYyZhp1ftr_7mostrix2ui7helpers15chat_visibility29get_order_attachment_messages00Bb_
FN:21,_RNCNvNtNtNtCs1oYyZhp1ftr_7mostrix2ui7helpers15chat_visibility25count_visible_attachments0B9_
FN:77,_RNCNvNtNtNtCs1oYyZhp1ftr_7mostrix2ui7helpers15chat_visibility25get_selected_chat_message0B9_
FN:8,_RNCNvNtNtNtCs1oYyZhp1ftr_7mostrix2ui7helpers15chat_visibility25message_visible_for_party0B9_
FN:54,_RNCNvNtNtNtCs1oYyZhp1ftr_7mostrix2ui7helpers15chat_visibility29get_order_attachment_messages0B9_
FN:40,_RNCNvNtNtNtCs1oYyZhp1ftr_7mostrix2ui7helpers15chat_visibility31get_visible_attachment_messages0B9_
FN:64,_RNvNtNtNtCs1oYyZhp1ftr_7mostrix2ui7helpers15chat_visibility23count_order_attachments
FN:15,_RNvNtNtNtCs1oYyZhp1ftr_7mostrix2ui7helpers15chat_visibility25count_visible_attachments
FN:69,_RNvNtNtNtCs1oYyZhp1ftr_7mostrix2ui7helpers15chat_visibility25get_selected_chat_message
FN:6,_RNvNtNtNtCs1oYyZhp1ftr_7mostrix2ui7helpers15chat_visibility25message_visible_for_party
FN:48,_RNvNtNtNtCs1oYyZhp1ftr_7mostrix2ui7helpers15chat_visibility29get_order_attachment_messages
FN:30,_RNvNtNtNtCs1oYyZhp1ftr_7mostrix2ui7helpers15chat_visibility31get_visible_attachment_messages
FN:57,_RNCNCNvNtNtNtCsbwworP4HFOr_7mostrix2ui7helpers15chat_visibility29get_order_attachment_messages00Bb_
FN:21,_RNCNvNtNtNtCsbwworP4HFOr_7mostrix2ui7helpers15chat_visibility25count_visible_attachments0B9_
FN:77,_RNCNvNtNtNtCsbwworP4HFOr_7mostrix2ui7helpers15chat_visibility25get_selected_chat_message0B9_
FN:8,_RNCNvNtNtNtCsbwworP4HFOr_7mostrix2ui7helpers15chat_visibility25message_visible_for_party0B9_
FN:54,_RNCNvNtNtNtCsbwworP4HFOr_7mostrix2ui7helpers15chat_visibility29get_order_attachment_messages0B9_
FN:40,_RNCNvNtNtNtCsbwworP4HFOr_7mostrix2ui7helpers15chat_visibility31get_visible_attachment_messages0B9_
FN:64,_RNvNtNtNtCsbwworP4HFOr_7mostrix2ui7helpers15chat_visibility23count_order_attachments
FN:15,_RNvNtNtNtCsbwworP4HFOr_7mostrix2ui7helpers15chat_visibility25count_visible_attachments
FN:69,_RNvNtNtNtCsbwworP4HFOr_7mostrix2ui7helpers15chat_visibility25get_selected_chat_message
FN:6,_RNvNtNtNtCsbwworP4HFOr_7mostrix2ui7helpers15chat_visibility25message_visible_for_party
FN:48,_RNvNtNtNtCsbwworP4HFOr_7mostrix2ui7helpers15chat_visibility29get_order_attachment_messages
FN:30,_RNvNtNtNtCsbwworP4HFOr_7mostrix2ui7helpers15chat_visibility31get_visible_attachment_messages
FNDA:0,_RNCNCNvNtNtNtCsaruqlPBEY0K_7mostrix2ui7helpers15chat_visibility29get_order_attachment_messages00Bb_
FNDA:0,_RNCNvNtNtNtCsaruqlPBEY0K_7mostrix2ui7helpers15chat_visibility25count_visible_attachments0B9_
FNDA:0,_RNCNvNtNtNtCsaruqlPBEY0K_7mostrix2ui7helpers15chat_visibility25get_selected_chat_message0B9_
FNDA:0,_RNCNvNtNtNtCsaruqlPBEY0K_7mostrix2ui7helpers15chat_visibility25message_visible_for_party0B9_
FNDA:0,_RNCNvNtNtNtCsaruqlPBEY0K_7mostrix2ui7helpers15chat_visibility29get_order_attachment_messages0B9_
FNDA:0,_RNCNvNtNtNtCsaruqlPBEY0K_7mostrix2ui7helpers15chat_visibility31get_visible_attachment_messages0B9_
FNDA:0,_RNvNtNtNtCsaruqlPBEY0K_7mostrix2ui7helpers15chat_visibility23count_order_attachments
FNDA:0,_RNvNtNtNtCsaruqlPBEY0K_7mostrix2ui7helpers15chat_visibility25count_visible_attachments
FNDA:0,_RNvNtNtNtCsaruqlPBEY0K_7mostrix2ui7helpers15chat_visibility25get_selected_chat_message
FNDA:0,_RNvNtNtNtCsaruqlPBEY0K_7mostrix2ui7helpers15chat_visibility25message_visible_for_party
FNDA:0,_RNvNtNtNtCsaruqlPBEY0K_7mostrix2ui7helpers15chat_visibility29get_order_attachment_messages
FNDA:0,_RNvNtNtNtCsaruqlPBEY0K_7mostrix2ui7helpers15chat_visibility31get_visible_attachment_messages
FNDA:0,_RNCNCNvNtNtNtCs3smmrQNj5EW_7mostrix2ui7helpers15chat_visibility29get_order_attachment_messages00Bb_
FNDA:0,_RNCNvNtNtNtCs3smmrQNj5EW_7mostrix2ui7helpers15chat_visibility25count_visible_attachments0B9_
FNDA:0,_RNCNvNtNtNtCs3smmrQNj5EW_7mostrix2ui7helpers15chat_visibility25get_selected_chat_message0B9_
FNDA:0,_RNCNvNtNtNtCs3smmrQNj5EW_7mostrix2ui7helpers15chat_visibility25message_visible_for_party0B9_
FNDA:0,_RNCNvNtNtNtCs3smmrQNj5EW_7mostrix2ui7helpers15chat_visibility29get_order_attachment_messages0B9_
FNDA:0,_RNCNvNtNtNtCs3smmrQNj5EW_7mostrix2ui7helpers15chat_visibility31get_visible_attachment_messages0B9_
FNDA:0,_RNvNtNtNtCs3smmrQNj5EW_7mostrix2ui7helpers15chat_visibility23count_order_attachments
FNDA:0,_RNvNtNtNtCs3smmrQNj5EW_7mostrix2ui7helpers15chat_visibility25count_visible_attachments
FNDA:0,_RNvNtNtNtCs3smmrQNj5EW_7mostrix2ui7helpers15chat_visibility25get_selected_chat_message
FNDA:0,_RNvNtNtNtCs3smmrQNj5EW_7mostrix2ui7helpers15chat_visibility25message_visible_for_party
FNDA:0,_RNvNtNtNtCs3smmrQNj5EW_7mostrix2ui7helpers15chat_visibility29get_order_attachment_messages
FNDA:0,_RNvNtNtNtCs3smmrQNj5EW_7mostrix2ui7helpers15chat_visibility31get_visible_attachment_messages
FNDA:0,_RNCNCNvNtNtNtCs1oYyZhp1ftr_7mostrix2ui7helpers15chat_visibility29get_order_attachment_messages00Bb_
FNDA:0,_RNCNvNtNtNtCs1oYyZhp1ftr_7mostrix2ui7helpers15chat_visibility25count_visible_attachments0B9_
FNDA:0,_RNCNvNtNtNtCs1oYyZhp1ftr_7mostrix2ui7helpers15chat_visibility25get_selected_chat_message0B9_
FNDA:0,_RNCNvNtNtNtCs1oYyZhp1ftr_7mostrix2ui7helpers15chat_visibility25message_visible_for_party0B9_
FNDA:0,_RNCNvNtNtNtCs1oYyZhp1ftr_7mostrix2ui7helpers15chat_visibility29get_order_attachment_messages0B9_
FNDA:0,_RNCNvNtNtNtCs1oYyZhp1ftr_7mostrix2ui7helpers15chat_visibility31get_visible_attachment_messages0B9_
FNDA:0,_RNvNtNtNtCs1oYyZhp1ftr_7mostrix2ui7helpers15chat_visibility23count_order_attachments
FNDA:0,_RNvNtNtNtCs1oYyZhp1ftr_7mostrix2ui7helpers15chat_visibility25count_visible_attachments
FNDA:0,_RNvNtNtNtCs1oYyZhp1ftr_7mostrix2ui7helpers15chat_visibility25get_selected_chat_message
FNDA:0,_RNvNtNtNtCs1oYyZhp1ftr_7mostrix2ui7helpers15chat_visibility25message_visible_for_party
FNDA:0,_RNvNtNtNtCs1oYyZhp1ftr_7mostrix2ui7helpers15chat_visibility29get_order_attachment_messages
FNDA:0,_RNvNtNtNtCs1oYyZhp1ftr_7mostrix2ui7helpers15chat_visibility31get_visible_attachment_messages
FNDA:0,_RNCNCNvNtNtNtCsbwworP4HFOr_7mostrix2ui7helpers15chat_visibility29get_order_attachment_messages00Bb_
FNDA:0,_RNCNvNtNtNtCsbwworP4HFOr_7mostrix2ui7helpers15chat_visibility25count_visible_attachments0B9_
FNDA:0,_RNCNvNtNtNtCsbwworP4HFOr_7mostrix2ui7helpers15chat_visibility25get_selected_chat_message0B9_
FNDA:0,_RNCNvNtNtNtCsbwworP4HFOr_7mostrix2ui7helpers15chat_visibility25message_visible_for_party0B9_
FNDA:0,_RNCNvNtNtNtCsbwworP4HFOr_7mostrix2ui7helpers15chat_visibility29get_order_attachment_messages0B9_
FNDA:0,_RNCNvNtNtNtCsbwworP4HFOr_7mostrix2ui7helpers15chat_visibility31get_visible_attachment_messages0B9_
FNDA:0,_RNvNtNtNtCsbwworP4HFOr_7mostrix2ui7helpers15chat_visibility23count_order_attachments
FNDA:0,_RNvNtNtNtCsbwworP4HFOr_7mostrix2ui7helpers15chat_visibility25count_visible_attachments
FNDA:0,_RNvNtNtNtCsbwworP4HFOr_7mostrix2ui7helpers15chat_visibility25get_selected_chat_message
FNDA:0,_RNvNtNtNtCsbwworP4HFOr_7mostrix2ui7helpers15chat_visibility25message_visible_for_party
FNDA:0,_RNvNtNtNtCsbwworP4HFOr_7mostrix2ui7helpers15chat_visibility29get_order_attachment_messages
FNDA:0,_RNvNtNtNtCsbwworP4HFOr_7mostrix2ui7helpers15chat_visibility31get_visible_attachment_messages
FNF:12
FNH:0
DA:6,0
DA:7,0
DA:8,0
DA:9,0
DA:10,0
DA:12,0
DA:15,0
DA:16,0
DA:17,0
DA:18,0
DA:19,0
DA:20,0
DA:21,0
DA:22,0
DA:23,0
DA:24,0
DA:25,0
DA:26,0
DA:30,0
DA:31,0
DA:32,0
DA:33,0
DA:34,0
DA:35,0
DA:36,0
DA:38,0
DA:39,0
DA:40,0
DA:41,0
DA:42,0
DA:43,0
DA:44,0
DA:45,0
DA:48,0
DA:49,0
DA:50,0
DA:51,0
DA:52,0
DA:53,0
DA:54,0
DA:55,0
DA:56,0
DA:57,0
DA:58,0
DA:59,0
DA:60,0
DA:61,0
DA:64,0
DA:65,0
DA:66,0
DA:69,0
DA:70,0
DA:71,0
DA:72,0
DA:73,0
DA:74,0
DA:75,0
DA:76,0
DA:77,0
DA:78,0
DA:79,0
DA:80,0
BRF:0
BRH:0
LF:68
LH:0
end_of_record
SF:/home/runner/work/mostrix/mostrix/src/ui/helpers/formatting.rs
FN:27,_RNvNtNtNtCsaruqlPBEY0K_7mostrix2ui7helpers10formatting15format_order_id
FN:7,_RNvNtNtNtCsaruqlPBEY0K_7mostrix2ui7helpers10formatting18format_user_rating
FN:22,_RNvNtNtNtCsaruqlPBEY0K_7mostrix2ui7helpers10formatting20is_dispute_finalized
FN:27,_RNvNtNtNtCs3smmrQNj5EW_7mostrix2ui7helpers10formatting15format_order_id
FN:7,_RNvNtNtNtCs3smmrQNj5EW_7mostrix2ui7helpers10formatting18format_user_rating
FN:22,_RNvNtNtNtCs3smmrQNj5EW_7mostrix2ui7helpers10formatting20is_dispute_finalized
FN:27,_RNvNtNtNtCs1oYyZhp1ftr_7mostrix2ui7helpers10formatting15format_order_id
FN:7,_RNvNtNtNtCs1oYyZhp1ftr_7mostrix2ui7helpers10formatting18format_user_rating
FN:22,_RNvNtNtNtCs1oYyZhp1ftr_7mostrix2ui7helpers10formatting20is_dispute_finalized
FN:27,_RNvNtNtNtCsbwworP4HFOr_7mostrix2ui7helpers10formatting15format_order_id
FN:7,_RNvNtNtNtCsbwworP4HFOr_7mostrix2ui7helpers10formatting18format_user_rating
FN:22,_RNvNtNtNtCsbwworP4HFOr_7mostrix2ui7helpers10formatting20is_dispute_finalized
FNDA:0,_RNvNtNtNtCsaruqlPBEY0K_7mostrix2ui7helpers10formatting15format_order_id
FNDA:0,_RNvNtNtNtCsaruqlPBEY0K_7mostrix2ui7helpers10formatting18format_user_rating
FNDA:0,_RNvNtNtNtCsaruqlPBEY0K_7mostrix2ui7helpers10formatting20is_dispute_finalized
FNDA:0,_RNvNtNtNtCs3smmrQNj5EW_7mostrix2ui7helpers10formatting15format_order_id
FNDA:0,_RNvNtNtNtCs3smmrQNj5EW_7mostrix2ui7helpers10formatting18format_user_rating
FNDA:0,_RNvNtNtNtCs3smmrQNj5EW_7mostrix2ui7helpers10formatting20is_dispute_finalized
FNDA:0,_RNvNtNtNtCs1oYyZhp1ftr_7mostrix2ui7helpers10formatting15format_order_id
FNDA:0,_RNvNtNtNtCs1oYyZhp1ftr_7mostrix2ui7helpers10formatting18format_user_rating
FNDA:0,_RNvNtNtNtCs1oYyZhp1ftr_7mostrix2ui7helpers10formatting20is_dispute_finalized
FNDA:0,_RNvNtNtNtCsbwworP4HFOr_7mostrix2ui7helpers10formatting15format_order_id
FNDA:0,_RNvNtNtNtCsbwworP4HFOr_7mostrix2ui7helpers10formatting18format_user_rating
FNDA:0,_RNvNtNtNtCsbwworP4HFOr_7mostrix2ui7helpers10formatting20is_dispute_finalized
FNF:3
FNH:0
DA:7,0
DA:8,0
DA:9,0
DA:10,0
DA:11,0
DA:12,0
DA:13,0
DA:17,0
DA:19,0
DA:22,0
DA:23,0
DA:24,0
DA:27,0
DA:28,0
DA:29,0
DA:30,0
DA:31,0
DA:34,0
DA:36,0
BRF:0
BRH:0
LF:19
LH:0
end_of_record
SF:/home/runner/work/mostrix/mostrix/src/ui/helpers/layout.rs
FN:162,_RNCNvNtNtNtCsaruqlPBEY0K_7mostrix2ui7helpers6layout28render_yes_no_cancel_buttons0B9_
FN:21,_RNvNtNtNtCsaruqlPBEY0K_7mostrix2ui7helpers6layout16render_help_text
FN:9,_RNvNtNtNtCsaruqlPBEY0K_7mostrix2ui7helpers6layout21create_centered_popup
FN:40,_RNvNtNtNtCsaruqlPBEY0K_7mostrix2ui7helpers6layout21render_yes_no_buttons
FN:139,_RNvNtNtNtCsaruqlPBEY0K_7mostrix2ui7helpers6layout28render_yes_no_cancel_buttons
FN:162,_RNCNvNtNtNtCs3smmrQNj5EW_7mostrix2ui7helpers6layout28render_yes_no_cancel_buttons0B9_
FN:21,_RNvNtNtNtCs3smmrQNj5EW_7mostrix2ui7helpers6layout16render_help_text
FN:9,_RNvNtNtNtCs3smmrQNj5EW_7mostrix2ui7helpers6layout21create_centered_popup
FN:40,_RNvNtNtNtCs3smmrQNj5EW_7mostrix2ui7helpers6layout21render_yes_no_buttons
FN:139,_RNvNtNtNtCs3smmrQNj5EW_7mostrix2ui7helpers6layout28render_yes_no_cancel_buttons
FN:162,_RNCNvNtNtNtCs1oYyZhp1ftr_7mostrix2ui7helpers6layout28render_yes_no_cancel_buttons0B9_
FN:21,_RNvNtNtNtCs1oYyZhp1ftr_7mostrix2ui7helpers6layout16render_help_text
FN:9,_RNvNtNtNtCs1oYyZhp1ftr_7mostrix2ui7helpers6layout21create_centered_popup
FN:40,_RNvNtNtNtCs1oYyZhp1ftr_7mostrix2ui7helpers6layout21render_yes_no_buttons
FN:139,_RNvNtNtNtCs1oYyZhp1ftr_7mostrix2ui7helpers6layout28render_yes_no_cancel_buttons
FN:162,_RNCNvNtNtNtCsbwworP4HFOr_7mostrix2ui7helpers6layout28render_yes_no_cancel_buttons0B9_
FN:21,_RNvNtNtNtCsbwworP4HFOr_7mostrix2ui7helpers6layout16render_help_text
FN:9,_RNvNtNtNtCsbwworP4HFOr_7mostrix2ui7helpers6layout21create_centered_popup
FN:40,_RNvNtNtNtCsbwworP4HFOr_7mostrix2ui7helpers6layout21render_yes_no_buttons
FN:139,_RNvNtNtNtCsbwworP4HFOr_7mostrix2ui7helpers6layout28render_yes_no_cancel_buttons
FNDA:0,_RNCNvNtNtNtCsaruqlPBEY0K_7mostrix2ui7helpers6layout28render_yes_no_cancel_buttons0B9_
FNDA:0,_RNvNtNtNtCsaruqlPBEY0K_7mostrix2ui7helpers6layout16render_help_text
FNDA:0,_RNvNtNtNtCsaruqlPBEY0K_7mostrix2ui7helpers6layout21create_centered_popup
FNDA:0,_RNvNtNtNtCsaruqlPBEY0K_7mostrix2ui7helpers6layout21render_yes_no_buttons
FNDA:0,_RNvNtNtNtCsaruqlPBEY0K_7mostrix2ui7helpers6layout28render_yes_no_cancel_buttons
FNDA:0,_RNCNvNtNtNtCs3smmrQNj5EW_7mostrix2ui7helpers6layout28render_yes_no_cancel_buttons0B9_
FNDA:0,_RNvNtNtNtCs3smmrQNj5EW_7mostrix2ui7helpers6layout16render_help_text
FNDA:0,_RNvNtNtNtCs3smmrQNj5EW_7mostrix2ui7helpers6layout21create_centered_popup
FNDA:0,_RNvNtNtNtCs3smmrQNj5EW_7mostrix2ui7helpers6layout21render_yes_no_buttons
FNDA:0,_RNvNtNtNtCs3smmrQNj5EW_7mostrix2ui7helpers6layout28render_yes_no_cancel_buttons
FNDA:0,_RNCNvNtNtNtCs1oYyZhp1ftr_7mostrix2ui7helpers6layout28render_yes_no_cancel_buttons0B9_
FNDA:0,_RNvNtNtNtCs1oYyZhp1ftr_7mostrix2ui7helpers6layout16render_help_text
FNDA:0,_RNvNtNtNtCs1oYyZhp1ftr_7mostrix2ui7helpers6layout21create_centered_popup
FNDA:0,_RNvNtNtNtCs1oYyZhp1ftr_7mostrix2ui7helpers6layout21render_yes_no_buttons
FNDA:0,_RNvNtNtNtCs1oYyZhp1ftr_7mostrix2ui7helpers6layout28render_yes_no_cancel_buttons
FNDA:0,_RNCNvNtNtNtCsbwworP4HFOr_7mostrix2ui7helpers6layout28render_yes_no_cancel_buttons0B9_
FNDA:0,_RNvNtNtNtCsbwworP4HFOr_7mostrix2ui7helpers6layout16render_help_text
FNDA:0,_RNvNtNtNtCsbwworP4HFOr_7mostrix2ui7helpers6layout21create_centered_popup
FNDA:0,_RNvNtNtNtCsbwworP4HFOr_7mostrix2ui7helpers6layout21render_yes_no_buttons
FNDA:0,_RNvNtNtNtCsbwworP4HFOr_7mostrix2ui7helpers6layout28render_yes_no_cancel_buttons
FNF:5
FNH:0
DA:9,0
DA:10,0
DA:11,0
DA:12,0
DA:13,0
DA:14,0
DA:15,0
DA:16,0
DA:17,0
DA:18,0
DA:21,0
DA:22,0
DA:23,0
DA:24,0
DA:25,0
DA:26,0
DA:27,0
DA:28,0
DA:29,0
DA:31,0
DA:33,0
DA:34,0
DA:36,0
DA:40,0
DA:41,0
DA:42,0
DA:43,0
DA:44,0
DA:45,0
DA:46,0
DA:47,0
DA:48,0
DA:49,0
DA:51,0
DA:52,0
DA:53,0
DA:54,0
DA:55,0
DA:56,0
DA:57,0
DA:59,0
DA:60,0
DA:61,0
DA:62,0
DA:63,0
DA:64,0
DA:65,0
DA:66,0
DA:67,0
DA:69,0
DA:70,0
DA:71,0
DA:72,0
DA:73,0
DA:75,0
DA:76,0
DA:77,0
DA:80,0
DA:81,0
DA:82,0
DA:83,0
DA:85,0
DA:86,0
DA:87,0
DA:89,0
DA:90,0
DA:91,0
DA:92,0
DA:93,0
DA:94,0
DA:96,0
DA:98,0
DA:100,0
DA:101,0
DA:104,0
DA:105,0
DA:106,0
DA:107,0
DA:108,0
DA:110,0
DA:113,0
DA:114,0
DA:115,0
DA:116,0
DA:118,0
DA:119,0
DA:120,0
DA:122,0
DA:123,0
DA:124,0
DA:125,0
DA:126,0
DA:127,0
DA:129,0
DA:131,0
DA:133,0
DA:134,0
DA:136,0
DA:139,0
DA:140,0
DA:141,0
DA:142,0
DA:143,0
DA:144,0
DA:145,0
DA:146,0
DA:147,0
DA:148,0
DA:149,0
DA:150,0
DA:151,0
DA:152,0
DA:153,0
DA:154,0
DA:155,0
DA:156,0
DA:157,0
DA:158,0
DA:159,0
DA:161,0
DA:162,0
DA:163,0
DA:164,0
DA:165,0
DA:166,0
DA:167,0
DA:168,0
DA:170,0
DA:172,0
DA:173,0
DA:174,0
DA:175,0
DA:176,0
DA:177,0
DA:178,0
DA:179,0
DA:180,0
DA:181,0
DA:182,0
DA:183,0
DA:184,0
DA:186,0
DA:187,0
DA:189,0
DA:191,0
DA:192,0
DA:193,0
DA:194,0
DA:195,0
DA:196,0
DA:197,0
DA:198,0
DA:199,0
DA:200,0
DA:201,0
DA:202,0
DA:203,0
DA:204,0
DA:205,0
DA:206,0
DA:207,0
DA:208,0
DA:209,0
DA:210,0
DA:211,0
DA:212,0
DA:213,0
DA:214,0
DA:215,0
BRF:0
BRH:0
LF:169
LH:0
end_of_record
SF:/home/runner/work/mostrix/mostrix/src/ui/helpers/order_chat_projection.rs
FN:177,_RINvNtNtNtCsaruqlPBEY0K_7mostrix2ui7helpers21order_chat_projection31fatal_on_poisoned_messages_lockINtNtNtCscKkwsb9kWaL_3std4sync6poison11PoisonErrorINtNtB1C_5mutex10MutexGuardINtNtCscmSb185pVu_5alloc3vec3VecNtNtB6_6orders12OrderMessageEEEEB8_
FN:104,_RNCNvNtNtNtCsaruqlPBEY0K_7mostrix2ui7helpers21order_chat_projection20sort_order_chat_rows0B9_
FN:152,_RNCNvNtNtNtCsaruqlPBEY0K_7mostrix2ui7helpers21order_chat_projection33append_maker_book_rows_without_dm0B9_
FN:38,_RNCNvNtNtNtCsaruqlPBEY0K_7mostrix2ui7helpers21order_chat_projection34order_chat_list_item_from_db_order0B9_
FN:124,_RNCNvNtNtNtCsaruqlPBEY0K_7mostrix2ui7helpers21order_chat_projection35build_order_chat_list_from_messages0B9_
FN:125,_RNCNvNtNtNtCsaruqlPBEY0K_7mostrix2ui7helpers21order_chat_projection35build_order_chat_list_from_messagess_0B9_
FN:74,_RNvNtNtNtCsaruqlPBEY0K_7mostrix2ui7helpers21order_chat_projection17merge_peer_fields
FN:58,_RNvNtNtNtCsaruqlPBEY0K_7mostrix2ui7helpers21order_chat_projection18merge_order_fields
FN:99,_RNvNtNtNtCsaruqlPBEY0K_7mostrix2ui7helpers21order_chat_projection19status_from_message
FN:103,_RNvNtNtNtCsaruqlPBEY0K_7mostrix2ui7helpers21order_chat_projection20sort_order_chat_rows
FN:86,_RNvNtNtNtCsaruqlPBEY0K_7mostrix2ui7helpers21order_chat_projection24merge_message_into_entry
FN:185,_RNvNtNtNtCsaruqlPBEY0K_7mostrix2ui7helpers21order_chat_projection26active_order_chat_list_len
FN:167,_RNvNtNtNtCsaruqlPBEY0K_7mostrix2ui7helpers21order_chat_projection28build_active_order_chat_list
FN:197,_RNvNtNtNtCsaruqlPBEY0K_7mostrix2ui7helpers21order_chat_projection31active_order_chat_list_snapshot
FN:147,_RNvNtNtNtCsaruqlPBEY0K_7mostrix2ui7helpers21order_chat_projection33append_maker_book_rows_without_dm
FN:31,_RNvNtNtNtCsaruqlPBEY0K_7mostrix2ui7helpers21order_chat_projection34order_chat_list_item_from_db_order
FN:115,_RNvNtNtNtCsaruqlPBEY0K_7mostrix2ui7helpers21order_chat_projection35build_order_chat_list_from_messages
FN:177,_RINvNtNtNtCs3smmrQNj5EW_7mostrix2ui7helpers21order_chat_projection31fatal_on_poisoned_messages_lockpEB8_
FN:38,_RNCNvNtNtNtCs3smmrQNj5EW_7mostrix2ui7helpers21order_chat_projection34order_chat_list_item_from_db_order0B9_
FN:185,_RNvNtNtNtCs3smmrQNj5EW_7mostrix2ui7helpers21order_chat_projection26active_order_chat_list_len
FN:197,_RNvNtNtNtCs3smmrQNj5EW_7mostrix2ui7helpers21order_chat_projection31active_order_chat_list_snapshot
FN:31,_RNvNtNtNtCs3smmrQNj5EW_7mostrix2ui7helpers21order_chat_projection34order_chat_list_item_from_db_order
FN:104,_RNCNvNtNtNtCs3smmrQNj5EW_7mostrix2ui7helpers21order_chat_projection20sort_order_chat_rows0B9_
FN:152,_RNCNvNtNtNtCs3smmrQNj5EW_7mostrix2ui7helpers21order_chat_projection33append_maker_book_rows_without_dm0B9_
FN:124,_RNCNvNtNtNtCs3smmrQNj5EW_7mostrix2ui7helpers21order_chat_projection35build_order_chat_list_from_messages0B9_
FN:125,_RNCNvNtNtNtCs3smmrQNj5EW_7mostrix2ui7helpers21order_chat_projection35build_order_chat_list_from_messagess_0B9_
FN:74,_RNvNtNtNtCs3smmrQNj5EW_7mostrix2ui7helpers21order_chat_projection17merge_peer_fields
FN:58,_RNvNtNtNtCs3smmrQNj5EW_7mostrix2ui7helpers21order_chat_projection18merge_order_fields
FN:99,_RNvNtNtNtCs3smmrQNj5EW_7mostrix2ui7helpers21order_chat_projection19status_from_message
FN:103,_RNvNtNtNtCs3smmrQNj5EW_7mostrix2ui7helpers21order_chat_projection20sort_order_chat_rows
FN:86,_RNvNtNtNtCs3smmrQNj5EW_7mostrix2ui7helpers21order_chat_projection24merge_message_into_entry
FN:167,_RNvNtNtNtCs3smmrQNj5EW_7mostrix2ui7helpers21order_chat_projection28build_active_order_chat_list
FN:147,_RNvNtNtNtCs3smmrQNj5EW_7mostrix2ui7helpers21order_chat_projection33append_maker_book_rows_without_dm
FN:115,_RNvNtNtNtCs3smmrQNj5EW_7mostrix2ui7helpers21order_chat_projection35build_order_chat_list_from_messages
FN:177,_RINvNtNtNtCs1oYyZhp1ftr_7mostrix2ui7helpers21order_chat_projection31fatal_on_poisoned_messages_lockINtNtNtCscKkwsb9kWaL_3std4sync6poison11PoisonErrorINtNtB1C_5mutex10MutexGuardINtNtCscmSb185pVu_5alloc3vec3VecNtNtB6_6orders12OrderMessageEEEEB8_
FN:104,_RNCNvNtNtNtCs1oYyZhp1ftr_7mostrix2ui7helpers21order_chat_projection20sort_order_chat_rows0B9_
FN:152,_RNCNvNtNtNtCs1oYyZhp1ftr_7mostrix2ui7helpers21order_chat_projection33append_maker_book_rows_without_dm0B9_
FN:38,_RNCNvNtNtNtCs1oYyZhp1ftr_7mostrix2ui7helpers21order_chat_projection34order_chat_list_item_from_db_order0B9_
FN:124,_RNCNvNtNtNtCs1oYyZhp1ftr_7mostrix2ui7helpers21order_chat_projection35build_order_chat_list_from_messages0B9_
FN:125,_RNCNvNtNtNtCs1oYyZhp1ftr_7mostrix2ui7helpers21order_chat_projection35build_order_chat_list_from_messagess_0B9_
FN:74,_RNvNtNtNtCs1oYyZhp1ftr_7mostrix2ui7helpers21order_chat_projection17merge_peer_fields
FN:58,_RNvNtNtNtCs1oYyZhp1ftr_7mostrix2ui7helpers21order_chat_projection18merge_order_fields
FN:99,_RNvNtNtNtCs1oYyZhp1ftr_7mostrix2ui7helpers21order_chat_projection19status_from_message
FN:103,_RNvNtNtNtCs1oYyZhp1ftr_7mostrix2ui7helpers21order_chat_projection20sort_order_chat_rows
FN:86,_RNvNtNtNtCs1oYyZhp1ftr_7mostrix2ui7helpers21order_chat_projection24merge_message_into_entry
FN:185,_RNvNtNtNtCs1oYyZhp1ftr_7mostrix2ui7helpers21order_chat_projection26active_order_chat_list_len
FN:167,_RNvNtNtNtCs1oYyZhp1ftr_7mostrix2ui7helpers21order_chat_projection28build_active_order_chat_list
FN:197,_RNvNtNtNtCs1oYyZhp1ftr_7mostrix2ui7helpers21order_chat_projection31active_order_chat_list_snapshot
FN:147,_RNvNtNtNtCs1oYyZhp1ftr_7mostrix2ui7helpers21order_chat_projection33append_maker_book_rows_without_dm
FN:31,_RNvNtNtNtCs1oYyZhp1ftr_7mostrix2ui7helpers21order_chat_projection34order_chat_list_item_from_db_order
FN:115,_RNvNtNtNtCs1oYyZhp1ftr_7mostrix2ui7helpers21order_chat_projection35build_order_chat_list_from_messages
FN:177,_RINvNtNtNtCsbwworP4HFOr_7mostrix2ui7helpers21order_chat_projection31fatal_on_poisoned_messages_lockpEB8_
FN:38,_RNCNvNtNtNtCsbwworP4HFOr_7mostrix2ui7helpers21order_chat_projection34order_chat_list_item_from_db_order0B9_
FN:185,_RNvNtNtNtCsbwworP4HFOr_7mostrix2ui7helpers21order_chat_projection26active_order_chat_list_len
FN:197,_RNvNtNtNtCsbwworP4HFOr_7mostrix2ui7helpers21order_chat_projection31active_order_chat_list_snapshot
FN:31,_RNvNtNtNtCsbwworP4HFOr_7mostrix2ui7helpers21order_chat_projection34order_chat_list_item_from_db_order
FN:104,_RNCNvNtNtNtCsbwworP4HFOr_7mostrix2ui7helpers21order_chat_projection20sort_order_chat_rows0B9_
FN:152,_RNCNvNtNtNtCsbwworP4HFOr_7mostrix2ui7helpers21order_chat_projection33append_maker_book_rows_without_dm0B9_
FN:124,_RNCNvNtNtNtCsbwworP4HFOr_7mostrix2ui7helpers21order_chat_projection35build_order_chat_list_from_messages0B9_
FN:125,_RNCNvNtNtNtCsbwworP4HFOr_7mostrix2ui7helpers21order_chat_projection35build_order_chat_list_from_messagess_0B9_
FN:74,_RNvNtNtNtCsbwworP4HFOr_7mostrix2ui7helpers21order_chat_projection17merge_peer_fields
FN:58,_RNvNtNtNtCsbwworP4HFOr_7mostrix2ui7helpers21order_chat_projection18merge_order_fields
FN:99,_RNvNtNtNtCsbwworP4HFOr_7mostrix2ui7helpers21order_chat_projection19status_from_message
FN:103,_RNvNtNtNtCsbwworP4HFOr_7mostrix2ui7helpers21order_chat_projection20sort_order_chat_rows
FN:86,_RNvNtNtNtCsbwworP4HFOr_7mostrix2ui7helpers21order_chat_projection24merge_message_into_entry
FN:167,_RNvNtNtNtCsbwworP4HFOr_7mostrix2ui7helpers21order_chat_projection28build_active_order_chat_list
FN:147,_RNvNtNtNtCsbwworP4HFOr_7mostrix2ui7helpers21order_chat_projection33append_maker_book_rows_without_dm
FN:115,_RNvNtNtNtCsbwworP4HFOr_7mostrix2ui7helpers21order_chat_projection35build_order_chat_list_from_messages
FNDA:0,_RINvNtNtNtCsaruqlPBEY0K_7mostrix2ui7helpers21order_chat_projection31fatal_on_poisoned_messages_lockINtNtNtCscKkwsb9kWaL_3std4sync6poison11PoisonErrorINtNtB1C_5mutex10MutexGuardINtNtCscmSb185pVu_5alloc3vec3VecNtNtB6_6orders12OrderMessageEEEEB8_
FNDA:0,_RNCNvNtNtNtCsaruqlPBEY0K_7mostrix2ui7helpers21order_chat_projection20sort_order_chat_rows0B9_
FNDA:0,_RNCNvNtNtNtCsaruqlPBEY0K_7mostrix2ui7helpers21order_chat_projection33append_maker_book_rows_without_dm0B9_
FNDA:0,_RNCNvNtNtNtCsaruqlPBEY0K_7mostrix2ui7helpers21order_chat_projection34order_chat_list_item_from_db_order0B9_
FNDA:0,_RNCNvNtNtNtCsaruqlPBEY0K_7mostrix2ui7helpers21order_chat_projection35build_order_chat_list_from_messages0B9_
FNDA:0,_RNCNvNtNtNtCsaruqlPBEY0K_7mostrix2ui7helpers21order_chat_projection35build_order_chat_list_from_messagess_0B9_
FNDA:0,_RNvNtNtNtCsaruqlPBEY0K_7mostrix2ui7helpers21order_chat_projection17merge_peer_fields
FNDA:0,_RNvNtNtNtCsaruqlPBEY0K_7mostrix2ui7helpers21order_chat_projection18merge_order_fields
FNDA:0,_RNvNtNtNtCsaruqlPBEY0K_7mostrix2ui7helpers21order_chat_projection19status_from_message
FNDA:0,_RNvNtNtNtCsaruqlPBEY0K_7mostrix2ui7helpers21order_chat_projection20sort_order_chat_rows
FNDA:0,_RNvNtNtNtCsaruqlPBEY0K_7mostrix2ui7helpers21order_chat_projection24merge_message_into_entry
FNDA:0,_RNvNtNtNtCsaruqlPBEY0K_7mostrix2ui7helpers21order_chat_projection26active_order_chat_list_len
FNDA:0,_RNvNtNtNtCsaruqlPBEY0K_7mostrix2ui7helpers21order_chat_projection28build_active_order_chat_list
FNDA:0,_RNvNtNtNtCsaruqlPBEY0K_7mostrix2ui7helpers21order_chat_projection31active_order_chat_list_snapshot
FNDA:0,_RNvNtNtNtCsaruqlPBEY0K_7mostrix2ui7helpers21order_chat_projection33append_maker_book_rows_without_dm
FNDA:0,_RNvNtNtNtCsaruqlPBEY0K_7mostrix2ui7helpers21order_chat_projection34order_chat_list_item_from_db_order
FNDA:0,_RNvNtNtNtCsaruqlPBEY0K_7mostrix2ui7helpers21order_chat_projection35build_order_chat_list_from_messages
FNDA:0,_RINvNtNtNtCs3smmrQNj5EW_7mostrix2ui7helpers21order_chat_projection31fatal_on_poisoned_messages_lockpEB8_
FNDA:0,_RNCNvNtNtNtCs3smmrQNj5EW_7mostrix2ui7helpers21order_chat_projection34order_chat_list_item_from_db_order0B9_
FNDA:0,_RNvNtNtNtCs3smmrQNj5EW_7mostrix2ui7helpers21order_chat_projection26active_order_chat_list_len
FNDA:0,_RNvNtNtNtCs3smmrQNj5EW_7mostrix2ui7helpers21order_chat_projection31active_order_chat_list_snapshot
FNDA:0,_RNvNtNtNtCs3smmrQNj5EW_7mostrix2ui7helpers21order_chat_projection34order_chat_list_item_from_db_order
FNDA:0,_RNCNvNtNtNtCs3smmrQNj5EW_7mostrix2ui7helpers21order_chat_projection20sort_order_chat_rows0B9_
FNDA:0,_RNCNvNtNtNtCs3smmrQNj5EW_7mostrix2ui7helpers21order_chat_projection33append_maker_book_rows_without_dm0B9_
FNDA:0,_RNCNvNtNtNtCs3smmrQNj5EW_7mostrix2ui7helpers21order_chat_projection35build_order_chat_list_from_messages0B9_
FNDA:0,_RNCNvNtNtNtCs3smmrQNj5EW_7mostrix2ui7helpers21order_chat_projection35build_order_chat_list_from_messagess_0B9_
FNDA:0,_RNvNtNtNtCs3smmrQNj5EW_7mostrix2ui7helpers21order_chat_projection17merge_peer_fields
FNDA:0,_RNvNtNtNtCs3smmrQNj5EW_7mostrix2ui7helpers21order_chat_projection18merge_order_fields
FNDA:0,_RNvNtNtNtCs3smmrQNj5EW_7mostrix2ui7helpers21order_chat_projection19status_from_message
FNDA:0,_RNvNtNtNtCs3smmrQNj5EW_7mostrix2ui7helpers21order_chat_projection20sort_order_chat_rows
FNDA:0,_RNvNtNtNtCs3smmrQNj5EW_7mostrix2ui7helpers21order_chat_projection24merge_message_into_entry
FNDA:0,_RNvNtNtNtCs3smmrQNj5EW_7mostrix2ui7helpers21order_chat_projection28build_active_order_chat_list
FNDA:0,_RNvNtNtNtCs3smmrQNj5EW_7mostrix2ui7helpers21order_chat_projection33append_maker_book_rows_without_dm
FNDA:0,_RNvNtNtNtCs3smmrQNj5EW_7mostrix2ui7helpers21order_chat_projection35build_order_chat_list_from_messages
FNDA:0,_RINvNtNtNtCs1oYyZhp1ftr_7mostrix2ui7helpers21order_chat_projection31fatal_on_poisoned_messages_lockINtNtNtCscKkwsb9kWaL_3std4sync6poison11PoisonErrorINtNtB1C_5mutex10MutexGuardINtNtCscmSb185pVu_5alloc3vec3VecNtNtB6_6orders12OrderMessageEEEEB8_
FNDA:0,_RNCNvNtNtNtCs1oYyZhp1ftr_7mostrix2ui7helpers21order_chat_projection20sort_order_chat_rows0B9_
FNDA:0,_RNCNvNtNtNtCs1oYyZhp1ftr_7mostrix2ui7helpers21order_chat_projection33append_maker_book_rows_without_dm0B9_
FNDA:0,_RNCNvNtNtNtCs1oYyZhp1ftr_7mostrix2ui7helpers21order_chat_projection34order_chat_list_item_from_db_order0B9_
FNDA:0,_RNCNvNtNtNtCs1oYyZhp1ftr_7mostrix2ui7helpers21order_chat_projection35build_order_chat_list_from_messages0B9_
FNDA:0,_RNCNvNtNtNtCs1oYyZhp1ftr_7mostrix2ui7helpers21order_chat_projection35build_order_chat_list_from_messagess_0B9_
FNDA:0,_RNvNtNtNtCs1oYyZhp1ftr_7mostrix2ui7helpers21order_chat_projection17merge_peer_fields
FNDA:0,_RNvNtNtNtCs1oYyZhp1ftr_7mostrix2ui7helpers21order_chat_projection18merge_order_fields
FNDA:0,_RNvNtNtNtCs1oYyZhp1ftr_7mostrix2ui7helpers21order_chat_projection19status_from_message
FNDA:0,_RNvNtNtNtCs1oYyZhp1ftr_7mostrix2ui7helpers21order_chat_projection20sort_order_chat_rows
FNDA:0,_RNvNtNtNtCs1oYyZhp1ftr_7mostrix2ui7helpers21order_chat_projection24merge_message_into_entry
FNDA:0,_RNvNtNtNtCs1oYyZhp1ftr_7mostrix2ui7helpers21order_chat_projection26active_order_chat_list_len
FNDA:0,_RNvNtNtNtCs1oYyZhp1ftr_7mostrix2ui7helpers21order_chat_projection28build_active_order_chat_list
FNDA:0,_RNvNtNtNtCs1oYyZhp1ftr_7mostrix2ui7helpers21order_chat_projection31active_order_chat_list_snapshot
FNDA:0,_RNvNtNtNtCs1oYyZhp1ftr_7mostrix2ui7helpers21order_chat_projection33append_maker_book_rows_without_dm
FNDA:0,_RNvNtNtNtCs1oYyZhp1ftr_7mostrix2ui7helpers21order_chat_projection34order_chat_list_item_from_db_order
FNDA:0,_RNvNtNtNtCs1oYyZhp1ftr_7mostrix2ui7helpers21order_chat_projection35build_order_chat_list_from_messages
FNDA:0,_RINvNtNtNtCsbwworP4HFOr_7mostrix2ui7helpers21order_chat_projection31fatal_on_poisoned_messages_lockpEB8_
FNDA:0,_RNCNvNtNtNtCsbwworP4HFOr_7mostrix2ui7helpers21order_chat_projection34order_chat_list_item_from_db_order0B9_
FNDA:0,_RNvNtNtNtCsbwworP4HFOr_7mostrix2ui7helpers21order_chat_projection26active_order_chat_list_len
FNDA:0,_RNvNtNtNtCsbwworP4HFOr_7mostrix2ui7helpers21order_chat_projection31active_order_chat_list_snapshot
FNDA:0,_RNvNtNtNtCsbwworP4HFOr_7mostrix2ui7helpers21order_chat_projection34order_chat_list_item_from_db_order
FNDA:0,_RNCNvNtNtNtCsbwworP4HFOr_7mostrix2ui7helpers21order_chat_projection20sort_order_chat_rows0B9_
FNDA:0,_RNCNvNtNtNtCsbwworP4HFOr_7mostrix2ui7helpers21order_chat_projection33append_maker_book_rows_without_dm0B9_
FNDA:0,_RNCNvNtNtNtCsbwworP4HFOr_7mostrix2ui7helpers21order_chat_projection35build_order_chat_list_from_messages0B9_
FNDA:0,_RNCNvNtNtNtCsbwworP4HFOr_7mostrix2ui7helpers21order_chat_projection35build_order_chat_list_from_messagess_0B9_
FNDA:0,_RNvNtNtNtCsbwworP4HFOr_7mostrix2ui7helpers21order_chat_projection17merge_peer_fields
FNDA:0,_RNvNtNtNtCsbwworP4HFOr_7mostrix2ui7helpers21order_chat_projection18merge_order_fields
FNDA:0,_RNvNtNtNtCsbwworP4HFOr_7mostrix2ui7helpers21order_chat_projection19status_from_message
FNDA:0,_RNvNtNtNtCsbwworP4HFOr_7mostrix2ui7helpers21order_chat_projection20sort_order_chat_rows
FNDA:0,_RNvNtNtNtCsbwworP4HFOr_7mostrix2ui7helpers21order_chat_projection24merge_message_into_entry
FNDA:0,_RNvNtNtNtCsbwworP4HFOr_7mostrix2ui7helpers21order_chat_projection28build_active_order_chat_list
FNDA:0,_RNvNtNtNtCsbwworP4HFOr_7mostrix2ui7helpers21order_chat_projection33append_maker_book_rows_without_dm
FNDA:0,_RNvNtNtNtCsbwworP4HFOr_7mostrix2ui7helpers21order_chat_projection35build_order_chat_list_from_messages
FNF:17
FNH:0
DA:31,0
DA:32,0
DA:33,0
DA:34,0
DA:35,0
DA:36,0
DA:37,0
DA:38,0
DA:39,0
DA:40,0
DA:41,0
DA:42,0
DA:43,0
DA:44,0
DA:45,0
DA:46,0
DA:47,0
DA:48,0
DA:49,0
DA:50,0
DA:51,0
DA:52,0
DA:53,0
DA:54,0
DA:55,0
DA:56,0
DA:58,0
DA:59,0
DA:60,0
DA:61,0
DA:62,0
DA:63,0
DA:64,0
DA:65,0
DA:66,0
DA:67,0
DA:68,0
DA:69,0
DA:70,0
DA:71,0
DA:72,0
DA:74,0
DA:75,0
DA:76,0
DA:78,0
DA:79,0
DA:80,0
DA:81,0
DA:82,0
DA:83,0
DA:84,0
DA:86,0
DA:87,0
DA:88,0
DA:89,0
DA:90,0
DA:92,0
DA:93,0
DA:94,0
DA:95,0
DA:97,0
DA:99,0
DA:100,0
DA:101,0
DA:103,0
DA:104,0
DA:105,0
DA:106,0
DA:107,0
DA:109,0
DA:110,0
DA:111,0
DA:112,0
DA:113,0
DA:115,0
DA:116,0
DA:117,0
DA:118,0
DA:119,0
DA:121,0
DA:122,0
DA:123,0
DA:124,0
DA:125,0
DA:126,0
DA:127,0
DA:128,0
DA:129,0
DA:130,0
DA:131,0
DA:132,0
DA:133,0
DA:134,0
DA:135,0
DA:136,0
DA:137,0
DA:138,0
DA:139,0
DA:140,0
DA:141,0
DA:143,0
DA:144,0
DA:147,0
DA:148,0
DA:149,0
DA:150,0
DA:151,0
DA:152,0
DA:153,0
DA:154,0
DA:155,0
DA:156,0
DA:158,0
DA:167,0
DA:168,0
DA:169,0
DA:170,0
DA:171,0
DA:172,0
DA:173,0
DA:174,0
DA:175,0
DA:177,0
DA:178,0
DA:179,0
DA:181,0
DA:185,0
DA:186,0
DA:187,0
DA:188,0
DA:189,0
DA:190,0
DA:193,0
DA:197,0
DA:198,0
DA:199,0
DA:200,0
DA:201,0
DA:203,0
DA:204,0
DA:205,0
DA:208,0
BRF:0
BRH:0
LF:147
LH:0
end_of_record
SF:/home/runner/work/mostrix/mostrix/src/ui/helpers/startup.rs
FN:523,_RNCNCNCNvNtNtNtCsaruqlPBEY0K_7mostrix2ui7helpers7startup24apply_admin_chat_updates0s0_00Bd_
FN:527,_RNCNCNCNvNtNtNtCsaruqlPBEY0K_7mostrix2ui7helpers7startup24apply_admin_chat_updates0s0_0s_0Bd_
FN:581,_RNCNCNCNvNtNtNtCsaruqlPBEY0K_7mostrix2ui7helpers7startup24apply_admin_chat_updates0s2_00Bd_
FN:148,_RNCNCNvNtNtNtCsaruqlPBEY0K_7mostrix2ui7helpers7startup19track_startup_chats00Bb_
FN:173,_RNCNCNvNtNtNtCsaruqlPBEY0K_7mostrix2ui7helpers7startup19track_startup_chats0s1_0Bb_
FN:155,_RNCNCNvNtNtNtCsaruqlPBEY0K_7mostrix2ui7helpers7startup19track_startup_chats0s_0Bb_
FN:519,_RNCNCNvNtNtNtCsaruqlPBEY0K_7mostrix2ui7helpers7startup24apply_admin_chat_updates0s0_0Bb_
FN:550,_RNCNCNvNtNtNtCsaruqlPBEY0K_7mostrix2ui7helpers7startup24apply_admin_chat_updates0s1_0Bb_
FN:571,_RNCNCNvNtNtNtCsaruqlPBEY0K_7mostrix2ui7helpers7startup24apply_admin_chat_updates0s2_0Bb_
FN:603,_RNCNCNvNtNtNtCsaruqlPBEY0K_7mostrix2ui7helpers7startup24apply_admin_chat_updates0s3_0Bb_
FN:627,_RNCNCNvNtNtNtCsaruqlPBEY0K_7mostrix2ui7helpers7startup24apply_admin_chat_updates0s4_0Bb_
FN:518,_RNCNCNvNtNtNtCsaruqlPBEY0K_7mostrix2ui7helpers7startup24apply_admin_chat_updates0s_0Bb_
FN:360,_RNCNCNvNtNtNtCsaruqlPBEY0K_7mostrix2ui7helpers7startup40sync_user_order_history_messages_from_db00Bb_
FN:367,_RNCNCNvNtNtNtCsaruqlPBEY0K_7mostrix2ui7helpers7startup40sync_user_order_history_messages_from_db0s0_0Bb_
FN:370,_RNCNCNvNtNtNtCsaruqlPBEY0K_7mostrix2ui7helpers7startup40sync_user_order_history_messages_from_db0s1_0Bb_
FN:362,_RNCNCNvNtNtNtCsaruqlPBEY0K_7mostrix2ui7helpers7startup40sync_user_order_history_messages_from_db0s_0Bb_
FN:138,_RNCNvNtNtNtCsaruqlPBEY0K_7mostrix2ui7helpers7startup19track_startup_chats0B9_
FN:490,_RNCNvNtNtNtCsaruqlPBEY0K_7mostrix2ui7helpers7startup24apply_admin_chat_updates0B9_
FN:105,_RNCNvNtNtNtCsaruqlPBEY0K_7mostrix2ui7helpers7startup30load_admin_disputes_at_startup0B9_
FN:200,_RNCNvNtNtNtCsaruqlPBEY0K_7mostrix2ui7helpers7startup32load_user_order_chats_at_startup0B9_
FN:227,_RNCNvNtNtNtCsaruqlPBEY0K_7mostrix2ui7helpers7startup34refresh_my_trades_maker_book_cache0B9_
FN:339,_RNCNvNtNtNtCsaruqlPBEY0K_7mostrix2ui7helpers7startup40sync_user_order_history_messages_from_db0B9_
FN:441,_RNCNCNvNtNtNtCsaruqlPBEY0K_7mostrix2ui7helpers7startup29apply_user_order_chat_updatess0_00Bb_
FN:88,_RNCNvNtNtNtCsaruqlPBEY0K_7mostrix2ui7helpers7startup26update_last_seen_timestamp0B9_
FN:97,_RNCNvNtNtNtCsaruqlPBEY0K_7mostrix2ui7helpers7startup26update_last_seen_timestamps_0B9_
FN:251,_RNCNvNtNtNtCsaruqlPBEY0K_7mostrix2ui7helpers7startup27db_order_to_history_message0B9_
FN:287,_RNCNvNtNtNtCsaruqlPBEY0K_7mostrix2ui7helpers7startup27db_order_to_history_messages0_0B9_
FN:301,_RNCNvNtNtNtCsaruqlPBEY0K_7mostrix2ui7helpers7startup27db_order_to_history_messages1_0B9_
FN:255,_RNCNvNtNtNtCsaruqlPBEY0K_7mostrix2ui7helpers7startup27db_order_to_history_messages_0B9_
FN:431,_RNCNvNtNtNtCsaruqlPBEY0K_7mostrix2ui7helpers7startup29apply_user_order_chat_updatess0_0B9_
FN:410,_RNCNvNtNtNtCsaruqlPBEY0K_7mostrix2ui7helpers7startup29apply_user_order_chat_updatess_0B9_
FN:66,_RNCNvNtNtNtCsaruqlPBEY0K_7mostrix2ui7helpers7startup29recover_admin_chat_from_files0B9_
FN:325,_RNCNvNtNtNtCsaruqlPBEY0K_7mostrix2ui7helpers7startup31order_chat_static_from_db_order0B9_
FN:138,_RNvNtNtNtCsaruqlPBEY0K_7mostrix2ui7helpers7startup19track_startup_chats
FN:485,_RNvNtNtNtCsaruqlPBEY0K_7mostrix2ui7helpers7startup24apply_admin_chat_updates
FN:79,_RNvNtNtNtCsaruqlPBEY0K_7mostrix2ui7helpers7startup26update_last_seen_timestamp
FN:244,_RNvNtNtNtCsaruqlPBEY0K_7mostrix2ui7helpers7startup27db_order_to_history_message
FN:386,_RNvNtNtNtCsaruqlPBEY0K_7mostrix2ui7helpers7startup29apply_user_order_chat_updates
FN:57,_RNvNtNtNtCsaruqlPBEY0K_7mostrix2ui7helpers7startup29recover_admin_chat_from_files
FN:49,_RNvNtNtNtCsaruqlPBEY0K_7mostrix2ui7helpers7startup30admin_chat_keys_clone_for_role
FN:105,_RNvNtNtNtCsaruqlPBEY0K_7mostrix2ui7helpers7startup30load_admin_disputes_at_startup
FN:319,_RNvNtNtNtCsaruqlPBEY0K_7mostrix2ui7helpers7startup31order_chat_static_from_db_order
FN:200,_RNvNtNtNtCsaruqlPBEY0K_7mostrix2ui7helpers7startup32load_user_order_chats_at_startup
FN:227,_RNvNtNtNtCsaruqlPBEY0K_7mostrix2ui7helpers7startup34refresh_my_trades_maker_book_cache
FN:33,_RNvNtNtNtCsaruqlPBEY0K_7mostrix2ui7helpers7startup35hydrate_app_admin_keys_from_privkey
FN:339,_RNvNtNtNtCsaruqlPBEY0K_7mostrix2ui7helpers7startup40sync_user_order_history_messages_from_db
FN:523,_RNCNCNCNvNtNtNtCs3smmrQNj5EW_7mostrix2ui7helpers7startup24apply_admin_chat_updates0s0_00Bd_
FN:527,_RNCNCNCNvNtNtNtCs3smmrQNj5EW_7mostrix2ui7helpers7startup24apply_admin_chat_updates0s0_0s_0Bd_
FN:581,_RNCNCNCNvNtNtNtCs3smmrQNj5EW_7mostrix2ui7helpers7startup24apply_admin_chat_updates0s2_00Bd_
FN:148,_RNCNCNvNtNtNtCs3smmrQNj5EW_7mostrix2ui7helpers7startup19track_startup_chats00Bb_
FN:173,_RNCNCNvNtNtNtCs3smmrQNj5EW_7mostrix2ui7helpers7startup19track_startup_chats0s1_0Bb_
FN:155,_RNCNCNvNtNtNtCs3smmrQNj5EW_7mostrix2ui7helpers7startup19track_startup_chats0s_0Bb_
FN:519,_RNCNCNvNtNtNtCs3smmrQNj5EW_7mostrix2ui7helpers7startup24apply_admin_chat_updates0s0_0Bb_
FN:550,_RNCNCNvNtNtNtCs3smmrQNj5EW_7mostrix2ui7helpers7startup24apply_admin_chat_updates0s1_0Bb_
FN:571,_RNCNCNvNtNtNtCs3smmrQNj5EW_7mostrix2ui7helpers7startup24apply_admin_chat_updates0s2_0Bb_
FN:603,_RNCNCNvNtNtNtCs3smmrQNj5EW_7mostrix2ui7helpers7startup24apply_admin_chat_updates0s3_0Bb_
FN:627,_RNCNCNvNtNtNtCs3smmrQNj5EW_7mostrix2ui7helpers7startup24apply_admin_chat_updates0s4_0Bb_
FN:518,_RNCNCNvNtNtNtCs3smmrQNj5EW_7mostrix2ui7helpers7startup24apply_admin_chat_updates0s_0Bb_
FN:441,_RNCNCNvNtNtNtCs3smmrQNj5EW_7mostrix2ui7helpers7startup29apply_user_order_chat_updatess0_00Bb_
FN:360,_RNCNCNvNtNtNtCs3smmrQNj5EW_7mostrix2ui7helpers7startup40sync_user_order_history_messages_from_db00Bb_
FN:367,_RNCNCNvNtNtNtCs3smmrQNj5EW_7mostrix2ui7helpers7startup40sync_user_order_history_messages_from_db0s0_0Bb_
FN:370,_RNCNCNvNtNtNtCs3smmrQNj5EW_7mostrix2ui7helpers7startup40sync_user_order_history_messages_from_db0s1_0Bb_
FN:362,_RNCNCNvNtNtNtCs3smmrQNj5EW_7mostrix2ui7helpers7startup40sync_user_order_history_messages_from_db0s_0Bb_
FN:138,_RNCNvNtNtNtCs3smmrQNj5EW_7mostrix2ui7helpers7startup19track_startup_chats0B9_
FN:490,_RNCNvNtNtNtCs3smmrQNj5EW_7mostrix2ui7helpers7startup24apply_admin_chat_updates0B9_
FN:88,_RNCNvNtNtNtCs3smmrQNj5EW_7mostrix2ui7helpers7startup26update_last_seen_timestamp0B9_
FN:97,_RNCNvNtNtNtCs3smmrQNj5EW_7mostrix2ui7helpers7startup26update_last_seen_timestamps_0B9_
FN:251,_RNCNvNtNtNtCs3smmrQNj5EW_7mostrix2ui7helpers7startup27db_order_to_history_message0B9_
FN:287,_RNCNvNtNtNtCs3smmrQNj5EW_7mostrix2ui7helpers7startup27db_order_to_history_messages0_0B9_
FN:301,_RNCNvNtNtNtCs3smmrQNj5EW_7mostrix2ui7helpers7startup27db_order_to_history_messages1_0B9_
FN:255,_RNCNvNtNtNtCs3smmrQNj5EW_7mostrix2ui7helpers7startup27db_order_to_history_messages_0B9_
FN:431,_RNCNvNtNtNtCs3smmrQNj5EW_7mostrix2ui7helpers7startup29apply_user_order_chat_updatess0_0B9_
FN:410,_RNCNvNtNtNtCs3smmrQNj5EW_7mostrix2ui7helpers7startup29apply_user_order_chat_updatess_0B9_
FN:66,_RNCNvNtNtNtCs3smmrQNj5EW_7mostrix2ui7helpers7startup29recover_admin_chat_from_files0B9_
FN:105,_RNCNvNtNtNtCs3smmrQNj5EW_7mostrix2ui7helpers7startup30load_admin_disputes_at_startup0B9_
FN:325,_RNCNvNtNtNtCs3smmrQNj5EW_7mostrix2ui7helpers7startup31order_chat_static_from_db_order0B9_
FN:200,_RNCNvNtNtNtCs3smmrQNj5EW_7mostrix2ui7helpers7startup32load_user_order_chats_at_startup0B9_
FN:227,_RNCNvNtNtNtCs3smmrQNj5EW_7mostrix2ui7helpers7startup34refresh_my_trades_maker_book_cache0B9_
FN:339,_RNCNvNtNtNtCs3smmrQNj5EW_7mostrix2ui7helpers7startup40sync_user_order_history_messages_from_db0B9_
FN:138,_RNvNtNtNtCs3smmrQNj5EW_7mostrix2ui7helpers7startup19track_startup_chats
FN:485,_RNvNtNtNtCs3smmrQNj5EW_7mostrix2ui7helpers7startup24apply_admin_chat_updates
FN:79,_RNvNtNtNtCs3smmrQNj5EW_7mostrix2ui7helpers7startup26update_last_seen_timestamp
FN:244,_RNvNtNtNtCs3smmrQNj5EW_7mostrix2ui7helpers7startup27db_order_to_history_message
FN:386,_RNvNtNtNtCs3smmrQNj5EW_7mostrix2ui7helpers7startup29apply_user_order_chat_updates
FN:57,_RNvNtNtNtCs3smmrQNj5EW_7mostrix2ui7helpers7startup29recover_admin_chat_from_files
FN:49,_RNvNtNtNtCs3smmrQNj5EW_7mostrix2ui7helpers7startup30admin_chat_keys_clone_for_role
FN:105,_RNvNtNtNtCs3smmrQNj5EW_7mostrix2ui7helpers7startup30load_admin_disputes_at_startup
FN:319,_RNvNtNtNtCs3smmrQNj5EW_7mostrix2ui7helpers7startup31order_chat_static_from_db_order
FN:200,_RNvNtNtNtCs3smmrQNj5EW_7mostrix2ui7helpers7startup32load_user_order_chats_at_startup
FN:227,_RNvNtNtNtCs3smmrQNj5EW_7mostrix2ui7helpers7startup34refresh_my_trades_maker_book_cache
FN:33,_RNvNtNtNtCs3smmrQNj5EW_7mostrix2ui7helpers7startup35hydrate_app_admin_keys_from_privkey
FN:339,_RNvNtNtNtCs3smmrQNj5EW_7mostrix2ui7helpers7startup40sync_user_order_history_messages_from_db
FN:523,_RNCNCNCNvNtNtNtCs1oYyZhp1ftr_7mostrix2ui7helpers7startup24apply_admin_chat_updates0s0_00Bd_
FN:527,_RNCNCNCNvNtNtNtCs1oYyZhp1ftr_7mostrix2ui7helpers7startup24apply_admin_chat_updates0s0_0s_0Bd_
FN:581,_RNCNCNCNvNtNtNtCs1oYyZhp1ftr_7mostrix2ui7helpers7startup24apply_admin_chat_updates0s2_00Bd_
FN:148,_RNCNCNvNtNtNtCs1oYyZhp1ftr_7mostrix2ui7helpers7startup19track_startup_chats00Bb_
FN:173,_RNCNCNvNtNtNtCs1oYyZhp1ftr_7mostrix2ui7helpers7startup19track_startup_chats0s1_0Bb_
FN:155,_RNCNCNvNtNtNtCs1oYyZhp1ftr_7mostrix2ui7helpers7startup19track_startup_chats0s_0Bb_
FN:519,_RNCNCNvNtNtNtCs1oYyZhp1ftr_7mostrix2ui7helpers7startup24apply_admin_chat_updates0s0_0Bb_
FN:550,_RNCNCNvNtNtNtCs1oYyZhp1ftr_7mostrix2ui7helpers7startup24apply_admin_chat_updates0s1_0Bb_
FN:571,_RNCNCNvNtNtNtCs1oYyZhp1ftr_7mostrix2ui7helpers7startup24apply_admin_chat_updates0s2_0Bb_
FN:603,_RNCNCNvNtNtNtCs1oYyZhp1ftr_7mostrix2ui7helpers7startup24apply_admin_chat_updates0s3_0Bb_
FN:627,_RNCNCNvNtNtNtCs1oYyZhp1ftr_7mostrix2ui7helpers7startup24apply_admin_chat_updates0s4_0Bb_
FN:518,_RNCNCNvNtNtNtCs1oYyZhp1ftr_7mostrix2ui7helpers7startup24apply_admin_chat_updates0s_0Bb_
FN:441,_RNCNCNvNtNtNtCs1oYyZhp1ftr_7mostrix2ui7helpers7startup29apply_user_order_chat_updatess0_00Bb_
FN:360,_RNCNCNvNtNtNtCs1oYyZhp1ftr_7mostrix2ui7helpers7startup40sync_user_order_history_messages_from_db00Bb_
FN:367,_RNCNCNvNtNtNtCs1oYyZhp1ftr_7mostrix2ui7helpers7startup40sync_user_order_history_messages_from_db0s0_0Bb_
FN:370,_RNCNCNvNtNtNtCs1oYyZhp1ftr_7mostrix2ui7helpers7startup40sync_user_order_history_messages_from_db0s1_0Bb_
FN:362,_RNCNCNvNtNtNtCs1oYyZhp1ftr_7mostrix2ui7helpers7startup40sync_user_order_history_messages_from_db0s_0Bb_
FN:138,_RNCNvNtNtNtCs1oYyZhp1ftr_7mostrix2ui7helpers7startup19track_startup_chats0B9_
FN:490,_RNCNvNtNtNtCs1oYyZhp1ftr_7mostrix2ui7helpers7startup24apply_admin_chat_updates0B9_
FN:88,_RNCNvNtNtNtCs1oYyZhp1ftr_7mostrix2ui7helpers7startup26update_last_seen_timestamp0B9_
FN:97,_RNCNvNtNtNtCs1oYyZhp1ftr_7mostrix2ui7helpers7startup26update_last_seen_timestamps_0B9_
FN:251,_RNCNvNtNtNtCs1oYyZhp1ftr_7mostrix2ui7helpers7startup27db_order_to_history_message0B9_
FN:287,_RNCNvNtNtNtCs1oYyZhp1ftr_7mostrix2ui7helpers7startup27db_order_to_history_messages0_0B9_
FN:301,_RNCNvNtNtNtCs1oYyZhp1ftr_7mostrix2ui7helpers7startup27db_order_to_history_messages1_0B9_
FN:255,_RNCNvNtNtNtCs1oYyZhp1ftr_7mostrix2ui7helpers7startup27db_order_to_history_messages_0B9_
FN:431,_RNCNvNtNtNtCs1oYyZhp1ftr_7mostrix2ui7helpers7startup29apply_user_order_chat_updatess0_0B9_
FN:410,_RNCNvNtNtNtCs1oYyZhp1ftr_7mostrix2ui7helpers7startup29apply_user_order_chat_updatess_0B9_
FN:66,_RNCNvNtNtNtCs1oYyZhp1ftr_7mostrix2ui7helpers7startup29recover_admin_chat_from_files0B9_
FN:105,_RNCNvNtNtNtCs1oYyZhp1ftr_7mostrix2ui7helpers7startup30load_admin_disputes_at_startup0B9_
FN:325,_RNCNvNtNtNtCs1oYyZhp1ftr_7mostrix2ui7helpers7startup31order_chat_static_from_db_order0B9_
FN:200,_RNCNvNtNtNtCs1oYyZhp1ftr_7mostrix2ui7helpers7startup32load_user_order_chats_at_startup0B9_
FN:227,_RNCNvNtNtNtCs1oYyZhp1ftr_7mostrix2ui7helpers7startup34refresh_my_trades_maker_book_cache0B9_
FN:339,_RNCNvNtNtNtCs1oYyZhp1ftr_7mostrix2ui7helpers7startup40sync_user_order_history_messages_from_db0B9_
FN:138,_RNvNtNtNtCs1oYyZhp1ftr_7mostrix2ui7helpers7startup19track_startup_chats
FN:485,_RNvNtNtNtCs1oYyZhp1ftr_7mostrix2ui7helpers7startup24apply_admin_chat_updates
FN:79,_RNvNtNtNtCs1oYyZhp1ftr_7mostrix2ui7helpers7startup26update_last_seen_timestamp
FN:244,_RNvNtNtNtCs1oYyZhp1ftr_7mostrix2ui7helpers7startup27db_order_to_history_message
FN:386,_RNvNtNtNtCs1oYyZhp1ftr_7mostrix2ui7helpers7startup29apply_user_order_chat_updates
FN:57,_RNvNtNtNtCs1oYyZhp1ftr_7mostrix2ui7helpers7startup29recover_admin_chat_from_files
FN:49,_RNvNtNtNtCs1oYyZhp1ftr_7mostrix2ui7helpers7startup30admin_chat_keys_clone_for_role
FN:105,_RNvNtNtNtCs1oYyZhp1ftr_7mostrix2ui7helpers7startup30load_admin_disputes_at_startup
FN:319,_RNvNtNtNtCs1oYyZhp1ftr_7mostrix2ui7helpers7startup31order_chat_static_from_db_order
FN:200,_RNvNtNtNtCs1oYyZhp1ftr_7mostrix2ui7helpers7startup32load_user_order_chats_at_startup
FN:227,_RNvNtNtNtCs1oYyZhp1ftr_7mostrix2ui7helpers7startup34refresh_my_trades_maker_book_cache
FN:33,_RNvNtNtNtCs1oYyZhp1ftr_7mostrix2ui7helpers7startup35hydrate_app_admin_keys_from_privkey
FN:339,_RNvNtNtNtCs1oYyZhp1ftr_7mostrix2ui7helpers7startup40sync_user_order_history_messages_from_db
FN:523,_RNCNCNCNvNtNtNtCsbwworP4HFOr_7mostrix2ui7helpers7startup24apply_admin_chat_updates0s0_00Bd_
FN:527,_RNCNCNCNvNtNtNtCsbwworP4HFOr_7mostrix2ui7helpers7startup24apply_admin_chat_updates0s0_0s_0Bd_
FN:581,_RNCNCNCNvNtNtNtCsbwworP4HFOr_7mostrix2ui7helpers7startup24apply_admin_chat_updates0s2_00Bd_
FN:148,_RNCNCNvNtNtNtCsbwworP4HFOr_7mostrix2ui7helpers7startup19track_startup_chats00Bb_
FN:173,_RNCNCNvNtNtNtCsbwworP4HFOr_7mostrix2ui7helpers7startup19track_startup_chats0s1_0Bb_
FN:155,_RNCNCNvNtNtNtCsbwworP4HFOr_7mostrix2ui7helpers7startup19track_startup_chats0s_0Bb_
FN:519,_RNCNCNvNtNtNtCsbwworP4HFOr_7mostrix2ui7helpers7startup24apply_admin_chat_updates0s0_0Bb_
FN:550,_RNCNCNvNtNtNtCsbwworP4HFOr_7mostrix2ui7helpers7startup24apply_admin_chat_updates0s1_0Bb_
FN:571,_RNCNCNvNtNtNtCsbwworP4HFOr_7mostrix2ui7helpers7startup24apply_admin_chat_updates0s2_0Bb_
FN:603,_RNCNCNvNtNtNtCsbwworP4HFOr_7mostrix2ui7helpers7startup24apply_admin_chat_updates0s3_0Bb_
FN:627,_RNCNCNvNtNtNtCsbwworP4HFOr_7mostrix2ui7helpers7startup24apply_admin_chat_updates0s4_0Bb_
FN:518,_RNCNCNvNtNtNtCsbwworP4HFOr_7mostrix2ui7helpers7startup24apply_admin_chat_updates0s_0Bb_
FN:441,_RNCNCNvNtNtNtCsbwworP4HFOr_7mostrix2ui7helpers7startup29apply_user_order_chat_updatess0_00Bb_
FN:360,_RNCNCNvNtNtNtCsbwworP4HFOr_7mostrix2ui7helpers7startup40sync_user_order_history_messages_from_db00Bb_
FN:367,_RNCNCNvNtNtNtCsbwworP4HFOr_7mostrix2ui7helpers7startup40sync_user_order_history_messages_from_db0s0_0Bb_
FN:370,_RNCNCNvNtNtNtCsbwworP4HFOr_7mostrix2ui7helpers7startup40sync_user_order_history_messages_from_db0s1_0Bb_
FN:362,_RNCNCNvNtNtNtCsbwworP4HFOr_7mostrix2ui7helpers7startup40sync_user_order_history_messages_from_db0s_0Bb_
FN:138,_RNCNvNtNtNtCsbwworP4HFOr_7mostrix2ui7helpers7startup19track_startup_chats0B9_
FN:490,_RNCNvNtNtNtCsbwworP4HFOr_7mostrix2ui7helpers7startup24apply_admin_chat_updates0B9_
FN:88,_RNCNvNtNtNtCsbwworP4HFOr_7mostrix2ui7helpers7startup26update_last_seen_timestamp0B9_
FN:97,_RNCNvNtNtNtCsbwworP4HFOr_7mostrix2ui7helpers7startup26update_last_seen_timestamps_0B9_
FN:251,_RNCNvNtNtNtCsbwworP4HFOr_7mostrix2ui7helpers7startup27db_order_to_history_message0B9_
FN:287,_RNCNvNtNtNtCsbwworP4HFOr_7mostrix2ui7helpers7startup27db_order_to_history_messages0_0B9_
FN:301,_RNCNvNtNtNtCsbwworP4HFOr_7mostrix2ui7helpers7startup27db_order_to_history_messages1_0B9_
FN:255,_RNCNvNtNtNtCsbwworP4HFOr_7mostrix2ui7helpers7startup27db_order_to_history_messages_0B9_
FN:431,_RNCNvNtNtNtCsbwworP4HFOr_7mostrix2ui7helpers7startup29apply_user_order_chat_updatess0_0B9_
FN:410,_RNCNvNtNtNtCsbwworP4HFOr_7mostrix2ui7helpers7startup29apply_user_order_chat_updatess_0B9_
FN:66,_RNCNvNtNtNtCsbwworP4HFOr_7mostrix2ui7helpers7startup29recover_admin_chat_from_files0B9_
FN:105,_RNCNvNtNtNtCsbwworP4HFOr_7mostrix2ui7helpers7startup30load_admin_disputes_at_startup0B9_
FN:325,_RNCNvNtNtNtCsbwworP4HFOr_7mostrix2ui7helpers7startup31order_chat_static_from_db_order0B9_
FN:200,_RNCNvNtNtNtCsbwworP4HFOr_7mostrix2ui7helpers7startup32load_user_order_chats_at_startup0B9_
FN:227,_RNCNvNtNtNtCsbwworP4HFOr_7mostrix2ui7helpers7startup34refresh_my_trades_maker_book_cache0B9_
FN:339,_RNCNvNtNtNtCsbwworP4HFOr_7mostrix2ui7helpers7startup40sync_user_order_history_messages_from_db0B9_
FN:138,_RNvNtNtNtCsbwworP4HFOr_7mostrix2ui7helpers7startup19track_startup_chats
FN:485,_RNvNtNtNtCsbwworP4HFOr_7mostrix2ui7helpers7startup24apply_admin_chat_updates
FN:79,_RNvNtNtNtCsbwworP4HFOr_7mostrix2ui7helpers7startup26update_last_seen_timestamp
FN:244,_RNvNtNtNtCsbwworP4HFOr_7mostrix2ui7helpers7startup27db_order_to_history_message
FN:386,_RNvNtNtNtCsbwworP4HFOr_7mostrix2ui7helpers7startup29apply_user_order_chat_updates
FN:57,_RNvNtNtNtCsbwworP4HFOr_7mostrix2ui7helpers7startup29recover_admin_chat_from_files
FN:49,_RNvNtNtNtCsbwworP4HFOr_7mostrix2ui7helpers7startup30admin_chat_keys_clone_for_role
FN:105,_RNvNtNtNtCsbwworP4HFOr_7mostrix2ui7helpers7startup30load_admin_disputes_at_startup
FN:319,_RNvNtNtNtCsbwworP4HFOr_7mostrix2ui7helpers7startup31order_chat_static_from_db_order
FN:200,_RNvNtNtNtCsbwworP4HFOr_7mostrix2ui7helpers7startup32load_user_order_chats_at_startup
FN:227,_RNvNtNtNtCsbwworP4HFOr_7mostrix2ui7helpers7startup34refresh_my_trades_maker_book_cache
FN:33,_RNvNtNtNtCsbwworP4HFOr_7mostrix2ui7helpers7startup35hydrate_app_admin_keys_from_privkey
FN:339,_RNvNtNtNtCsbwworP4HFOr_7mostrix2ui7helpers7startup40sync_user_order_history_messages_from_db
FNDA:0,_RNCNCNCNvNtNtNtCsaruqlPBEY0K_7mostrix2ui7helpers7startup24apply_admin_chat_updates0s0_00Bd_
FNDA:0,_RNCNCNCNvNtNtNtCsaruqlPBEY0K_7mostrix2ui7helpers7startup24apply_admin_chat_updates0s0_0s_0Bd_
FNDA:0,_RNCNCNCNvNtNtNtCsaruqlPBEY0K_7mostrix2ui7helpers7startup24apply_admin_chat_updates0s2_00Bd_
FNDA:0,_RNCNCNvNtNtNtCsaruqlPBEY0K_7mostrix2ui7helpers7startup19track_startup_chats00Bb_
FNDA:0,_RNCNCNvNtNtNtCsaruqlPBEY0K_7mostrix2ui7helpers7startup19track_startup_chats0s1_0Bb_
FNDA:0,_RNCNCNvNtNtNtCsaruqlPBEY0K_7mostrix2ui7helpers7startup19track_startup_chats0s_0Bb_
FNDA:0,_RNCNCNvNtNtNtCsaruqlPBEY0K_7mostrix2ui7helpers7startup24apply_admin_chat_updates0s0_0Bb_
FNDA:0,_RNCNCNvNtNtNtCsaruqlPBEY0K_7mostrix2ui7helpers7startup24apply_admin_chat_updates0s1_0Bb_
FNDA:0,_RNCNCNvNtNtNtCsaruqlPBEY0K_7mostrix2ui7helpers7startup24apply_admin_chat_updates0s2_0Bb_
FNDA:0,_RNCNCNvNtNtNtCsaruqlPBEY0K_7mostrix2ui7helpers7startup24apply_admin_chat_updates0s3_0Bb_
FNDA:0,_RNCNCNvNtNtNtCsaruqlPBEY0K_7mostrix2ui7helpers7startup24apply_admin_chat_updates0s4_0Bb_
FNDA:0,_RNCNCNvNtNtNtCsaruqlPBEY0K_7mostrix2ui7helpers7startup24apply_admin_chat_updates0s_0Bb_
FNDA:0,_RNCNCNvNtNtNtCsaruqlPBEY0K_7mostrix2ui7helpers7startup40sync_user_order_history_messages_from_db00Bb_
FNDA:0,_RNCNCNvNtNtNtCsaruqlPBEY0K_7mostrix2ui7helpers7startup40sync_user_order_history_messages_from_db0s0_0Bb_
FNDA:0,_RNCNCNvNtNtNtCsaruqlPBEY0K_7mostrix2ui7helpers7startup40sync_user_order_history_messages_from_db0s1_0Bb_
FNDA:0,_RNCNCNvNtNtNtCsaruqlPBEY0K_7mostrix2ui7helpers7startup40sync_user_order_history_messages_from_db0s_0Bb_
FNDA:0,_RNCNvNtNtNtCsaruqlPBEY0K_7mostrix2ui7helpers7startup19track_startup_chats0B9_
FNDA:0,_RNCNvNtNtNtCsaruqlPBEY0K_7mostrix2ui7helpers7startup24apply_admin_chat_updates0B9_
FNDA:0,_RNCNvNtNtNtCsaruqlPBEY0K_7mostrix2ui7helpers7startup30load_admin_disputes_at_startup0B9_
FNDA:0,_RNCNvNtNtNtCsaruqlPBEY0K_7mostrix2ui7helpers7startup32load_user_order_chats_at_startup0B9_
FNDA:0,_RNCNvNtNtNtCsaruqlPBEY0K_7mostrix2ui7helpers7startup34refresh_my_trades_maker_book_cache0B9_
FNDA:0,_RNCNvNtNtNtCsaruqlPBEY0K_7mostrix2ui7helpers7startup40sync_user_order_history_messages_from_db0B9_
FNDA:0,_RNCNCNvNtNtNtCsaruqlPBEY0K_7mostrix2ui7helpers7startup29apply_user_order_chat_updatess0_00Bb_
FNDA:0,_RNCNvNtNtNtCsaruqlPBEY0K_7mostrix2ui7helpers7startup26update_last_seen_timestamp0B9_
FNDA:0,_RNCNvNtNtNtCsaruqlPBEY0K_7mostrix2ui7helpers7startup26update_last_seen_timestamps_0B9_
FNDA:0,_RNCNvNtNtNtCsaruqlPBEY0K_7mostrix2ui7helpers7startup27db_order_to_history_message0B9_
FNDA:0,_RNCNvNtNtNtCsaruqlPBEY0K_7mostrix2ui7helpers7startup27db_order_to_history_messages0_0B9_
FNDA:0,_RNCNvNtNtNtCsaruqlPBEY0K_7mostrix2ui7helpers7startup27db_order_to_history_messages1_0B9_
FNDA:0,_RNCNvNtNtNtCsaruqlPBEY0K_7mostrix2ui7helpers7startup27db_order_to_history_messages_0B9_
FNDA:0,_RNCNvNtNtNtCsaruqlPBEY0K_7mostrix2ui7helpers7startup29apply_user_order_chat_updatess0_0B9_
FNDA:0,_RNCNvNtNtNtCsaruqlPBEY0K_7mostrix2ui7helpers7startup29apply_user_order_chat_updatess_0B9_
FNDA:0,_RNCNvNtNtNtCsaruqlPBEY0K_7mostrix2ui7helpers7startup29recover_admin_chat_from_files0B9_
FNDA:0,_RNCNvNtNtNtCsaruqlPBEY0K_7mostrix2ui7helpers7startup31order_chat_static_from_db_order0B9_
FNDA:0,_RNvNtNtNtCsaruqlPBEY0K_7mostrix2ui7helpers7startup19track_startup_chats
FNDA:0,_RNvNtNtNtCsaruqlPBEY0K_7mostrix2ui7helpers7startup24apply_admin_chat_updates
FNDA:0,_RNvNtNtNtCsaruqlPBEY0K_7mostrix2ui7helpers7startup26update_last_seen_timestamp
FNDA:0,_RNvNtNtNtCsaruqlPBEY0K_7mostrix2ui7helpers7startup27db_order_to_history_message
FNDA:0,_RNvNtNtNtCsaruqlPBEY0K_7mostrix2ui7helpers7startup29apply_user_order_chat_updates
FNDA:0,_RNvNtNtNtCsaruqlPBEY0K_7mostrix2ui7helpers7startup29recover_admin_chat_from_files
FNDA:0,_RNvNtNtNtCsaruqlPBEY0K_7mostrix2ui7helpers7startup30admin_chat_keys_clone_for_role
FNDA:0,_RNvNtNtNtCsaruqlPBEY0K_7mostrix2ui7helpers7startup30load_admin_disputes_at_startup
FNDA:0,_RNvNtNtNtCsaruqlPBEY0K_7mostrix2ui7helpers7startup31order_chat_static_from_db_order
FNDA:0,_RNvNtNtNtCsaruqlPBEY0K_7mostrix2ui7helpers7startup32load_user_order_chats_at_startup
FNDA:0,_RNvNtNtNtCsaruqlPBEY0K_7mostrix2ui7helpers7startup34refresh_my_trades_maker_book_cache
FNDA:0,_RNvNtNtNtCsaruqlPBEY0K_7mostrix2ui7helpers7startup35hydrate_app_admin_keys_from_privkey
FNDA:0,_RNvNtNtNtCsaruqlPBEY0K_7mostrix2ui7helpers7startup40sync_user_order_history_messages_from_db
FNDA:0,_RNCNCNCNvNtNtNtCs3smmrQNj5EW_7mostrix2ui7helpers7startup24apply_admin_chat_updates0s0_00Bd_
FNDA:0,_RNCNCNCNvNtNtNtCs3smmrQNj5EW_7mostrix2ui7helpers7startup24apply_admin_chat_updates0s0_0s_0Bd_
FNDA:0,_RNCNCNCNvNtNtNtCs3smmrQNj5EW_7mostrix2ui7helpers7startup24apply_admin_chat_updates0s2_00Bd_
FNDA:0,_RNCNCNvNtNtNtCs3smmrQNj5EW_7mostrix2ui7helpers7startup19track_startup_chats00Bb_
FNDA:0,_RNCNCNvNtNtNtCs3smmrQNj5EW_7mostrix2ui7helpers7startup19track_startup_chats0s1_0Bb_
FNDA:0,_RNCNCNvNtNtNtCs3smmrQNj5EW_7mostrix2ui7helpers7startup19track_startup_chats0s_0Bb_
FNDA:0,_RNCNCNvNtNtNtCs3smmrQNj5EW_7mostrix2ui7helpers7startup24apply_admin_chat_updates0s0_0Bb_
FNDA:0,_RNCNCNvNtNtNtCs3smmrQNj5EW_7mostrix2ui7helpers7startup24apply_admin_chat_updates0s1_0Bb_
FNDA:0,_RNCNCNvNtNtNtCs3smmrQNj5EW_7mostrix2ui7helpers7startup24apply_admin_chat_updates0s2_0Bb_
FNDA:0,_RNCNCNvNtNtNtCs3smmrQNj5EW_7mostrix2ui7helpers7startup24apply_admin_chat_updates0s3_0Bb_
FNDA:0,_RNCNCNvNtNtNtCs3smmrQNj5EW_7mostrix2ui7helpers7startup24apply_admin_chat_updates0s4_0Bb_
FNDA:0,_RNCNCNvNtNtNtCs3smmrQNj5EW_7mostrix2ui7helpers7startup24apply_admin_chat_updates0s_0Bb_
FNDA:0,_RNCNCNvNtNtNtCs3smmrQNj5EW_7mostrix2ui7helpers7startup29apply_user_order_chat_updatess0_00Bb_
FNDA:0,_RNCNCNvNtNtNtCs3smmrQNj5EW_7mostrix2ui7helpers7startup40sync_user_order_history_messages_from_db00Bb_
FNDA:0,_RNCNCNvNtNtNtCs3smmrQNj5EW_7mostrix2ui7helpers7startup40sync_user_order_history_messages_from_db0s0_0Bb_
FNDA:0,_RNCNCNvNtNtNtCs3smmrQNj5EW_7mostrix2ui7helpers7startup40sync_user_order_history_messages_from_db0s1_0Bb_
FNDA:0,_RNCNCNvNtNtNtCs3smmrQNj5EW_7mostrix2ui7helpers7startup40sync_user_order_history_messages_from_db0s_0Bb_
FNDA:0,_RNCNvNtNtNtCs3smmrQNj5EW_7mostrix2ui7helpers7startup19track_startup_chats0B9_
FNDA:0,_RNCNvNtNtNtCs3smmrQNj5EW_7mostrix2ui7helpers7startup24apply_admin_chat_updates0B9_
FNDA:0,_RNCNvNtNtNtCs3smmrQNj5EW_7mostrix2ui7helpers7startup26update_last_seen_timestamp0B9_
FNDA:0,_RNCNvNtNtNtCs3smmrQNj5EW_7mostrix2ui7helpers7startup26update_last_seen_timestamps_0B9_
FNDA:0,_RNCNvNtNtNtCs3smmrQNj5EW_7mostrix2ui7helpers7startup27db_order_to_history_message0B9_
FNDA:0,_RNCNvNtNtNtCs3smmrQNj5EW_7mostrix2ui7helpers7startup27db_order_to_history_messages0_0B9_
FNDA:0,_RNCNvNtNtNtCs3smmrQNj5EW_7mostrix2ui7helpers7startup27db_order_to_history_messages1_0B9_
FNDA:0,_RNCNvNtNtNtCs3smmrQNj5EW_7mostrix2ui7helpers7startup27db_order_to_history_messages_0B9_
FNDA:0,_RNCNvNtNtNtCs3smmrQNj5EW_7mostrix2ui7helpers7startup29apply_user_order_chat_updatess0_0B9_
FNDA:0,_RNCNvNtNtNtCs3smmrQNj5EW_7mostrix2ui7helpers7startup29apply_user_order_chat_updatess_0B9_
FNDA:0,_RNCNvNtNtNtCs3smmrQNj5EW_7mostrix2ui7helpers7startup29recover_admin_chat_from_files0B9_
FNDA:0,_RNCNvNtNtNtCs3smmrQNj5EW_7mostrix2ui7helpers7startup30load_admin_disputes_at_startup0B9_
FNDA:0,_RNCNvNtNtNtCs3smmrQNj5EW_7mostrix2ui7helpers7startup31order_chat_static_from_db_order0B9_
FNDA:0,_RNCNvNtNtNtCs3smmrQNj5EW_7mostrix2ui7helpers7startup32load_user_order_chats_at_startup0B9_
FNDA:0,_RNCNvNtNtNtCs3smmrQNj5EW_7mostrix2ui7helpers7startup34refresh_my_trades_maker_book_cache0B9_
FNDA:0,_RNCNvNtNtNtCs3smmrQNj5EW_7mostrix2ui7helpers7startup40sync_user_order_history_messages_from_db0B9_
FNDA:0,_RNvNtNtNtCs3smmrQNj5EW_7mostrix2ui7helpers7startup19track_startup_chats
FNDA:0,_RNvNtNtNtCs3smmrQNj5EW_7mostrix2ui7helpers7startup24apply_admin_chat_updates
FNDA:0,_RNvNtNtNtCs3smmrQNj5EW_7mostrix2ui7helpers7startup26update_last_seen_timestamp
FNDA:0,_RNvNtNtNtCs3smmrQNj5EW_7mostrix2ui7helpers7startup27db_order_to_history_message
FNDA:0,_RNvNtNtNtCs3smmrQNj5EW_7mostrix2ui7helpers7startup29apply_user_order_chat_updates
FNDA:0,_RNvNtNtNtCs3smmrQNj5EW_7mostrix2ui7helpers7startup29recover_admin_chat_from_files
FNDA:0,_RNvNtNtNtCs3smmrQNj5EW_7mostrix2ui7helpers7startup30admin_chat_keys_clone_for_role
FNDA:0,_RNvNtNtNtCs3smmrQNj5EW_7mostrix2ui7helpers7startup30load_admin_disputes_at_startup
FNDA:0,_RNvNtNtNtCs3smmrQNj5EW_7mostrix2ui7helpers7startup31order_chat_static_from_db_order
FNDA:0,_RNvNtNtNtCs3smmrQNj5EW_7mostrix2ui7helpers7startup32load_user_order_chats_at_startup
FNDA:0,_RNvNtNtNtCs3smmrQNj5EW_7mostrix2ui7helpers7startup34refresh_my_trades_maker_book_cache
FNDA:0,_RNvNtNtNtCs3smmrQNj5EW_7mostrix2ui7helpers7startup35hydrate_app_admin_keys_from_privkey
FNDA:0,_RNvNtNtNtCs3smmrQNj5EW_7mostrix2ui7helpers7startup40sync_user_order_history_messages_from_db
FNDA:0,_RNCNCNCNvNtNtNtCs1oYyZhp1ftr_7mostrix2ui7helpers7startup24apply_admin_chat_updates0s0_00Bd_
FNDA:0,_RNCNCNCNvNtNtNtCs1oYyZhp1ftr_7mostrix2ui7helpers7startup24apply_admin_chat_updates0s0_0s_0Bd_
FNDA:0,_RNCNCNCNvNtNtNtCs1oYyZhp1ftr_7mostrix2ui7helpers7startup24apply_admin_chat_updates0s2_00Bd_
FNDA:0,_RNCNCNvNtNtNtCs1oYyZhp1ftr_7mostrix2ui7helpers7startup19track_startup_chats00Bb_
FNDA:0,_RNCNCNvNtNtNtCs1oYyZhp1ftr_7mostrix2ui7helpers7startup19track_startup_chats0s1_0Bb_
FNDA:0,_RNCNCNvNtNtNtCs1oYyZhp1ftr_7mostrix2ui7helpers7startup19track_startup_chats0s_0Bb_
FNDA:0,_RNCNCNvNtNtNtCs1oYyZhp1ftr_7mostrix2ui7helpers7startup24apply_admin_chat_updates0s0_0Bb_
FNDA:0,_RNCNCNvNtNtNtCs1oYyZhp1ftr_7mostrix2ui7helpers7startup24apply_admin_chat_updates0s1_0Bb_
FNDA:0,_RNCNCNvNtNtNtCs1oYyZhp1ftr_7mostrix2ui7helpers7startup24apply_admin_chat_updates0s2_0Bb_
FNDA:0,_RNCNCNvNtNtNtCs1oYyZhp1ftr_7mostrix2ui7helpers7startup24apply_admin_chat_updates0s3_0Bb_
FNDA:0,_RNCNCNvNtNtNtCs1oYyZhp1ftr_7mostrix2ui7helpers7startup24apply_admin_chat_updates0s4_0Bb_
FNDA:0,_RNCNCNvNtNtNtCs1oYyZhp1ftr_7mostrix2ui7helpers7startup24apply_admin_chat_updates0s_0Bb_
FNDA:0,_RNCNCNvNtNtNtCs1oYyZhp1ftr_7mostrix2ui7helpers7startup29apply_user_order_chat_updatess0_00Bb_
FNDA:0,_RNCNCNvNtNtNtCs1oYyZhp1ftr_7mostrix2ui7helpers7startup40sync_user_order_history_messages_from_db00Bb_
FNDA:0,_RNCNCNvNtNtNtCs1oYyZhp1ftr_7mostrix2ui7helpers7startup40sync_user_order_history_messages_from_db0s0_0Bb_
FNDA:0,_RNCNCNvNtNtNtCs1oYyZhp1ftr_7mostrix2ui7helpers7startup40sync_user_order_history_messages_from_db0s1_0Bb_
FNDA:0,_RNCNCNvNtNtNtCs1oYyZhp1ftr_7mostrix2ui7helpers7startup40sync_user_order_history_messages_from_db0s_0Bb_
FNDA:0,_RNCNvNtNtNtCs1oYyZhp1ftr_7mostrix2ui7helpers7startup19track_startup_chats0B9_
FNDA:0,_RNCNvNtNtNtCs1oYyZhp1ftr_7mostrix2ui7helpers7startup24apply_admin_chat_updates0B9_
FNDA:0,_RNCNvNtNtNtCs1oYyZhp1ftr_7mostrix2ui7helpers7startup26update_last_seen_timestamp0B9_
FNDA:0,_RNCNvNtNtNtCs1oYyZhp1ftr_7mostrix2ui7helpers7startup26update_last_seen_timestamps_0B9_
FNDA:0,_RNCNvNtNtNtCs1oYyZhp1ftr_7mostrix2ui7helpers7startup27db_order_to_history_message0B9_
FNDA:0,_RNCNvNtNtNtCs1oYyZhp1ftr_7mostrix2ui7helpers7startup27db_order_to_history_messages0_0B9_
FNDA:0,_RNCNvNtNtNtCs1oYyZhp1ftr_7mostrix2ui7helpers7startup27db_order_to_history_messages1_0B9_
FNDA:0,_RNCNvNtNtNtCs1oYyZhp1ftr_7mostrix2ui7helpers7startup27db_order_to_history_messages_0B9_
FNDA:0,_RNCNvNtNtNtCs1oYyZhp1ftr_7mostrix2ui7helpers7startup29apply_user_order_chat_updatess0_0B9_
FNDA:0,_RNCNvNtNtNtCs1oYyZhp1ftr_7mostrix2ui7helpers7startup29apply_user_order_chat_updatess_0B9_
FNDA:0,_RNCNvNtNtNtCs1oYyZhp1ftr_7mostrix2ui7helpers7startup29recover_admin_chat_from_files0B9_
FNDA:0,_RNCNvNtNtNtCs1oYyZhp1ftr_7mostrix2ui7helpers7startup30load_admin_disputes_at_startup0B9_
FNDA:0,_RNCNvNtNtNtCs1oYyZhp1ftr_7mostrix2ui7helpers7startup31order_chat_static_from_db_order0B9_
FNDA:0,_RNCNvNtNtNtCs1oYyZhp1ftr_7mostrix2ui7helpers7startup32load_user_order_chats_at_startup0B9_
FNDA:0,_RNCNvNtNtNtCs1oYyZhp1ftr_7mostrix2ui7helpers7startup34refresh_my_trades_maker_book_cache0B9_
FNDA:0,_RNCNvNtNtNtCs1oYyZhp1ftr_7mostrix2ui7helpers7startup40sync_user_order_history_messages_from_db0B9_
FNDA:0,_RNvNtNtNtCs1oYyZhp1ftr_7mostrix2ui7helpers7startup19track_startup_chats
FNDA:0,_RNvNtNtNtCs1oYyZhp1ftr_7mostrix2ui7helpers7startup24apply_admin_chat_updates
FNDA:0,_RNvNtNtNtCs1oYyZhp1ftr_7mostrix2ui7helpers7startup26update_last_seen_timestamp
FNDA:0,_RNvNtNtNtCs1oYyZhp1ftr_7mostrix2ui7helpers7startup27db_order_to_history_message
FNDA:0,_RNvNtNtNtCs1oYyZhp1ftr_7mostrix2ui7helpers7startup29apply_user_order_chat_updates
FNDA:0,_RNvNtNtNtCs1oYyZhp1ftr_7mostrix2ui7helpers7startup29recover_admin_chat_from_files
FNDA:0,_RNvNtNtNtCs1oYyZhp1ftr_7mostrix2ui7helpers7startup30admin_chat_keys_clone_for_role
FNDA:0,_RNvNtNtNtCs1oYyZhp1ftr_7mostrix2ui7helpers7startup30load_admin_disputes_at_startup
FNDA:0,_RNvNtNtNtCs1oYyZhp1ftr_7mostrix2ui7helpers7startup31order_chat_static_from_db_order
FNDA:0,_RNvNtNtNtCs1oYyZhp1ftr_7mostrix2ui7helpers7startup32load_user_order_chats_at_startup
FNDA:0,_RNvNtNtNtCs1oYyZhp1ftr_7mostrix2ui7helpers7startup34refresh_my_trades_maker_book_cache
FNDA:0,_RNvNtNtNtCs1oYyZhp1ftr_7mostrix2ui7helpers7startup35hydrate_app_admin_keys_from_privkey
FNDA:0,_RNvNtNtNtCs1oYyZhp1ftr_7mostrix2ui7helpers7startup40sync_user_order_history_messages_from_db
FNDA:0,_RNCNCNCNvNtNtNtCsbwworP4HFOr_7mostrix2ui7helpers7startup24apply_admin_chat_updates0s0_00Bd_
FNDA:0,_RNCNCNCNvNtNtNtCsbwworP4HFOr_7mostrix2ui7helpers7startup24apply_admin_chat_updates0s0_0s_0Bd_
FNDA:0,_RNCNCNCNvNtNtNtCsbwworP4HFOr_7mostrix2ui7helpers7startup24apply_admin_chat_updates0s2_00Bd_
FNDA:0,_RNCNCNvNtNtNtCsbwworP4HFOr_7mostrix2ui7helpers7startup19track_startup_chats00Bb_
FNDA:0,_RNCNCNvNtNtNtCsbwworP4HFOr_7mostrix2ui7helpers7startup19track_startup_chats0s1_0Bb_
FNDA:0,_RNCNCNvNtNtNtCsbwworP4HFOr_7mostrix2ui7helpers7startup19track_startup_chats0s_0Bb_
FNDA:0,_RNCNCNvNtNtNtCsbwworP4HFOr_7mostrix2ui7helpers7startup24apply_admin_chat_updates0s0_0Bb_
FNDA:0,_RNCNCNvNtNtNtCsbwworP4HFOr_7mostrix2ui7helpers7startup24apply_admin_chat_updates0s1_0Bb_
FNDA:0,_RNCNCNvNtNtNtCsbwworP4HFOr_7mostrix2ui7helpers7startup24apply_admin_chat_updates0s2_0Bb_
FNDA:0,_RNCNCNvNtNtNtCsbwworP4HFOr_7mostrix2ui7helpers7startup24apply_admin_chat_updates0s3_0Bb_
FNDA:0,_RNCNCNvNtNtNtCsbwworP4HFOr_7mostrix2ui7helpers7startup24apply_admin_chat_updates0s4_0Bb_
FNDA:0,_RNCNCNvNtNtNtCsbwworP4HFOr_7mostrix2ui7helpers7startup24apply_admin_chat_updates0s_0Bb_
FNDA:0,_RNCNCNvNtNtNtCsbwworP4HFOr_7mostrix2ui7helpers7startup29apply_user_order_chat_updatess0_00Bb_
FNDA:0,_RNCNCNvNtNtNtCsbwworP4HFOr_7mostrix2ui7helpers7startup40sync_user_order_history_messages_from_db00Bb_
FNDA:0,_RNCNCNvNtNtNtCsbwworP4HFOr_7mostrix2ui7helpers7startup40sync_user_order_history_messages_from_db0s0_0Bb_
FNDA:0,_RNCNCNvNtNtNtCsbwworP4HFOr_7mostrix2ui7helpers7startup40sync_user_order_history_messages_from_db0s1_0Bb_
FNDA:0,_RNCNCNvNtNtNtCsbwworP4HFOr_7mostrix2ui7helpers7startup40sync_user_order_history_messages_from_db0s_0Bb_
FNDA:0,_RNCNvNtNtNtCsbwworP4HFOr_7mostrix2ui7helpers7startup19track_startup_chats0B9_
FNDA:0,_RNCNvNtNtNtCsbwworP4HFOr_7mostrix2ui7helpers7startup24apply_admin_chat_updates0B9_
FNDA:0,_RNCNvNtNtNtCsbwworP4HFOr_7mostrix2ui7helpers7startup26update_last_seen_timestamp0B9_
FNDA:0,_RNCNvNtNtNtCsbwworP4HFOr_7mostrix2ui7helpers7startup26update_last_seen_timestamps_0B9_
FNDA:0,_RNCNvNtNtNtCsbwworP4HFOr_7mostrix2ui7helpers7startup27db_order_to_history_message0B9_
FNDA:0,_RNCNvNtNtNtCsbwworP4HFOr_7mostrix2ui7helpers7startup27db_order_to_history_messages0_0B9_
FNDA:0,_RNCNvNtNtNtCsbwworP4HFOr_7mostrix2ui7helpers7startup27db_order_to_history_messages1_0B9_
FNDA:0,_RNCNvNtNtNtCsbwworP4HFOr_7mostrix2ui7helpers7startup27db_order_to_history_messages_0B9_
FNDA:0,_RNCNvNtNtNtCsbwworP4HFOr_7mostrix2ui7helpers7startup29apply_user_order_chat_updatess0_0B9_
FNDA:0,_RNCNvNtNtNtCsbwworP4HFOr_7mostrix2ui7helpers7startup29apply_user_order_chat_updatess_0B9_
FNDA:0,_RNCNvNtNtNtCsbwworP4HFOr_7mostrix2ui7helpers7startup29recover_admin_chat_from_files0B9_
FNDA:0,_RNCNvNtNtNtCsbwworP4HFOr_7mostrix2ui7helpers7startup30load_admin_disputes_at_startup0B9_
FNDA:0,_RNCNvNtNtNtCsbwworP4HFOr_7mostrix2ui7helpers7startup31order_chat_static_from_db_order0B9_
FNDA:0,_RNCNvNtNtNtCsbwworP4HFOr_7mostrix2ui7helpers7startup32load_user_order_chats_at_startup0B9_
FNDA:0,_RNCNvNtNtNtCsbwworP4HFOr_7mostrix2ui7helpers7startup34refresh_my_trades_maker_book_cache0B9_
FNDA:0,_RNCNvNtNtNtCsbwworP4HFOr_7mostrix2ui7helpers7startup40sync_user_order_history_messages_from_db0B9_
FNDA:0,_RNvNtNtNtCsbwworP4HFOr_7mostrix2ui7helpers7startup19track_startup_chats
FNDA:0,_RNvNtNtNtCsbwworP4HFOr_7mostrix2ui7helpers7startup24apply_admin_chat_updates
FNDA:0,_RNvNtNtNtCsbwworP4HFOr_7mostrix2ui7helpers7startup26update_last_seen_timestamp
FNDA:0,_RNvNtNtNtCsbwworP4HFOr_7mostrix2ui7helpers7startup27db_order_to_history_message
FNDA:0,_RNvNtNtNtCsbwworP4HFOr_7mostrix2ui7helpers7startup29apply_user_order_chat_updates
FNDA:0,_RNvNtNtNtCsbwworP4HFOr_7mostrix2ui7helpers7startup29recover_admin_chat_from_files
FNDA:0,_RNvNtNtNtCsbwworP4HFOr_7mostrix2ui7helpers7startup30admin_chat_keys_clone_for_role
FNDA:0,_RNvNtNtNtCsbwworP4HFOr_7mostrix2ui7helpers7startup30load_admin_disputes_at_startup
FNDA:0,_RNvNtNtNtCsbwworP4HFOr_7mostrix2ui7helpers7startup31order_chat_static_from_db_order
FNDA:0,_RNvNtNtNtCsbwworP4HFOr_7mostrix2ui7helpers7startup32load_user_order_chats_at_startup
FNDA:0,_RNvNtNtNtCsbwworP4HFOr_7mostrix2ui7helpers7startup34refresh_my_trades_maker_book_cache
FNDA:0,_RNvNtNtNtCsbwworP4HFOr_7mostrix2ui7helpers7startup35hydrate_app_admin_keys_from_privkey
FNDA:0,_RNvNtNtNtCsbwworP4HFOr_7mostrix2ui7helpers7startup40sync_user_order_history_messages_from_db
FNF:46
FNH:0
DA:33,0
DA:34,0
DA:35,0
DA:37,0
DA:38,0
DA:39,0
DA:40,0
DA:41,0
DA:45,0
DA:49,0
DA:50,0
DA:51,0
DA:52,0
DA:54,0
DA:57,0
DA:58,0
DA:59,0
DA:60,0
DA:61,0
DA:62,0
DA:63,0
DA:64,0
DA:65,0
DA:66,0
DA:67,0
DA:68,0
DA:69,0
DA:70,0
DA:71,0
DA:72,0
DA:73,0
DA:74,0
DA:75,0
DA:77,0
DA:79,0
DA:80,0
DA:81,0
DA:82,0
DA:83,0
DA:84,0
DA:85,0
DA:86,0
DA:87,0
DA:88,0
DA:89,0
DA:90,0
DA:91,0
DA:92,0
DA:94,0
DA:95,0
DA:96,0
DA:97,0
DA:98,0
DA:99,0
DA:100,0
DA:101,0
DA:102,0
DA:105,0
DA:106,0
DA:107,0
DA:108,0
DA:109,0
DA:110,0
DA:111,0
DA:112,0
DA:113,0
DA:114,0
DA:115,0
DA:116,0
DA:117,0
DA:118,0
DA:119,0
DA:122,0
DA:123,0
DA:126,0
DA:138,0
DA:139,0
DA:141,0
DA:142,0
DA:144,0
DA:145,0
DA:146,0
DA:148,0
DA:150,0
DA:152,0
DA:153,0
DA:155,0
DA:156,0
DA:157,0
DA:158,0
DA:159,0
DA:161,0
DA:162,0
DA:163,0
DA:164,0
DA:165,0
DA:169,0
DA:170,0
DA:171,0
DA:172,0
DA:173,0
DA:174,0
DA:175,0
DA:176,0
DA:177,0
DA:178,0
DA:179,0
DA:180,0
DA:182,0
DA:183,0
DA:185,0
DA:186,0
DA:187,0
DA:188,0
DA:189,0
DA:194,0
DA:200,0
DA:201,0
DA:202,0
DA:203,0
DA:204,0
DA:205,0
DA:206,0
DA:209,0
DA:210,0
DA:211,0
DA:212,0
DA:213,0
DA:214,0
DA:215,0
DA:216,0
DA:217,0
DA:218,0
DA:220,0
DA:223,0
DA:224,0
DA:227,0
DA:228,0
DA:229,0
DA:230,0
DA:231,0
DA:232,0
DA:235,0
DA:238,0
DA:239,0
DA:240,0
DA:241,0
DA:242,0
DA:244,0
DA:245,0
DA:246,0
DA:247,0
DA:248,0
DA:249,0
DA:250,0
DA:251,0
DA:252,0
DA:253,0
DA:254,0
DA:255,0
DA:257,0
DA:258,0
DA:259,0
DA:260,0
DA:263,0
DA:264,0
DA:265,0
DA:266,0
DA:270,0
DA:271,0
DA:272,0
DA:273,0
DA:274,0
DA:275,0
DA:276,0
DA:277,0
DA:278,0
DA:279,0
DA:280,0
DA:281,0
DA:282,0
DA:283,0
DA:284,0
DA:285,0
DA:287,0
DA:288,0
DA:289,0
DA:290,0
DA:291,0
DA:292,0
DA:293,0
DA:296,0
DA:297,0
DA:298,0
DA:299,0
DA:300,0
DA:301,0
DA:302,0
DA:303,0
DA:304,0
DA:305,0
DA:306,0
DA:307,0
DA:308,0
DA:309,0
DA:311,0
DA:312,0
DA:316,0
DA:317,0
DA:319,0
DA:320,0
DA:321,0
DA:322,0
DA:323,0
DA:324,0
DA:325,0
DA:326,0
DA:327,0
DA:328,0
DA:329,0
DA:330,0
DA:331,0
DA:332,0
DA:333,0
DA:334,0
DA:335,0
DA:336,0
DA:337,0
DA:339,0
DA:340,0
DA:341,0
DA:342,0
DA:343,0
DA:344,0
DA:347,0
DA:350,0
DA:351,0
DA:352,0
DA:353,0
DA:354,0
DA:355,0
DA:358,0
DA:359,0
DA:360,0
DA:361,0
DA:362,0
DA:364,0
DA:365,0
DA:366,0
DA:367,0
DA:368,0
DA:370,0
DA:372,0
DA:373,0
DA:374,0
DA:375,0
DA:376,0
DA:378,0
DA:379,0
DA:380,0
DA:381,0
DA:383,0
DA:386,0
DA:387,0
DA:388,0
DA:389,0
DA:390,0
DA:391,0
DA:392,0
DA:393,0
DA:394,0
DA:395,0
DA:397,0
DA:398,0
DA:399,0
DA:400,0
DA:401,0
DA:402,0
DA:404,0
DA:405,0
DA:406,0
DA:409,0
DA:410,0
DA:411,0
DA:412,0
DA:413,0
DA:414,0
DA:415,0
DA:416,0
DA:417,0
DA:418,0
DA:419,0
DA:420,0
DA:421,0
DA:422,0
DA:423,0
DA:424,0
DA:425,0
DA:426,0
DA:427,0
DA:431,0
DA:432,0
DA:433,0
DA:434,0
DA:435,0
DA:436,0
DA:437,0
DA:438,0
DA:439,0
DA:440,0
DA:441,0
DA:443,0
DA:444,0
DA:445,0
DA:446,0
DA:447,0
DA:448,0
DA:449,0
DA:450,0
DA:451,0
DA:452,0
DA:453,0
DA:454,0
DA:455,0
DA:456,0
DA:458,0
DA:459,0
DA:460,0
DA:462,0
DA:463,0
DA:464,0
DA:465,0
DA:466,0
DA:467,0
DA:468,0
DA:469,0
DA:470,0
DA:471,0
DA:472,0
DA:474,0
DA:475,0
DA:476,0
DA:477,0
DA:478,0
DA:481,0
DA:485,0
DA:486,0
DA:487,0
DA:488,0
DA:489,0
DA:490,0
DA:491,0
DA:492,0
DA:493,0
DA:495,0
DA:496,0
DA:497,0
DA:498,0
DA:499,0
DA:500,0
DA:501,0
DA:502,0
DA:503,0
DA:505,0
DA:506,0
DA:507,0
DA:508,0
DA:509,0
DA:510,0
DA:511,0
DA:512,0
DA:513,0
DA:515,0
DA:516,0
DA:517,0
DA:518,0
DA:519,0
DA:520,0
DA:521,0
DA:522,0
DA:523,0
DA:524,0
DA:525,0
DA:526,0
DA:527,0
DA:528,0
DA:529,0
DA:530,0
DA:531,0
DA:533,0
DA:535,0
DA:536,0
DA:537,0
DA:538,0
DA:539,0
DA:541,0
DA:544,0
DA:545,0
DA:546,0
DA:549,0
DA:550,0
DA:551,0
DA:552,0
DA:553,0
DA:554,0
DA:555,0
DA:556,0
DA:557,0
DA:558,0
DA:559,0
DA:560,0
DA:561,0
DA:562,0
DA:563,0
DA:564,0
DA:565,0
DA:566,0
DA:567,0
DA:568,0
DA:569,0
DA:571,0
DA:572,0
DA:573,0
DA:574,0
DA:575,0
DA:576,0
DA:577,0
DA:578,0
DA:579,0
DA:580,0
DA:581,0
DA:583,0
DA:584,0
DA:585,0
DA:586,0
DA:587,0
DA:588,0
DA:589,0
DA:590,0
DA:591,0
DA:592,0
DA:593,0
DA:594,0
DA:595,0
DA:596,0
DA:598,0
DA:599,0
DA:600,0
DA:601,0
DA:602,0
DA:603,0
DA:604,0
DA:605,0
DA:606,0
DA:607,0
DA:608,0
DA:609,0
DA:610,0
DA:611,0
DA:612,0
DA:613,0
DA:614,0
DA:615,0
DA:616,0
DA:617,0
DA:618,0
DA:619,0
DA:620,0
DA:623,0
DA:624,0
DA:625,0
DA:626,0
DA:627,0
DA:628,0
DA:629,0
DA:630,0
DA:631,0
DA:633,0
DA:634,0
DA:635,0
DA:636,0
DA:637,0
DA:638,0
DA:640,0
DA:642,0
DA:643,0
DA:644,0
DA:647,0
DA:648,0
BRF:0
BRH:0
LF:519
LH:0
end_of_record
SF:/home/runner/work/mostrix/mostrix/src/ui/key_handler/admin_handlers.rs
FN:208,_RNCNvNtNtNtCsaruqlPBEY0K_7mostrix2ui11key_handler14admin_handlers23handle_enter_admin_mode0B9_
FN:273,_RNCNvNtNtNtCsaruqlPBEY0K_7mostrix2ui11key_handler14admin_handlers23handle_enter_admin_modes0_0B9_
FN:274,_RNCNvNtNtNtCsaruqlPBEY0K_7mostrix2ui11key_handler14admin_handlers23handle_enter_admin_modes1_0B9_
FN:243,_RNCNvNtNtNtCsaruqlPBEY0K_7mostrix2ui11key_handler14admin_handlers23handle_enter_admin_modes_0B9_
FN:108,_RNCNvNtNtNtCsaruqlPBEY0K_7mostrix2ui11key_handler14admin_handlers25execute_add_solver_action0B9_
FN:51,_RNCNvNtNtNtCsaruqlPBEY0K_7mostrix2ui11key_handler14admin_handlers27execute_take_dispute_action0B9_
FN:165,_RNCNvNtNtNtCsaruqlPBEY0K_7mostrix2ui11key_handler14admin_handlers31execute_finalize_dispute_action0B9_
FN:194,_RNvNtNtNtCsaruqlPBEY0K_7mostrix2ui11key_handler14admin_handlers23handle_enter_admin_mode
FN:80,_RNvNtNtNtCsaruqlPBEY0K_7mostrix2ui11key_handler14admin_handlers25execute_add_solver_action
FN:24,_RNvNtNtNtCsaruqlPBEY0K_7mostrix2ui11key_handler14admin_handlers27execute_take_dispute_action
FN:136,_RNvNtNtNtCsaruqlPBEY0K_7mostrix2ui11key_handler14admin_handlers31execute_finalize_dispute_action
FN:208,_RNCNvNtNtNtCs3smmrQNj5EW_7mostrix2ui11key_handler14admin_handlers23handle_enter_admin_mode0B9_
FN:273,_RNCNvNtNtNtCs3smmrQNj5EW_7mostrix2ui11key_handler14admin_handlers23handle_enter_admin_modes0_0B9_
FN:274,_RNCNvNtNtNtCs3smmrQNj5EW_7mostrix2ui11key_handler14admin_handlers23handle_enter_admin_modes1_0B9_
FN:243,_RNCNvNtNtNtCs3smmrQNj5EW_7mostrix2ui11key_handler14admin_handlers23handle_enter_admin_modes_0B9_
FN:108,_RNCNvNtNtNtCs3smmrQNj5EW_7mostrix2ui11key_handler14admin_handlers25execute_add_solver_action0B9_
FN:51,_RNCNvNtNtNtCs3smmrQNj5EW_7mostrix2ui11key_handler14admin_handlers27execute_take_dispute_action0B9_
FN:165,_RNCNvNtNtNtCs3smmrQNj5EW_7mostrix2ui11key_handler14admin_handlers31execute_finalize_dispute_action0B9_
FN:194,_RNvNtNtNtCs3smmrQNj5EW_7mostrix2ui11key_handler14admin_handlers23handle_enter_admin_mode
FN:80,_RNvNtNtNtCs3smmrQNj5EW_7mostrix2ui11key_handler14admin_handlers25execute_add_solver_action
FN:24,_RNvNtNtNtCs3smmrQNj5EW_7mostrix2ui11key_handler14admin_handlers27execute_take_dispute_action
FN:136,_RNvNtNtNtCs3smmrQNj5EW_7mostrix2ui11key_handler14admin_handlers31execute_finalize_dispute_action
FN:208,_RNCNvNtNtNtCs1oYyZhp1ftr_7mostrix2ui11key_handler14admin_handlers23handle_enter_admin_mode0B9_
FN:273,_RNCNvNtNtNtCs1oYyZhp1ftr_7mostrix2ui11key_handler14admin_handlers23handle_enter_admin_modes0_0B9_
FN:274,_RNCNvNtNtNtCs1oYyZhp1ftr_7mostrix2ui11key_handler14admin_handlers23handle_enter_admin_modes1_0B9_
FN:243,_RNCNvNtNtNtCs1oYyZhp1ftr_7mostrix2ui11key_handler14admin_handlers23handle_enter_admin_modes_0B9_
FN:108,_RNCNvNtNtNtCs1oYyZhp1ftr_7mostrix2ui11key_handler14admin_handlers25execute_add_solver_action0B9_
FN:51,_RNCNvNtNtNtCs1oYyZhp1ftr_7mostrix2ui11key_handler14admin_handlers27execute_take_dispute_action0B9_
FN:165,_RNCNvNtNtNtCs1oYyZhp1ftr_7mostrix2ui11key_handler14admin_handlers31execute_finalize_dispute_action0B9_
FN:194,_RNvNtNtNtCs1oYyZhp1ftr_7mostrix2ui11key_handler14admin_handlers23handle_enter_admin_mode
FN:80,_RNvNtNtNtCs1oYyZhp1ftr_7mostrix2ui11key_handler14admin_handlers25execute_add_solver_action
FN:24,_RNvNtNtNtCs1oYyZhp1ftr_7mostrix2ui11key_handler14admin_handlers27execute_take_dispute_action
FN:136,_RNvNtNtNtCs1oYyZhp1ftr_7mostrix2ui11key_handler14admin_handlers31execute_finalize_dispute_action
FN:208,_RNCNvNtNtNtCsbwworP4HFOr_7mostrix2ui11key_handler14admin_handlers23handle_enter_admin_mode0B9_
FN:273,_RNCNvNtNtNtCsbwworP4HFOr_7mostrix2ui11key_handler14admin_handlers23handle_enter_admin_modes0_0B9_
FN:274,_RNCNvNtNtNtCsbwworP4HFOr_7mostrix2ui11key_handler14admin_handlers23handle_enter_admin_modes1_0B9_
FN:243,_RNCNvNtNtNtCsbwworP4HFOr_7mostrix2ui11key_handler14admin_handlers23handle_enter_admin_modes_0B9_
FN:108,_RNCNvNtNtNtCsbwworP4HFOr_7mostrix2ui11key_handler14admin_handlers25execute_add_solver_action0B9_
FN:51,_RNCNvNtNtNtCsbwworP4HFOr_7mostrix2ui11key_handler14admin_handlers27execute_take_dispute_action0B9_
FN:165,_RNCNvNtNtNtCsbwworP4HFOr_7mostrix2ui11key_handler14admin_handlers31execute_finalize_dispute_action0B9_
FN:194,_RNvNtNtNtCsbwworP4HFOr_7mostrix2ui11key_handler14admin_handlers23handle_enter_admin_mode
FN:80,_RNvNtNtNtCsbwworP4HFOr_7mostrix2ui11key_handler14admin_handlers25execute_add_solver_action
FN:24,_RNvNtNtNtCsbwworP4HFOr_7mostrix2ui11key_handler14admin_handlers27execute_take_dispute_action
FN:136,_RNvNtNtNtCsbwworP4HFOr_7mostrix2ui11key_handler14admin_handlers31execute_finalize_dispute_action
FNDA:0,_RNCNvNtNtNtCsaruqlPBEY0K_7mostrix2ui11key_handler14admin_handlers23handle_enter_admin_mode0B9_
FNDA:0,_RNCNvNtNtNtCsaruqlPBEY0K_7mostrix2ui11key_handler14admin_handlers23handle_enter_admin_modes0_0B9_
FNDA:0,_RNCNvNtNtNtCsaruqlPBEY0K_7mostrix2ui11key_handler14admin_handlers23handle_enter_admin_modes1_0B9_
FNDA:0,_RNCNvNtNtNtCsaruqlPBEY0K_7mostrix2ui11key_handler14admin_handlers23handle_enter_admin_modes_0B9_
FNDA:0,_RNCNvNtNtNtCsaruqlPBEY0K_7mostrix2ui11key_handler14admin_handlers25execute_add_solver_action0B9_
FNDA:0,_RNCNvNtNtNtCsaruqlPBEY0K_7mostrix2ui11key_handler14admin_handlers27execute_take_dispute_action0B9_
FNDA:0,_RNCNvNtNtNtCsaruqlPBEY0K_7mostrix2ui11key_handler14admin_handlers31execute_finalize_dispute_action0B9_
FNDA:0,_RNvNtNtNtCsaruqlPBEY0K_7mostrix2ui11key_handler14admin_handlers23handle_enter_admin_mode
FNDA:0,_RNvNtNtNtCsaruqlPBEY0K_7mostrix2ui11key_handler14admin_handlers25execute_add_solver_action
FNDA:0,_RNvNtNtNtCsaruqlPBEY0K_7mostrix2ui11key_handler14admin_handlers27execute_take_dispute_action
FNDA:0,_RNvNtNtNtCsaruqlPBEY0K_7mostrix2ui11key_handler14admin_handlers31execute_finalize_dispute_action
FNDA:0,_RNCNvNtNtNtCs3smmrQNj5EW_7mostrix2ui11key_handler14admin_handlers23handle_enter_admin_mode0B9_
FNDA:0,_RNCNvNtNtNtCs3smmrQNj5EW_7mostrix2ui11key_handler14admin_handlers23handle_enter_admin_modes0_0B9_
FNDA:0,_RNCNvNtNtNtCs3smmrQNj5EW_7mostrix2ui11key_handler14admin_handlers23handle_enter_admin_modes1_0B9_
FNDA:0,_RNCNvNtNtNtCs3smmrQNj5EW_7mostrix2ui11key_handler14admin_handlers23handle_enter_admin_modes_0B9_
FNDA:0,_RNCNvNtNtNtCs3smmrQNj5EW_7mostrix2ui11key_handler14admin_handlers25execute_add_solver_action0B9_
FNDA:0,_RNCNvNtNtNtCs3smmrQNj5EW_7mostrix2ui11key_handler14admin_handlers27execute_take_dispute_action0B9_
FNDA:0,_RNCNvNtNtNtCs3smmrQNj5EW_7mostrix2ui11key_handler14admin_handlers31execute_finalize_dispute_action0B9_
FNDA:0,_RNvNtNtNtCs3smmrQNj5EW_7mostrix2ui11key_handler14admin_handlers23handle_enter_admin_mode
FNDA:0,_RNvNtNtNtCs3smmrQNj5EW_7mostrix2ui11key_handler14admin_handlers25execute_add_solver_action
FNDA:0,_RNvNtNtNtCs3smmrQNj5EW_7mostrix2ui11key_handler14admin_handlers27execute_take_dispute_action
FNDA:0,_RNvNtNtNtCs3smmrQNj5EW_7mostrix2ui11key_handler14admin_handlers31execute_finalize_dispute_action
FNDA:0,_RNCNvNtNtNtCs1oYyZhp1ftr_7mostrix2ui11key_handler14admin_handlers23handle_enter_admin_mode0B9_
FNDA:0,_RNCNvNtNtNtCs1oYyZhp1ftr_7mostrix2ui11key_handler14admin_handlers23handle_enter_admin_modes0_0B9_
FNDA:0,_RNCNvNtNtNtCs1oYyZhp1ftr_7mostrix2ui11key_handler14admin_handlers23handle_enter_admin_modes1_0B9_
FNDA:0,_RNCNvNtNtNtCs1oYyZhp1ftr_7mostrix2ui11key_handler14admin_handlers23handle_enter_admin_modes_0B9_
FNDA:0,_RNCNvNtNtNtCs1oYyZhp1ftr_7mostrix2ui11key_handler14admin_handlers25execute_add_solver_action0B9_
FNDA:0,_RNCNvNtNtNtCs1oYyZhp1ftr_7mostrix2ui11key_handler14admin_handlers27execute_take_dispute_action0B9_
FNDA:0,_RNCNvNtNtNtCs1oYyZhp1ftr_7mostrix2ui11key_handler14admin_handlers31execute_finalize_dispute_action0B9_
FNDA:0,_RNvNtNtNtCs1oYyZhp1ftr_7mostrix2ui11key_handler14admin_handlers23handle_enter_admin_mode
FNDA:0,_RNvNtNtNtCs1oYyZhp1ftr_7mostrix2ui11key_handler14admin_handlers25execute_add_solver_action
FNDA:0,_RNvNtNtNtCs1oYyZhp1ftr_7mostrix2ui11key_handler14admin_handlers27execute_take_dispute_action
FNDA:0,_RNvNtNtNtCs1oYyZhp1ftr_7mostrix2ui11key_handler14admin_handlers31execute_finalize_dispute_action
FNDA:0,_RNCNvNtNtNtCsbwworP4HFOr_7mostrix2ui11key_handler14admin_handlers23handle_enter_admin_mode0B9_
FNDA:0,_RNCNvNtNtNtCsbwworP4HFOr_7mostrix2ui11key_handler14admin_handlers23handle_enter_admin_modes0_0B9_
FNDA:0,_RNCNvNtNtNtCsbwworP4HFOr_7mostrix2ui11key_handler14admin_handlers23handle_enter_admin_modes1_0B9_
FNDA:0,_RNCNvNtNtNtCsbwworP4HFOr_7mostrix2ui11key_handler14admin_handlers23handle_enter_admin_modes_0B9_
FNDA:0,_RNCNvNtNtNtCsbwworP4HFOr_7mostrix2ui11key_handler14admin_handlers25execute_add_solver_action0B9_
FNDA:0,_RNCNvNtNtNtCsbwworP4HFOr_7mostrix2ui11key_handler14admin_handlers27execute_take_dispute_action0B9_
FNDA:0,_RNCNvNtNtNtCsbwworP4HFOr_7mostrix2ui11key_handler14admin_handlers31execute_finalize_dispute_action0B9_
FNDA:0,_RNvNtNtNtCsbwworP4HFOr_7mostrix2ui11key_handler14admin_handlers23handle_enter_admin_mode
FNDA:0,_RNvNtNtNtCsbwworP4HFOr_7mostrix2ui11key_handler14admin_handlers25execute_add_solver_action
FNDA:0,_RNvNtNtNtCsbwworP4HFOr_7mostrix2ui11key_handler14admin_handlers27execute_take_dispute_action
FNDA:0,_RNvNtNtNtCsbwworP4HFOr_7mostrix2ui11key_handler14admin_handlers31execute_finalize_dispute_action
FNF:11
FNH:0
DA:24,0
DA:25,0
DA:26,0
DA:27,0
DA:28,0
DA:29,0
DA:31,0
DA:32,0
DA:34,0
DA:35,0
DA:36,0
DA:38,0
DA:41,0
DA:42,0
DA:43,0
DA:44,0
DA:45,0
DA:47,0
DA:48,0
DA:49,0
DA:50,0
DA:51,0
DA:52,0
DA:53,0
DA:54,0
DA:55,0
DA:56,0
DA:57,0
DA:58,0
DA:60,0
DA:62,0
DA:63,0
DA:64,0
DA:65,0
DA:66,0
DA:67,0
DA:68,0
DA:69,0
DA:70,0
DA:73,0
DA:74,0
DA:80,0
DA:81,0
DA:82,0
DA:83,0
DA:84,0
DA:85,0
DA:86,0
DA:87,0
DA:88,0
DA:89,0
DA:90,0
DA:92,0
DA:94,0
DA:95,0
DA:97,0
DA:98,0
DA:100,0
DA:101,0
DA:102,0
DA:104,0
DA:107,0
DA:108,0
DA:109,0
DA:110,0
DA:111,0
DA:112,0
DA:113,0
DA:114,0
DA:115,0
DA:117,0
DA:119,0
DA:120,0
DA:121,0
DA:122,0
DA:123,0
DA:124,0
DA:125,0
DA:126,0
DA:129,0
DA:130,0
DA:136,0
DA:137,0
DA:138,0
DA:139,0
DA:140,0
DA:141,0
DA:142,0
DA:143,0
DA:144,0
DA:145,0
DA:146,0
DA:147,0
DA:149,0
DA:151,0
DA:152,0
DA:154,0
DA:155,0
DA:156,0
DA:158,0
DA:161,0
DA:162,0
DA:163,0
DA:164,0
DA:165,0
DA:166,0
DA:167,0
DA:168,0
DA:169,0
DA:170,0
DA:171,0
DA:172,0
DA:173,0
DA:174,0
DA:176,0
DA:178,0
DA:179,0
DA:180,0
DA:181,0
DA:182,0
DA:183,0
DA:184,0
DA:185,0
DA:188,0
DA:189,0
DA:194,0
DA:195,0
DA:196,0
DA:197,0
DA:198,0
DA:199,0
DA:200,0
DA:201,0
DA:203,0
DA:205,0
DA:206,0
DA:207,0
DA:208,0
DA:209,0
DA:210,0
DA:211,0
DA:212,0
DA:213,0
DA:214,0
DA:217,0
DA:218,0
DA:219,0
DA:220,0
DA:224,0
DA:225,0
DA:226,0
DA:228,0
DA:229,0
DA:230,0
DA:231,0
DA:232,0
DA:233,0
DA:234,0
DA:235,0
DA:236,0
DA:237,0
DA:239,0
DA:240,0
DA:242,0
DA:243,0
DA:244,0
DA:245,0
DA:247,0
DA:248,0
DA:249,0
DA:250,0
DA:253,0
DA:254,0
DA:255,0
DA:257,0
DA:258,0
DA:259,0
DA:260,0
DA:261,0
DA:263,0
DA:264,0
DA:265,0
DA:269,0
DA:271,0
DA:272,0
DA:273,0
DA:274,0
DA:275,0
DA:276,0
DA:280,0
DA:281,0
DA:282,0
DA:283,0
DA:285,0
BRF:0
BRH:0
LF:198
LH:0
end_of_record
SF:/home/runner/work/mostrix/mostrix/src/ui/key_handler/async_tasks.rs
FN:749,_RNCNCNCNvNtNtNtCsaruqlPBEY0K_7mostrix2ui11key_handler11async_tasks21respawn_chat_listener0s0_00Bd_
FN:352,_RNCNCNCNvNtNtNtCsaruqlPBEY0K_7mostrix2ui11key_handler11async_tasks24apply_pending_key_reload000Bd_
FN:214,_RNCNCNCNvNtNtNtCsaruqlPBEY0K_7mostrix2ui11key_handler11async_tasks25respawn_trade_dm_listener0s0_00Bd_
FN:515,_RNCNCNCNvNtNtNtCsaruqlPBEY0K_7mostrix2ui11key_handler11async_tasks36apply_pending_fetch_scheduler_reload0s0_00Bd_
FN:694,_RNCNCNCNvNtNtNtCsaruqlPBEY0K_7mostrix2ui11key_handler11async_tasks38reload_runtime_session_after_reconnect0s0_00Bd_
FN:738,_RNCNCNvNtNtNtCsaruqlPBEY0K_7mostrix2ui11key_handler11async_tasks21respawn_chat_listener00Bb_
FN:748,_RNCNCNvNtNtNtCsaruqlPBEY0K_7mostrix2ui11key_handler11async_tasks21respawn_chat_listener0s0_0Bb_
FN:743,_RNCNCNvNtNtNtCsaruqlPBEY0K_7mostrix2ui11key_handler11async_tasks21respawn_chat_listener0s_0Bb_
FN:351,_RNCNCNvNtNtNtCsaruqlPBEY0K_7mostrix2ui11key_handler11async_tasks24apply_pending_key_reload00Bb_
FN:183,_RNCNCNvNtNtNtCsaruqlPBEY0K_7mostrix2ui11key_handler11async_tasks25respawn_trade_dm_listener00Bb_
FN:213,_RNCNCNvNtNtNtCsaruqlPBEY0K_7mostrix2ui11key_handler11async_tasks25respawn_trade_dm_listener0s0_0Bb_
FN:210,_RNCNCNvNtNtNtCsaruqlPBEY0K_7mostrix2ui11key_handler11async_tasks25respawn_trade_dm_listener0s_0Bb_
FN:437,_RNCNCNvNtNtNtCsaruqlPBEY0K_7mostrix2ui11key_handler11async_tasks36apply_pending_fetch_scheduler_reload00Bb_
FN:514,_RNCNCNvNtNtNtCsaruqlPBEY0K_7mostrix2ui11key_handler11async_tasks36apply_pending_fetch_scheduler_reload0s0_0Bb_
FN:451,_RNCNCNvNtNtNtCsaruqlPBEY0K_7mostrix2ui11key_handler11async_tasks36apply_pending_fetch_scheduler_reload0s_0Bb_
FN:626,_RNCNCNvNtNtNtCsaruqlPBEY0K_7mostrix2ui11key_handler11async_tasks38reload_runtime_session_after_reconnect00Bb_
FN:693,_RNCNCNvNtNtNtCsaruqlPBEY0K_7mostrix2ui11key_handler11async_tasks38reload_runtime_session_after_reconnect0s0_0Bb_
FN:628,_RNCNCNvNtNtNtCsaruqlPBEY0K_7mostrix2ui11key_handler11async_tasks38reload_runtime_session_after_reconnect0s_0Bb_
FN:735,_RNCNvNtNtNtCsaruqlPBEY0K_7mostrix2ui11key_handler11async_tasks21respawn_chat_listener0B9_
FN:153,_RNCNvNtNtNtCsaruqlPBEY0K_7mostrix2ui11key_handler11async_tasks23dm_transport_for_mostro0B9_
FN:252,_RNCNvNtNtNtCsaruqlPBEY0K_7mostrix2ui11key_handler11async_tasks24apply_pending_key_reload0B9_
FN:180,_RNCNvNtNtNtCsaruqlPBEY0K_7mostrix2ui11key_handler11async_tasks25respawn_trade_dm_listener0B9_
FN:559,_RNCNvNtNtNtCsaruqlPBEY0K_7mostrix2ui11key_handler11async_tasks29apply_pending_runtime_reloads0B9_
FN:426,_RNCNvNtNtNtCsaruqlPBEY0K_7mostrix2ui11key_handler11async_tasks36apply_pending_fetch_scheduler_reload0B9_
FN:614,_RNCNvNtNtNtCsaruqlPBEY0K_7mostrix2ui11key_handler11async_tasks38reload_runtime_session_after_reconnect0B9_
FN:1102,_RNCNCNCNCNvNtNtNtCsaruqlPBEY0K_7mostrix2ui11key_handler11async_tasks23spawn_key_rotation_task00s0_00Bf_
FN:1092,_RNCNCNCNvNtNtNtCsaruqlPBEY0K_7mostrix2ui11key_handler11async_tasks23spawn_key_rotation_task000Bd_
FN:1102,_RNCNCNCNvNtNtNtCsaruqlPBEY0K_7mostrix2ui11key_handler11async_tasks23spawn_key_rotation_task00s0_0Bd_
FN:1104,_RNCNCNCNvNtNtNtCsaruqlPBEY0K_7mostrix2ui11key_handler11async_tasks23spawn_key_rotation_task00s1_0Bd_
FN:1112,_RNCNCNCNvNtNtNtCsaruqlPBEY0K_7mostrix2ui11key_handler11async_tasks23spawn_key_rotation_task00s2_0Bd_
FN:1095,_RNCNCNCNvNtNtNtCsaruqlPBEY0K_7mostrix2ui11key_handler11async_tasks23spawn_key_rotation_task00s_0Bd_
FN:1081,_RNCNCNvNtNtNtCsaruqlPBEY0K_7mostrix2ui11key_handler11async_tasks23spawn_key_rotation_task00Bb_
FN:1066,_RNCNvNtNtNtCsaruqlPBEY0K_7mostrix2ui11key_handler11async_tasks20spawn_add_relay_task0B9_
FN:954,_RNCNvNtNtNtCsaruqlPBEY0K_7mostrix2ui11key_handler11async_tasks21spawn_take_order_task0B9_
FN:1080,_RNCNvNtNtNtCsaruqlPBEY0K_7mostrix2ui11key_handler11async_tasks23spawn_key_rotation_task0B9_
FN:860,_RNCNvNtNtNtCsaruqlPBEY0K_7mostrix2ui11key_handler11async_tasks25spawn_send_new_order_task0B9_
FN:1152,_RNCNvNtNtNtCsaruqlPBEY0K_7mostrix2ui11key_handler11async_tasks26spawn_load_seed_words_task0B9_
FN:1029,_RNCNvNtNtNtCsaruqlPBEY0K_7mostrix2ui11key_handler11async_tasks30spawn_refresh_mostro_info_task0B9_
FN:896,_RNCNvNtNtNtCsaruqlPBEY0K_7mostrix2ui11key_handler11async_tasks37spawn_verify_and_save_ln_address_task0B9_
FN:982,_RNCNvNtNtNtCsaruqlPBEY0K_7mostrix2ui11key_handler11async_tasks44spawn_refresh_mostro_info_from_settings_task0B9_
FN:791,_RNvNtNtNtCsaruqlPBEY0K_7mostrix2ui11key_handler11async_tasks19create_app_channels
FN:1065,_RNvNtNtNtCsaruqlPBEY0K_7mostrix2ui11key_handler11async_tasks20spawn_add_relay_task
FN:727,_RNvNtNtNtCsaruqlPBEY0K_7mostrix2ui11key_handler11async_tasks21respawn_chat_listener
FN:943,_RNvNtNtNtCsaruqlPBEY0K_7mostrix2ui11key_handler11async_tasks21spawn_take_order_task
FN:60,_RNvNtNtNtCsaruqlPBEY0K_7mostrix2ui11key_handler11async_tasks23clear_messages_or_fatal
FN:148,_RNvNtNtNtCsaruqlPBEY0K_7mostrix2ui11key_handler11async_tasks23dm_transport_for_mostro
FN:1073,_RNvNtNtNtCsaruqlPBEY0K_7mostrix2ui11key_handler11async_tasks23spawn_key_rotation_task
FN:239,_RNvNtNtNtCsaruqlPBEY0K_7mostrix2ui11key_handler11async_tasks24apply_pending_key_reload
FN:171,_RNvNtNtNtCsaruqlPBEY0K_7mostrix2ui11key_handler11async_tasks25respawn_trade_dm_listener
FN:852,_RNvNtNtNtCsaruqlPBEY0K_7mostrix2ui11key_handler11async_tasks25spawn_send_new_order_task
FN:1148,_RNvNtNtNtCsaruqlPBEY0K_7mostrix2ui11key_handler11async_tasks26spawn_load_seed_words_task
FN:119,_RNvNtNtNtCsaruqlPBEY0K_7mostrix2ui11key_handler11async_tasks27clear_runtime_session_state
FN:545,_RNvNtNtNtCsaruqlPBEY0K_7mostrix2ui11key_handler11async_tasks29apply_pending_runtime_reloads
FN:54,_RNvNtNtNtCsaruqlPBEY0K_7mostrix2ui11key_handler11async_tasks29apply_poisoned_mutex_ui_fatal
FN:1023,_RNvNtNtNtCsaruqlPBEY0K_7mostrix2ui11key_handler11async_tasks30spawn_refresh_mostro_info_task
FN:80,_RNvNtNtNtCsaruqlPBEY0K_7mostrix2ui11key_handler11async_tasks35clear_active_order_indices_or_fatal
FN:412,_RNvNtNtNtCsaruqlPBEY0K_7mostrix2ui11key_handler11async_tasks36apply_pending_fetch_scheduler_reload
FN:100,_RNvNtNtNtCsaruqlPBEY0K_7mostrix2ui11key_handler11async_tasks36reset_pending_notifications_or_fatal
FN:892,_RNvNtNtNtCsaruqlPBEY0K_7mostrix2ui11key_handler11async_tasks37spawn_verify_and_save_ln_address_task
FN:612,_RNvNtNtNtCsaruqlPBEY0K_7mostrix2ui11key_handler11async_tasks38reload_runtime_session_after_reconnect
FN:978,_RNvNtNtNtCsaruqlPBEY0K_7mostrix2ui11key_handler11async_tasks44spawn_refresh_mostro_info_from_settings_task
FN:133,_RNvNtNtNtCsaruqlPBEY0K_7mostrix2ui11key_handler11async_tasks46clear_runtime_tracking_state_preserve_messages
FN:1102,_RNCNCNCNCNvNtNtNtCs3smmrQNj5EW_7mostrix2ui11key_handler11async_tasks23spawn_key_rotation_task00s0_00Bf_
FN:749,_RNCNCNCNvNtNtNtCs3smmrQNj5EW_7mostrix2ui11key_handler11async_tasks21respawn_chat_listener0s0_00Bd_
FN:1092,_RNCNCNCNvNtNtNtCs3smmrQNj5EW_7mostrix2ui11key_handler11async_tasks23spawn_key_rotation_task000Bd_
FN:1102,_RNCNCNCNvNtNtNtCs3smmrQNj5EW_7mostrix2ui11key_handler11async_tasks23spawn_key_rotation_task00s0_0Bd_
FN:1104,_RNCNCNCNvNtNtNtCs3smmrQNj5EW_7mostrix2ui11key_handler11async_tasks23spawn_key_rotation_task00s1_0Bd_
FN:1112,_RNCNCNCNvNtNtNtCs3smmrQNj5EW_7mostrix2ui11key_handler11async_tasks23spawn_key_rotation_task00s2_0Bd_
FN:1095,_RNCNCNCNvNtNtNtCs3smmrQNj5EW_7mostrix2ui11key_handler11async_tasks23spawn_key_rotation_task00s_0Bd_
FN:352,_RNCNCNCNvNtNtNtCs3smmrQNj5EW_7mostrix2ui11key_handler11async_tasks24apply_pending_key_reload000Bd_
FN:214,_RNCNCNCNvNtNtNtCs3smmrQNj5EW_7mostrix2ui11key_handler11async_tasks25respawn_trade_dm_listener0s0_00Bd_
FN:515,_RNCNCNCNvNtNtNtCs3smmrQNj5EW_7mostrix2ui11key_handler11async_tasks36apply_pending_fetch_scheduler_reload0s0_00Bd_
FN:694,_RNCNCNCNvNtNtNtCs3smmrQNj5EW_7mostrix2ui11key_handler11async_tasks38reload_runtime_session_after_reconnect0s0_00Bd_
FN:738,_RNCNCNvNtNtNtCs3smmrQNj5EW_7mostrix2ui11key_handler11async_tasks21respawn_chat_listener00Bb_
FN:748,_RNCNCNvNtNtNtCs3smmrQNj5EW_7mostrix2ui11key_handler11async_tasks21respawn_chat_listener0s0_0Bb_
FN:743,_RNCNCNvNtNtNtCs3smmrQNj5EW_7mostrix2ui11key_handler11async_tasks21respawn_chat_listener0s_0Bb_
FN:1081,_RNCNCNvNtNtNtCs3smmrQNj5EW_7mostrix2ui11key_handler11async_tasks23spawn_key_rotation_task00Bb_
FN:351,_RNCNCNvNtNtNtCs3smmrQNj5EW_7mostrix2ui11key_handler11async_tasks24apply_pending_key_reload00Bb_
FN:183,_RNCNCNvNtNtNtCs3smmrQNj5EW_7mostrix2ui11key_handler11async_tasks25respawn_trade_dm_listener00Bb_
FN:213,_RNCNCNvNtNtNtCs3smmrQNj5EW_7mostrix2ui11key_handler11async_tasks25respawn_trade_dm_listener0s0_0Bb_
FN:210,_RNCNCNvNtNtNtCs3smmrQNj5EW_7mostrix2ui11key_handler11async_tasks25respawn_trade_dm_listener0s_0Bb_
FN:437,_RNCNCNvNtNtNtCs3smmrQNj5EW_7mostrix2ui11key_handler11async_tasks36apply_pending_fetch_scheduler_reload00Bb_
FN:514,_RNCNCNvNtNtNtCs3smmrQNj5EW_7mostrix2ui11key_handler11async_tasks36apply_pending_fetch_scheduler_reload0s0_0Bb_
FN:451,_RNCNCNvNtNtNtCs3smmrQNj5EW_7mostrix2ui11key_handler11async_tasks36apply_pending_fetch_scheduler_reload0s_0Bb_
FN:626,_RNCNCNvNtNtNtCs3smmrQNj5EW_7mostrix2ui11key_handler11async_tasks38reload_runtime_session_after_reconnect00Bb_
FN:693,_RNCNCNvNtNtNtCs3smmrQNj5EW_7mostrix2ui11key_handler11async_tasks38reload_runtime_session_after_reconnect0s0_0Bb_
FN:628,_RNCNCNvNtNtNtCs3smmrQNj5EW_7mostrix2ui11key_handler11async_tasks38reload_runtime_session_after_reconnect0s_0Bb_
FN:1066,_RNCNvNtNtNtCs3smmrQNj5EW_7mostrix2ui11key_handler11async_tasks20spawn_add_relay_task0B9_
FN:735,_RNCNvNtNtNtCs3smmrQNj5EW_7mostrix2ui11key_handler11async_tasks21respawn_chat_listener0B9_
FN:954,_RNCNvNtNtNtCs3smmrQNj5EW_7mostrix2ui11key_handler11async_tasks21spawn_take_order_task0B9_
FN:153,_RNCNvNtNtNtCs3smmrQNj5EW_7mostrix2ui11key_handler11async_tasks23dm_transport_for_mostro0B9_
FN:1080,_RNCNvNtNtNtCs3smmrQNj5EW_7mostrix2ui11key_handler11async_tasks23spawn_key_rotation_task0B9_
FN:252,_RNCNvNtNtNtCs3smmrQNj5EW_7mostrix2ui11key_handler11async_tasks24apply_pending_key_reload0B9_
FN:180,_RNCNvNtNtNtCs3smmrQNj5EW_7mostrix2ui11key_handler11async_tasks25respawn_trade_dm_listener0B9_
FN:860,_RNCNvNtNtNtCs3smmrQNj5EW_7mostrix2ui11key_handler11async_tasks25spawn_send_new_order_task0B9_
FN:1152,_RNCNvNtNtNtCs3smmrQNj5EW_7mostrix2ui11key_handler11async_tasks26spawn_load_seed_words_task0B9_
FN:559,_RNCNvNtNtNtCs3smmrQNj5EW_7mostrix2ui11key_handler11async_tasks29apply_pending_runtime_reloads0B9_
FN:1029,_RNCNvNtNtNtCs3smmrQNj5EW_7mostrix2ui11key_handler11async_tasks30spawn_refresh_mostro_info_task0B9_
FN:426,_RNCNvNtNtNtCs3smmrQNj5EW_7mostrix2ui11key_handler11async_tasks36apply_pending_fetch_scheduler_reload0B9_
FN:896,_RNCNvNtNtNtCs3smmrQNj5EW_7mostrix2ui11key_handler11async_tasks37spawn_verify_and_save_ln_address_task0B9_
FN:614,_RNCNvNtNtNtCs3smmrQNj5EW_7mostrix2ui11key_handler11async_tasks38reload_runtime_session_after_reconnect0B9_
FN:982,_RNCNvNtNtNtCs3smmrQNj5EW_7mostrix2ui11key_handler11async_tasks44spawn_refresh_mostro_info_from_settings_task0B9_
FN:791,_RNvNtNtNtCs3smmrQNj5EW_7mostrix2ui11key_handler11async_tasks19create_app_channels
FN:1065,_RNvNtNtNtCs3smmrQNj5EW_7mostrix2ui11key_handler11async_tasks20spawn_add_relay_task
FN:727,_RNvNtNtNtCs3smmrQNj5EW_7mostrix2ui11key_handler11async_tasks21respawn_chat_listener
FN:943,_RNvNtNtNtCs3smmrQNj5EW_7mostrix2ui11key_handler11async_tasks21spawn_take_order_task
FN:60,_RNvNtNtNtCs3smmrQNj5EW_7mostrix2ui11key_handler11async_tasks23clear_messages_or_fatal
FN:148,_RNvNtNtNtCs3smmrQNj5EW_7mostrix2ui11key_handler11async_tasks23dm_transport_for_mostro
FN:1073,_RNvNtNtNtCs3smmrQNj5EW_7mostrix2ui11key_handler11async_tasks23spawn_key_rotation_task
FN:239,_RNvNtNtNtCs3smmrQNj5EW_7mostrix2ui11key_handler11async_tasks24apply_pending_key_reload
FN:171,_RNvNtNtNtCs3smmrQNj5EW_7mostrix2ui11key_handler11async_tasks25respawn_trade_dm_listener
FN:852,_RNvNtNtNtCs3smmrQNj5EW_7mostrix2ui11key_handler11async_tasks25spawn_send_new_order_task
FN:1148,_RNvNtNtNtCs3smmrQNj5EW_7mostrix2ui11key_handler11async_tasks26spawn_load_seed_words_task
FN:119,_RNvNtNtNtCs3smmrQNj5EW_7mostrix2ui11key_handler11async_tasks27clear_runtime_session_state
FN:545,_RNvNtNtNtCs3smmrQNj5EW_7mostrix2ui11key_handler11async_tasks29apply_pending_runtime_reloads
FN:54,_RNvNtNtNtCs3smmrQNj5EW_7mostrix2ui11key_handler11async_tasks29apply_poisoned_mutex_ui_fatal
FN:1023,_RNvNtNtNtCs3smmrQNj5EW_7mostrix2ui11key_handler11async_tasks30spawn_refresh_mostro_info_task
FN:80,_RNvNtNtNtCs3smmrQNj5EW_7mostrix2ui11key_handler11async_tasks35clear_active_order_indices_or_fatal
FN:412,_RNvNtNtNtCs3smmrQNj5EW_7mostrix2ui11key_handler11async_tasks36apply_pending_fetch_scheduler_reload
FN:100,_RNvNtNtNtCs3smmrQNj5EW_7mostrix2ui11key_handler11async_tasks36reset_pending_notifications_or_fatal
FN:892,_RNvNtNtNtCs3smmrQNj5EW_7mostrix2ui11key_handler11async_tasks37spawn_verify_and_save_ln_address_task
FN:612,_RNvNtNtNtCs3smmrQNj5EW_7mostrix2ui11key_handler11async_tasks38reload_runtime_session_after_reconnect
FN:978,_RNvNtNtNtCs3smmrQNj5EW_7mostrix2ui11key_handler11async_tasks44spawn_refresh_mostro_info_from_settings_task
FN:133,_RNvNtNtNtCs3smmrQNj5EW_7mostrix2ui11key_handler11async_tasks46clear_runtime_tracking_state_preserve_messages
FN:1102,_RNCNCNCNCNvNtNtNtCs1oYyZhp1ftr_7mostrix2ui11key_handler11async_tasks23spawn_key_rotation_task00s0_00Bf_
FN:749,_RNCNCNCNvNtNtNtCs1oYyZhp1ftr_7mostrix2ui11key_handler11async_tasks21respawn_chat_listener0s0_00Bd_
FN:1092,_RNCNCNCNvNtNtNtCs1oYyZhp1ftr_7mostrix2ui11key_handler11async_tasks23spawn_key_rotation_task000Bd_
FN:1102,_RNCNCNCNvNtNtNtCs1oYyZhp1ftr_7mostrix2ui11key_handler11async_tasks23spawn_key_rotation_task00s0_0Bd_
FN:1104,_RNCNCNCNvNtNtNtCs1oYyZhp1ftr_7mostrix2ui11key_handler11async_tasks23spawn_key_rotation_task00s1_0Bd_
FN:1112,_RNCNCNCNvNtNtNtCs1oYyZhp1ftr_7mostrix2ui11key_handler11async_tasks23spawn_key_rotation_task00s2_0Bd_
FN:1095,_RNCNCNCNvNtNtNtCs1oYyZhp1ftr_7mostrix2ui11key_handler11async_tasks23spawn_key_rotation_task00s_0Bd_
FN:352,_RNCNCNCNvNtNtNtCs1oYyZhp1ftr_7mostrix2ui11key_handler11async_tasks24apply_pending_key_reload000Bd_
FN:214,_RNCNCNCNvNtNtNtCs1oYyZhp1ftr_7mostrix2ui11key_handler11async_tasks25respawn_trade_dm_listener0s0_00Bd_
FN:515,_RNCNCNCNvNtNtNtCs1oYyZhp1ftr_7mostrix2ui11key_handler11async_tasks36apply_pending_fetch_scheduler_reload0s0_00Bd_
FN:694,_RNCNCNCNvNtNtNtCs1oYyZhp1ftr_7mostrix2ui11key_handler11async_tasks38reload_runtime_session_after_reconnect0s0_00Bd_
FN:738,_RNCNCNvNtNtNtCs1oYyZhp1ftr_7mostrix2ui11key_handler11async_tasks21respawn_chat_listener00Bb_
FN:748,_RNCNCNvNtNtNtCs1oYyZhp1ftr_7mostrix2ui11key_handler11async_tasks21respawn_chat_listener0s0_0Bb_
FN:743,_RNCNCNvNtNtNtCs1oYyZhp1ftr_7mostrix2ui11key_handler11async_tasks21respawn_chat_listener0s_0Bb_
FN:1081,_RNCNCNvNtNtNtCs1oYyZhp1ftr_7mostrix2ui11key_handler11async_tasks23spawn_key_rotation_task00Bb_
FN:351,_RNCNCNvNtNtNtCs1oYyZhp1ftr_7mostrix2ui11key_handler11async_tasks24apply_pending_key_reload00Bb_
FN:183,_RNCNCNvNtNtNtCs1oYyZhp1ftr_7mostrix2ui11key_handler11async_tasks25respawn_trade_dm_listener00Bb_
FN:213,_RNCNCNvNtNtNtCs1oYyZhp1ftr_7mostrix2ui11key_handler11async_tasks25respawn_trade_dm_listener0s0_0Bb_
FN:210,_RNCNCNvNtNtNtCs1oYyZhp1ftr_7mostrix2ui11key_handler11async_tasks25respawn_trade_dm_listener0s_0Bb_
FN:437,_RNCNCNvNtNtNtCs1oYyZhp1ftr_7mostrix2ui11key_handler11async_tasks36apply_pending_fetch_scheduler_reload00Bb_
FN:514,_RNCNCNvNtNtNtCs1oYyZhp1ftr_7mostrix2ui11key_handler11async_tasks36apply_pending_fetch_scheduler_reload0s0_0Bb_
FN:451,_RNCNCNvNtNtNtCs1oYyZhp1ftr_7mostrix2ui11key_handler11async_tasks36apply_pending_fetch_scheduler_reload0s_0Bb_
FN:626,_RNCNCNvNtNtNtCs1oYyZhp1ftr_7mostrix2ui11key_handler11async_tasks38reload_runtime_session_after_reconnect00Bb_
FN:693,_RNCNCNvNtNtNtCs1oYyZhp1ftr_7mostrix2ui11key_handler11async_tasks38reload_runtime_session_after_reconnect0s0_0Bb_
FN:628,_RNCNCNvNtNtNtCs1oYyZhp1ftr_7mostrix2ui11key_handler11async_tasks38reload_runtime_session_after_reconnect0s_0Bb_
FN:735,_RNCNvNtNtNtCs1oYyZhp1ftr_7mostrix2ui11key_handler11async_tasks21respawn_chat_listener0B9_
FN:954,_RNCNvNtNtNtCs1oYyZhp1ftr_7mostrix2ui11key_handler11async_tasks21spawn_take_order_task0B9_
FN:153,_RNCNvNtNtNtCs1oYyZhp1ftr_7mostrix2ui11key_handler11async_tasks23dm_transport_for_mostro0B9_
FN:1080,_RNCNvNtNtNtCs1oYyZhp1ftr_7mostrix2ui11key_handler11async_tasks23spawn_key_rotation_task0B9_
FN:252,_RNCNvNtNtNtCs1oYyZhp1ftr_7mostrix2ui11key_handler11async_tasks24apply_pending_key_reload0B9_
FN:180,_RNCNvNtNtNtCs1oYyZhp1ftr_7mostrix2ui11key_handler11async_tasks25respawn_trade_dm_listener0B9_
FN:860,_RNCNvNtNtNtCs1oYyZhp1ftr_7mostrix2ui11key_handler11async_tasks25spawn_send_new_order_task0B9_
FN:1152,_RNCNvNtNtNtCs1oYyZhp1ftr_7mostrix2ui11key_handler11async_tasks26spawn_load_seed_words_task0B9_
FN:559,_RNCNvNtNtNtCs1oYyZhp1ftr_7mostrix2ui11key_handler11async_tasks29apply_pending_runtime_reloads0B9_
FN:1029,_RNCNvNtNtNtCs1oYyZhp1ftr_7mostrix2ui11key_handler11async_tasks30spawn_refresh_mostro_info_task0B9_
FN:426,_RNCNvNtNtNtCs1oYyZhp1ftr_7mostrix2ui11key_handler11async_tasks36apply_pending_fetch_scheduler_reload0B9_
FN:896,_RNCNvNtNtNtCs1oYyZhp1ftr_7mostrix2ui11key_handler11async_tasks37spawn_verify_and_save_ln_address_task0B9_
FN:614,_RNCNvNtNtNtCs1oYyZhp1ftr_7mostrix2ui11key_handler11async_tasks38reload_runtime_session_after_reconnect0B9_
FN:982,_RNCNvNtNtNtCs1oYyZhp1ftr_7mostrix2ui11key_handler11async_tasks44spawn_refresh_mostro_info_from_settings_task0B9_
FN:791,_RNvNtNtNtCs1oYyZhp1ftr_7mostrix2ui11key_handler11async_tasks19create_app_channels
FN:727,_RNvNtNtNtCs1oYyZhp1ftr_7mostrix2ui11key_handler11async_tasks21respawn_chat_listener
FN:943,_RNvNtNtNtCs1oYyZhp1ftr_7mostrix2ui11key_handler11async_tasks21spawn_take_order_task
FN:60,_RNvNtNtNtCs1oYyZhp1ftr_7mostrix2ui11key_handler11async_tasks23clear_messages_or_fatal
FN:148,_RNvNtNtNtCs1oYyZhp1ftr_7mostrix2ui11key_handler11async_tasks23dm_transport_for_mostro
FN:1073,_RNvNtNtNtCs1oYyZhp1ftr_7mostrix2ui11key_handler11async_tasks23spawn_key_rotation_task
FN:239,_RNvNtNtNtCs1oYyZhp1ftr_7mostrix2ui11key_handler11async_tasks24apply_pending_key_reload
FN:171,_RNvNtNtNtCs1oYyZhp1ftr_7mostrix2ui11key_handler11async_tasks25respawn_trade_dm_listener
FN:852,_RNvNtNtNtCs1oYyZhp1ftr_7mostrix2ui11key_handler11async_tasks25spawn_send_new_order_task
FN:1148,_RNvNtNtNtCs1oYyZhp1ftr_7mostrix2ui11key_handler11async_tasks26spawn_load_seed_words_task
FN:119,_RNvNtNtNtCs1oYyZhp1ftr_7mostrix2ui11key_handler11async_tasks27clear_runtime_session_state
FN:545,_RNvNtNtNtCs1oYyZhp1ftr_7mostrix2ui11key_handler11async_tasks29apply_pending_runtime_reloads
FN:54,_RNvNtNtNtCs1oYyZhp1ftr_7mostrix2ui11key_handler11async_tasks29apply_poisoned_mutex_ui_fatal
FN:1023,_RNvNtNtNtCs1oYyZhp1ftr_7mostrix2ui11key_handler11async_tasks30spawn_refresh_mostro_info_task
FN:80,_RNvNtNtNtCs1oYyZhp1ftr_7mostrix2ui11key_handler11async_tasks35clear_active_order_indices_or_fatal
FN:412,_RNvNtNtNtCs1oYyZhp1ftr_7mostrix2ui11key_handler11async_tasks36apply_pending_fetch_scheduler_reload
FN:100,_RNvNtNtNtCs1oYyZhp1ftr_7mostrix2ui11key_handler11async_tasks36reset_pending_notifications_or_fatal
FN:892,_RNvNtNtNtCs1oYyZhp1ftr_7mostrix2ui11key_handler11async_tasks37spawn_verify_and_save_ln_address_task
FN:612,_RNvNtNtNtCs1oYyZhp1ftr_7mostrix2ui11key_handler11async_tasks38reload_runtime_session_after_reconnect
FN:978,_RNvNtNtNtCs1oYyZhp1ftr_7mostrix2ui11key_handler11async_tasks44spawn_refresh_mostro_info_from_settings_task
FN:133,_RNvNtNtNtCs1oYyZhp1ftr_7mostrix2ui11key_handler11async_tasks46clear_runtime_tracking_state_preserve_messages
FN:1066,_RNCNvNtNtNtCs1oYyZhp1ftr_7mostrix2ui11key_handler11async_tasks20spawn_add_relay_task0B9_
FN:1065,_RNvNtNtNtCs1oYyZhp1ftr_7mostrix2ui11key_handler11async_tasks20spawn_add_relay_task
FN:1102,_RNCNCNCNCNvNtNtNtCsbwworP4HFOr_7mostrix2ui11key_handler11async_tasks23spawn_key_rotation_task00s0_00Bf_
FN:749,_RNCNCNCNvNtNtNtCsbwworP4HFOr_7mostrix2ui11key_handler11async_tasks21respawn_chat_listener0s0_00Bd_
FN:1092,_RNCNCNCNvNtNtNtCsbwworP4HFOr_7mostrix2ui11key_handler11async_tasks23spawn_key_rotation_task000Bd_
FN:1102,_RNCNCNCNvNtNtNtCsbwworP4HFOr_7mostrix2ui11key_handler11async_tasks23spawn_key_rotation_task00s0_0Bd_
FN:1104,_RNCNCNCNvNtNtNtCsbwworP4HFOr_7mostrix2ui11key_handler11async_tasks23spawn_key_rotation_task00s1_0Bd_
FN:1112,_RNCNCNCNvNtNtNtCsbwworP4HFOr_7mostrix2ui11key_handler11async_tasks23spawn_key_rotation_task00s2_0Bd_
FN:1095,_RNCNCNCNvNtNtNtCsbwworP4HFOr_7mostrix2ui11key_handler11async_tasks23spawn_key_rotation_task00s_0Bd_
FN:352,_RNCNCNCNvNtNtNtCsbwworP4HFOr_7mostrix2ui11key_handler11async_tasks24apply_pending_key_reload000Bd_
FN:214,_RNCNCNCNvNtNtNtCsbwworP4HFOr_7mostrix2ui11key_handler11async_tasks25respawn_trade_dm_listener0s0_00Bd_
FN:515,_RNCNCNCNvNtNtNtCsbwworP4HFOr_7mostrix2ui11key_handler11async_tasks36apply_pending_fetch_scheduler_reload0s0_00Bd_
FN:694,_RNCNCNCNvNtNtNtCsbwworP4HFOr_7mostrix2ui11key_handler11async_tasks38reload_runtime_session_after_reconnect0s0_00Bd_
FN:738,_RNCNCNvNtNtNtCsbwworP4HFOr_7mostrix2ui11key_handler11async_tasks21respawn_chat_listener00Bb_
FN:748,_RNCNCNvNtNtNtCsbwworP4HFOr_7mostrix2ui11key_handler11async_tasks21respawn_chat_listener0s0_0Bb_
FN:743,_RNCNCNvNtNtNtCsbwworP4HFOr_7mostrix2ui11key_handler11async_tasks21respawn_chat_listener0s_0Bb_
FN:1081,_RNCNCNvNtNtNtCsbwworP4HFOr_7mostrix2ui11key_handler11async_tasks23spawn_key_rotation_task00Bb_
FN:351,_RNCNCNvNtNtNtCsbwworP4HFOr_7mostrix2ui11key_handler11async_tasks24apply_pending_key_reload00Bb_
FN:183,_RNCNCNvNtNtNtCsbwworP4HFOr_7mostrix2ui11key_handler11async_tasks25respawn_trade_dm_listener00Bb_
FN:213,_RNCNCNvNtNtNtCsbwworP4HFOr_7mostrix2ui11key_handler11async_tasks25respawn_trade_dm_listener0s0_0Bb_
FN:210,_RNCNCNvNtNtNtCsbwworP4HFOr_7mostrix2ui11key_handler11async_tasks25respawn_trade_dm_listener0s_0Bb_
FN:437,_RNCNCNvNtNtNtCsbwworP4HFOr_7mostrix2ui11key_handler11async_tasks36apply_pending_fetch_scheduler_reload00Bb_
FN:514,_RNCNCNvNtNtNtCsbwworP4HFOr_7mostrix2ui11key_handler11async_tasks36apply_pending_fetch_scheduler_reload0s0_0Bb_
FN:451,_RNCNCNvNtNtNtCsbwworP4HFOr_7mostrix2ui11key_handler11async_tasks36apply_pending_fetch_scheduler_reload0s_0Bb_
FN:626,_RNCNCNvNtNtNtCsbwworP4HFOr_7mostrix2ui11key_handler11async_tasks38reload_runtime_session_after_reconnect00Bb_
FN:693,_RNCNCNvNtNtNtCsbwworP4HFOr_7mostrix2ui11key_handler11async_tasks38reload_runtime_session_after_reconnect0s0_0Bb_
FN:628,_RNCNCNvNtNtNtCsbwworP4HFOr_7mostrix2ui11key_handler11async_tasks38reload_runtime_session_after_reconnect0s_0Bb_
FN:1066,_RNCNvNtNtNtCsbwworP4HFOr_7mostrix2ui11key_handler11async_tasks20spawn_add_relay_task0B9_
FN:735,_RNCNvNtNtNtCsbwworP4HFOr_7mostrix2ui11key_handler11async_tasks21respawn_chat_listener0B9_
FN:954,_RNCNvNtNtNtCsbwworP4HFOr_7mostrix2ui11key_handler11async_tasks21spawn_take_order_task0B9_
FN:153,_RNCNvNtNtNtCsbwworP4HFOr_7mostrix2ui11key_handler11async_tasks23dm_transport_for_mostro0B9_
FN:1080,_RNCNvNtNtNtCsbwworP4HFOr_7mostrix2ui11key_handler11async_tasks23spawn_key_rotation_task0B9_
FN:252,_RNCNvNtNtNtCsbwworP4HFOr_7mostrix2ui11key_handler11async_tasks24apply_pending_key_reload0B9_
FN:180,_RNCNvNtNtNtCsbwworP4HFOr_7mostrix2ui11key_handler11async_tasks25respawn_trade_dm_listener0B9_
FN:860,_RNCNvNtNtNtCsbwworP4HFOr_7mostrix2ui11key_handler11async_tasks25spawn_send_new_order_task0B9_
FN:1152,_RNCNvNtNtNtCsbwworP4HFOr_7mostrix2ui11key_handler11async_tasks26spawn_load_seed_words_task0B9_
FN:559,_RNCNvNtNtNtCsbwworP4HFOr_7mostrix2ui11key_handler11async_tasks29apply_pending_runtime_reloads0B9_
FN:1029,_RNCNvNtNtNtCsbwworP4HFOr_7mostrix2ui11key_handler11async_tasks30spawn_refresh_mostro_info_task0B9_
FN:426,_RNCNvNtNtNtCsbwworP4HFOr_7mostrix2ui11key_handler11async_tasks36apply_pending_fetch_scheduler_reload0B9_
FN:896,_RNCNvNtNtNtCsbwworP4HFOr_7mostrix2ui11key_handler11async_tasks37spawn_verify_and_save_ln_address_task0B9_
FN:614,_RNCNvNtNtNtCsbwworP4HFOr_7mostrix2ui11key_handler11async_tasks38reload_runtime_session_after_reconnect0B9_
FN:982,_RNCNvNtNtNtCsbwworP4HFOr_7mostrix2ui11key_handler11async_tasks44spawn_refresh_mostro_info_from_settings_task0B9_
FN:791,_RNvNtNtNtCsbwworP4HFOr_7mostrix2ui11key_handler11async_tasks19create_app_channels
FN:1065,_RNvNtNtNtCsbwworP4HFOr_7mostrix2ui11key_handler11async_tasks20spawn_add_relay_task
FN:727,_RNvNtNtNtCsbwworP4HFOr_7mostrix2ui11key_handler11async_tasks21respawn_chat_listener
FN:943,_RNvNtNtNtCsbwworP4HFOr_7mostrix2ui11key_handler11async_tasks21spawn_take_order_task
FN:60,_RNvNtNtNtCsbwworP4HFOr_7mostrix2ui11key_handler11async_tasks23clear_messages_or_fatal
FN:148,_RNvNtNtNtCsbwworP4HFOr_7mostrix2ui11key_handler11async_tasks23dm_transport_for_mostro
FN:1073,_RNvNtNtNtCsbwworP4HFOr_7mostrix2ui11key_handler11async_tasks23spawn_key_rotation_task
FN:239,_RNvNtNtNtCsbwworP4HFOr_7mostrix2ui11key_handler11async_tasks24apply_pending_key_reload
FN:171,_RNvNtNtNtCsbwworP4HFOr_7mostrix2ui11key_handler11async_tasks25respawn_trade_dm_listener
FN:852,_RNvNtNtNtCsbwworP4HFOr_7mostrix2ui11key_handler11async_tasks25spawn_send_new_order_task
FN:1148,_RNvNtNtNtCsbwworP4HFOr_7mostrix2ui11key_handler11async_tasks26spawn_load_seed_words_task
FN:119,_RNvNtNtNtCsbwworP4HFOr_7mostrix2ui11key_handler11async_tasks27clear_runtime_session_state
FN:545,_RNvNtNtNtCsbwworP4HFOr_7mostrix2ui11key_handler11async_tasks29apply_pending_runtime_reloads
FN:54,_RNvNtNtNtCsbwworP4HFOr_7mostrix2ui11key_handler11async_tasks29apply_poisoned_mutex_ui_fatal
FN:1023,_RNvNtNtNtCsbwworP4HFOr_7mostrix2ui11key_handler11async_tasks30spawn_refresh_mostro_info_task
FN:80,_RNvNtNtNtCsbwworP4HFOr_7mostrix2ui11key_handler11async_tasks35clear_active_order_indices_or_fatal
FN:412,_RNvNtNtNtCsbwworP4HFOr_7mostrix2ui11key_handler11async_tasks36apply_pending_fetch_scheduler_reload
FN:100,_RNvNtNtNtCsbwworP4HFOr_7mostrix2ui11key_handler11async_tasks36reset_pending_notifications_or_fatal
FN:892,_RNvNtNtNtCsbwworP4HFOr_7mostrix2ui11key_handler11async_tasks37spawn_verify_and_save_ln_address_task
FN:612,_RNvNtNtNtCsbwworP4HFOr_7mostrix2ui11key_handler11async_tasks38reload_runtime_session_after_reconnect
FN:978,_RNvNtNtNtCsbwworP4HFOr_7mostrix2ui11key_handler11async_tasks44spawn_refresh_mostro_info_from_settings_task
FN:133,_RNvNtNtNtCsbwworP4HFOr_7mostrix2ui11key_handler11async_tasks46clear_runtime_tracking_state_preserve_messages
FNDA:0,_RNCNCNCNvNtNtNtCsaruqlPBEY0K_7mostrix2ui11key_handler11async_tasks21respawn_chat_listener0s0_00Bd_
FNDA:0,_RNCNCNCNvNtNtNtCsaruqlPBEY0K_7mostrix2ui11key_handler11async_tasks24apply_pending_key_reload000Bd_
FNDA:0,_RNCNCNCNvNtNtNtCsaruqlPBEY0K_7mostrix2ui11key_handler11async_tasks25respawn_trade_dm_listener0s0_00Bd_
FNDA:0,_RNCNCNCNvNtNtNtCsaruqlPBEY0K_7mostrix2ui11key_handler11async_tasks36apply_pending_fetch_scheduler_reload0s0_00Bd_
FNDA:0,_RNCNCNCNvNtNtNtCsaruqlPBEY0K_7mostrix2ui11key_handler11async_tasks38reload_runtime_session_after_reconnect0s0_00Bd_
FNDA:0,_RNCNCNvNtNtNtCsaruqlPBEY0K_7mostrix2ui11key_handler11async_tasks21respawn_chat_listener00Bb_
FNDA:0,_RNCNCNvNtNtNtCsaruqlPBEY0K_7mostrix2ui11key_handler11async_tasks21respawn_chat_listener0s0_0Bb_
FNDA:0,_RNCNCNvNtNtNtCsaruqlPBEY0K_7mostrix2ui11key_handler11async_tasks21respawn_chat_listener0s_0Bb_
FNDA:0,_RNCNCNvNtNtNtCsaruqlPBEY0K_7mostrix2ui11key_handler11async_tasks24apply_pending_key_reload00Bb_
FNDA:0,_RNCNCNvNtNtNtCsaruqlPBEY0K_7mostrix2ui11key_handler11async_tasks25respawn_trade_dm_listener00Bb_
FNDA:0,_RNCNCNvNtNtNtCsaruqlPBEY0K_7mostrix2ui11key_handler11async_tasks25respawn_trade_dm_listener0s0_0Bb_
FNDA:0,_RNCNCNvNtNtNtCsaruqlPBEY0K_7mostrix2ui11key_handler11async_tasks25respawn_trade_dm_listener0s_0Bb_
FNDA:0,_RNCNCNvNtNtNtCsaruqlPBEY0K_7mostrix2ui11key_handler11async_tasks36apply_pending_fetch_scheduler_reload00Bb_
FNDA:0,_RNCNCNvNtNtNtCsaruqlPBEY0K_7mostrix2ui11key_handler11async_tasks36apply_pending_fetch_scheduler_reload0s0_0Bb_
FNDA:0,_RNCNCNvNtNtNtCsaruqlPBEY0K_7mostrix2ui11key_handler11async_tasks36apply_pending_fetch_scheduler_reload0s_0Bb_
FNDA:0,_RNCNCNvNtNtNtCsaruqlPBEY0K_7mostrix2ui11key_handler11async_tasks38reload_runtime_session_after_reconnect00Bb_
FNDA:0,_RNCNCNvNtNtNtCsaruqlPBEY0K_7mostrix2ui11key_handler11async_tasks38reload_runtime_session_after_reconnect0s0_0Bb_
FNDA:0,_RNCNCNvNtNtNtCsaruqlPBEY0K_7mostrix2ui11key_handler11async_tasks38reload_runtime_session_after_reconnect0s_0Bb_
FNDA:0,_RNCNvNtNtNtCsaruqlPBEY0K_7mostrix2ui11key_handler11async_tasks21respawn_chat_listener0B9_
FNDA:0,_RNCNvNtNtNtCsaruqlPBEY0K_7mostrix2ui11key_handler11async_tasks23dm_transport_for_mostro0B9_
FNDA:0,_RNCNvNtNtNtCsaruqlPBEY0K_7mostrix2ui11key_handler11async_tasks24apply_pending_key_reload0B9_
FNDA:0,_RNCNvNtNtNtCsaruqlPBEY0K_7mostrix2ui11key_handler11async_tasks25respawn_trade_dm_listener0B9_
FNDA:0,_RNCNvNtNtNtCsaruqlPBEY0K_7mostrix2ui11key_handler11async_tasks29apply_pending_runtime_reloads0B9_
FNDA:0,_RNCNvNtNtNtCsaruqlPBEY0K_7mostrix2ui11key_handler11async_tasks36apply_pending_fetch_scheduler_reload0B9_
FNDA:0,_RNCNvNtNtNtCsaruqlPBEY0K_7mostrix2ui11key_handler11async_tasks38reload_runtime_session_after_reconnect0B9_
FNDA:0,_RNCNCNCNCNvNtNtNtCsaruqlPBEY0K_7mostrix2ui11key_handler11async_tasks23spawn_key_rotation_task00s0_00Bf_
FNDA:0,_RNCNCNCNvNtNtNtCsaruqlPBEY0K_7mostrix2ui11key_handler11async_tasks23spawn_key_rotation_task000Bd_
FNDA:0,_RNCNCNCNvNtNtNtCsaruqlPBEY0K_7mostrix2ui11key_handler11async_tasks23spawn_key_rotation_task00s0_0Bd_
FNDA:0,_RNCNCNCNvNtNtNtCsaruqlPBEY0K_7mostrix2ui11key_handler11async_tasks23spawn_key_rotation_task00s1_0Bd_
FNDA:0,_RNCNCNCNvNtNtNtCsaruqlPBEY0K_7mostrix2ui11key_handler11async_tasks23spawn_key_rotation_task00s2_0Bd_
FNDA:0,_RNCNCNCNvNtNtNtCsaruqlPBEY0K_7mostrix2ui11key_handler11async_tasks23spawn_key_rotation_task00s_0Bd_
FNDA:0,_RNCNCNvNtNtNtCsaruqlPBEY0K_7mostrix2ui11key_handler11async_tasks23spawn_key_rotation_task00Bb_
FNDA:0,_RNCNvNtNtNtCsaruqlPBEY0K_7mostrix2ui11key_handler11async_tasks20spawn_add_relay_task0B9_
FNDA:0,_RNCNvNtNtNtCsaruqlPBEY0K_7mostrix2ui11key_handler11async_tasks21spawn_take_order_task0B9_
FNDA:0,_RNCNvNtNtNtCsaruqlPBEY0K_7mostrix2ui11key_handler11async_tasks23spawn_key_rotation_task0B9_
FNDA:0,_RNCNvNtNtNtCsaruqlPBEY0K_7mostrix2ui11key_handler11async_tasks25spawn_send_new_order_task0B9_
FNDA:0,_RNCNvNtNtNtCsaruqlPBEY0K_7mostrix2ui11key_handler11async_tasks26spawn_load_seed_words_task0B9_
FNDA:0,_RNCNvNtNtNtCsaruqlPBEY0K_7mostrix2ui11key_handler11async_tasks30spawn_refresh_mostro_info_task0B9_
FNDA:0,_RNCNvNtNtNtCsaruqlPBEY0K_7mostrix2ui11key_handler11async_tasks37spawn_verify_and_save_ln_address_task0B9_
FNDA:0,_RNCNvNtNtNtCsaruqlPBEY0K_7mostrix2ui11key_handler11async_tasks44spawn_refresh_mostro_info_from_settings_task0B9_
FNDA:0,_RNvNtNtNtCsaruqlPBEY0K_7mostrix2ui11key_handler11async_tasks19create_app_channels
FNDA:0,_RNvNtNtNtCsaruqlPBEY0K_7mostrix2ui11key_handler11async_tasks20spawn_add_relay_task
FNDA:0,_RNvNtNtNtCsaruqlPBEY0K_7mostrix2ui11key_handler11async_tasks21respawn_chat_listener
FNDA:0,_RNvNtNtNtCsaruqlPBEY0K_7mostrix2ui11key_handler11async_tasks21spawn_take_order_task
FNDA:0,_RNvNtNtNtCsaruqlPBEY0K_7mostrix2ui11key_handler11async_tasks23clear_messages_or_fatal
FNDA:0,_RNvNtNtNtCsaruqlPBEY0K_7mostrix2ui11key_handler11async_tasks23dm_transport_for_mostro
FNDA:0,_RNvNtNtNtCsaruqlPBEY0K_7mostrix2ui11key_handler11async_tasks23spawn_key_rotation_task
FNDA:0,_RNvNtNtNtCsaruqlPBEY0K_7mostrix2ui11key_handler11async_tasks24apply_pending_key_reload
FNDA:0,_RNvNtNtNtCsaruqlPBEY0K_7mostrix2ui11key_handler11async_tasks25respawn_trade_dm_listener
FNDA:0,_RNvNtNtNtCsaruqlPBEY0K_7mostrix2ui11key_handler11async_tasks25spawn_send_new_order_task
FNDA:0,_RNvNtNtNtCsaruqlPBEY0K_7mostrix2ui11key_handler11async_tasks26spawn_load_seed_words_task
FNDA:0,_RNvNtNtNtCsaruqlPBEY0K_7mostrix2ui11key_handler11async_tasks27clear_runtime_session_state
FNDA:0,_RNvNtNtNtCsaruqlPBEY0K_7mostrix2ui11key_handler11async_tasks29apply_pending_runtime_reloads
FNDA:0,_RNvNtNtNtCsaruqlPBEY0K_7mostrix2ui11key_handler11async_tasks29apply_poisoned_mutex_ui_fatal
FNDA:0,_RNvNtNtNtCsaruqlPBEY0K_7mostrix2ui11key_handler11async_tasks30spawn_refresh_mostro_info_task
FNDA:0,_RNvNtNtNtCsaruqlPBEY0K_7mostrix2ui11key_handler11async_tasks35clear_active_order_indices_or_fatal
FNDA:0,_RNvNtNtNtCsaruqlPBEY0K_7mostrix2ui11key_handler11async_tasks36apply_pending_fetch_scheduler_reload
FNDA:0,_RNvNtNtNtCsaruqlPBEY0K_7mostrix2ui11key_handler11async_tasks36reset_pending_notifications_or_fatal
FNDA:0,_RNvNtNtNtCsaruqlPBEY0K_7mostrix2ui11key_handler11async_tasks37spawn_verify_and_save_ln_address_task
FNDA:0,_RNvNtNtNtCsaruqlPBEY0K_7mostrix2ui11key_handler11async_tasks38reload_runtime_session_after_reconnect
FNDA:0,_RNvNtNtNtCsaruqlPBEY0K_7mostrix2ui11key_handler11async_tasks44spawn_refresh_mostro_info_from_settings_task
FNDA:0,_RNvNtNtNtCsaruqlPBEY0K_7mostrix2ui11key_handler11async_tasks46clear_runtime_tracking_state_preserve_messages
FNDA:0,_RNCNCNCNCNvNtNtNtCs3smmrQNj5EW_7mostrix2ui11key_handler11async_tasks23spawn_key_rotation_task00s0_00Bf_
FNDA:0,_RNCNCNCNvNtNtNtCs3smmrQNj5EW_7mostrix2ui11key_handler11async_tasks21respawn_chat_listener0s0_00Bd_
FNDA:0,_RNCNCNCNvNtNtNtCs3smmrQNj5EW_7mostrix2ui11key_handler11async_tasks23spawn_key_rotation_task000Bd_
FNDA:0,_RNCNCNCNvNtNtNtCs3smmrQNj5EW_7mostrix2ui11key_handler11async_tasks23spawn_key_rotation_task00s0_0Bd_
FNDA:0,_RNCNCNCNvNtNtNtCs3smmrQNj5EW_7mostrix2ui11key_handler11async_tasks23spawn_key_rotation_task00s1_0Bd_
FNDA:0,_RNCNCNCNvNtNtNtCs3smmrQNj5EW_7mostrix2ui11key_handler11async_tasks23spawn_key_rotation_task00s2_0Bd_
FNDA:0,_RNCNCNCNvNtNtNtCs3smmrQNj5EW_7mostrix2ui11key_handler11async_tasks23spawn_key_rotation_task00s_0Bd_
FNDA:0,_RNCNCNCNvNtNtNtCs3smmrQNj5EW_7mostrix2ui11key_handler11async_tasks24apply_pending_key_reload000Bd_
FNDA:0,_RNCNCNCNvNtNtNtCs3smmrQNj5EW_7mostrix2ui11key_handler11async_tasks25respawn_trade_dm_listener0s0_00Bd_
FNDA:0,_RNCNCNCNvNtNtNtCs3smmrQNj5EW_7mostrix2ui11key_handler11async_tasks36apply_pending_fetch_scheduler_reload0s0_00Bd_
FNDA:0,_RNCNCNCNvNtNtNtCs3smmrQNj5EW_7mostrix2ui11key_handler11async_tasks38reload_runtime_session_after_reconnect0s0_00Bd_
FNDA:0,_RNCNCNvNtNtNtCs3smmrQNj5EW_7mostrix2ui11key_handler11async_tasks21respawn_chat_listener00Bb_
FNDA:0,_RNCNCNvNtNtNtCs3smmrQNj5EW_7mostrix2ui11key_handler11async_tasks21respawn_chat_listener0s0_0Bb_
FNDA:0,_RNCNCNvNtNtNtCs3smmrQNj5EW_7mostrix2ui11key_handler11async_tasks21respawn_chat_listener0s_0Bb_
FNDA:0,_RNCNCNvNtNtNtCs3smmrQNj5EW_7mostrix2ui11key_handler11async_tasks23spawn_key_rotation_task00Bb_
FNDA:0,_RNCNCNvNtNtNtCs3smmrQNj5EW_7mostrix2ui11key_handler11async_tasks24apply_pending_key_reload00Bb_
FNDA:0,_RNCNCNvNtNtNtCs3smmrQNj5EW_7mostrix2ui11key_handler11async_tasks25respawn_trade_dm_listener00Bb_
FNDA:0,_RNCNCNvNtNtNtCs3smmrQNj5EW_7mostrix2ui11key_handler11async_tasks25respawn_trade_dm_listener0s0_0Bb_
FNDA:0,_RNCNCNvNtNtNtCs3smmrQNj5EW_7mostrix2ui11key_handler11async_tasks25respawn_trade_dm_listener0s_0Bb_
FNDA:0,_RNCNCNvNtNtNtCs3smmrQNj5EW_7mostrix2ui11key_handler11async_tasks36apply_pending_fetch_scheduler_reload00Bb_
FNDA:0,_RNCNCNvNtNtNtCs3smmrQNj5EW_7mostrix2ui11key_handler11async_tasks36apply_pending_fetch_scheduler_reload0s0_0Bb_
FNDA:0,_RNCNCNvNtNtNtCs3smmrQNj5EW_7mostrix2ui11key_handler11async_tasks36apply_pending_fetch_scheduler_reload0s_0Bb_
FNDA:0,_RNCNCNvNtNtNtCs3smmrQNj5EW_7mostrix2ui11key_handler11async_tasks38reload_runtime_session_after_reconnect00Bb_
FNDA:0,_RNCNCNvNtNtNtCs3smmrQNj5EW_7mostrix2ui11key_handler11async_tasks38reload_runtime_session_after_reconnect0s0_0Bb_
FNDA:0,_RNCNCNvNtNtNtCs3smmrQNj5EW_7mostrix2ui11key_handler11async_tasks38reload_runtime_session_after_reconnect0s_0Bb_
FNDA:0,_RNCNvNtNtNtCs3smmrQNj5EW_7mostrix2ui11key_handler11async_tasks20spawn_add_relay_task0B9_
FNDA:0,_RNCNvNtNtNtCs3smmrQNj5EW_7mostrix2ui11key_handler11async_tasks21respawn_chat_listener0B9_
FNDA:0,_RNCNvNtNtNtCs3smmrQNj5EW_7mostrix2ui11key_handler11async_tasks21spawn_take_order_task0B9_
FNDA:0,_RNCNvNtNtNtCs3smmrQNj5EW_7mostrix2ui11key_handler11async_tasks23dm_transport_for_mostro0B9_
FNDA:0,_RNCNvNtNtNtCs3smmrQNj5EW_7mostrix2ui11key_handler11async_tasks23spawn_key_rotation_task0B9_
FNDA:0,_RNCNvNtNtNtCs3smmrQNj5EW_7mostrix2ui11key_handler11async_tasks24apply_pending_key_reload0B9_
FNDA:0,_RNCNvNtNtNtCs3smmrQNj5EW_7mostrix2ui11key_handler11async_tasks25respawn_trade_dm_listener0B9_
FNDA:0,_RNCNvNtNtNtCs3smmrQNj5EW_7mostrix2ui11key_handler11async_tasks25spawn_send_new_order_task0B9_
FNDA:0,_RNCNvNtNtNtCs3smmrQNj5EW_7mostrix2ui11key_handler11async_tasks26spawn_load_seed_words_task0B9_
FNDA:0,_RNCNvNtNtNtCs3smmrQNj5EW_7mostrix2ui11key_handler11async_tasks29apply_pending_runtime_reloads0B9_
FNDA:0,_RNCNvNtNtNtCs3smmrQNj5EW_7mostrix2ui11key_handler11async_tasks30spawn_refresh_mostro_info_task0B9_
FNDA:0,_RNCNvNtNtNtCs3smmrQNj5EW_7mostrix2ui11key_handler11async_tasks36apply_pending_fetch_scheduler_reload0B9_
FNDA:0,_RNCNvNtNtNtCs3smmrQNj5EW_7mostrix2ui11key_handler11async_tasks37spawn_verify_and_save_ln_address_task0B9_
FNDA:0,_RNCNvNtNtNtCs3smmrQNj5EW_7mostrix2ui11key_handler11async_tasks38reload_runtime_session_after_reconnect0B9_
FNDA:0,_RNCNvNtNtNtCs3smmrQNj5EW_7mostrix2ui11key_handler11async_tasks44spawn_refresh_mostro_info_from_settings_task0B9_
FNDA:0,_RNvNtNtNtCs3smmrQNj5EW_7mostrix2ui11key_handler11async_tasks19create_app_channels
FNDA:0,_RNvNtNtNtCs3smmrQNj5EW_7mostrix2ui11key_handler11async_tasks20spawn_add_relay_task
FNDA:0,_RNvNtNtNtCs3smmrQNj5EW_7mostrix2ui11key_handler11async_tasks21respawn_chat_listener
FNDA:0,_RNvNtNtNtCs3smmrQNj5EW_7mostrix2ui11key_handler11async_tasks21spawn_take_order_task
FNDA:0,_RNvNtNtNtCs3smmrQNj5EW_7mostrix2ui11key_handler11async_tasks23clear_messages_or_fatal
FNDA:0,_RNvNtNtNtCs3smmrQNj5EW_7mostrix2ui11key_handler11async_tasks23dm_transport_for_mostro
FNDA:0,_RNvNtNtNtCs3smmrQNj5EW_7mostrix2ui11key_handler11async_tasks23spawn_key_rotation_task
FNDA:0,_RNvNtNtNtCs3smmrQNj5EW_7mostrix2ui11key_handler11async_tasks24apply_pending_key_reload
FNDA:0,_RNvNtNtNtCs3smmrQNj5EW_7mostrix2ui11key_handler11async_tasks25respawn_trade_dm_listener
FNDA:0,_RNvNtNtNtCs3smmrQNj5EW_7mostrix2ui11key_handler11async_tasks25spawn_send_new_order_task
FNDA:0,_RNvNtNtNtCs3smmrQNj5EW_7mostrix2ui11key_handler11async_tasks26spawn_load_seed_words_task
FNDA:0,_RNvNtNtNtCs3smmrQNj5EW_7mostrix2ui11key_handler11async_tasks27clear_runtime_session_state
FNDA:0,_RNvNtNtNtCs3smmrQNj5EW_7mostrix2ui11key_handler11async_tasks29apply_pending_runtime_reloads
FNDA:0,_RNvNtNtNtCs3smmrQNj5EW_7mostrix2ui11key_handler11async_tasks29apply_poisoned_mutex_ui_fatal
FNDA:0,_RNvNtNtNtCs3smmrQNj5EW_7mostrix2ui11key_handler11async_tasks30spawn_refresh_mostro_info_task
FNDA:0,_RNvNtNtNtCs3smmrQNj5EW_7mostrix2ui11key_handler11async_tasks35clear_active_order_indices_or_fatal
FNDA:0,_RNvNtNtNtCs3smmrQNj5EW_7mostrix2ui11key_handler11async_tasks36apply_pending_fetch_scheduler_reload
FNDA:0,_RNvNtNtNtCs3smmrQNj5EW_7mostrix2ui11key_handler11async_tasks36reset_pending_notifications_or_fatal
FNDA:0,_RNvNtNtNtCs3smmrQNj5EW_7mostrix2ui11key_handler11async_tasks37spawn_verify_and_save_ln_address_task
FNDA:0,_RNvNtNtNtCs3smmrQNj5EW_7mostrix2ui11key_handler11async_tasks38reload_runtime_session_after_reconnect
FNDA:0,_RNvNtNtNtCs3smmrQNj5EW_7mostrix2ui11key_handler11async_tasks44spawn_refresh_mostro_info_from_settings_task
FNDA:0,_RNvNtNtNtCs3smmrQNj5EW_7mostrix2ui11key_handler11async_tasks46clear_runtime_tracking_state_preserve_messages
FNDA:0,_RNCNCNCNCNvNtNtNtCs1oYyZhp1ftr_7mostrix2ui11key_handler11async_tasks23spawn_key_rotation_task00s0_00Bf_
FNDA:0,_RNCNCNCNvNtNtNtCs1oYyZhp1ftr_7mostrix2ui11key_handler11async_tasks21respawn_chat_listener0s0_00Bd_
FNDA:0,_RNCNCNCNvNtNtNtCs1oYyZhp1ftr_7mostrix2ui11key_handler11async_tasks23spawn_key_rotation_task000Bd_
FNDA:0,_RNCNCNCNvNtNtNtCs1oYyZhp1ftr_7mostrix2ui11key_handler11async_tasks23spawn_key_rotation_task00s0_0Bd_
FNDA:0,_RNCNCNCNvNtNtNtCs1oYyZhp1ftr_7mostrix2ui11key_handler11async_tasks23spawn_key_rotation_task00s1_0Bd_
FNDA:0,_RNCNCNCNvNtNtNtCs1oYyZhp1ftr_7mostrix2ui11key_handler11async_tasks23spawn_key_rotation_task00s2_0Bd_
FNDA:0,_RNCNCNCNvNtNtNtCs1oYyZhp1ftr_7mostrix2ui11key_handler11async_tasks23spawn_key_rotation_task00s_0Bd_
FNDA:0,_RNCNCNCNvNtNtNtCs1oYyZhp1ftr_7mostrix2ui11key_handler11async_tasks24apply_pending_key_reload000Bd_
FNDA:0,_RNCNCNCNvNtNtNtCs1oYyZhp1ftr_7mostrix2ui11key_handler11async_tasks25respawn_trade_dm_listener0s0_00Bd_
FNDA:0,_RNCNCNCNvNtNtNtCs1oYyZhp1ftr_7mostrix2ui11key_handler11async_tasks36apply_pending_fetch_scheduler_reload0s0_00Bd_
FNDA:0,_RNCNCNCNvNtNtNtCs1oYyZhp1ftr_7mostrix2ui11key_handler11async_tasks38reload_runtime_session_after_reconnect0s0_00Bd_
FNDA:0,_RNCNCNvNtNtNtCs1oYyZhp1ftr_7mostrix2ui11key_handler11async_tasks21respawn_chat_listener00Bb_
FNDA:0,_RNCNCNvNtNtNtCs1oYyZhp1ftr_7mostrix2ui11key_handler11async_tasks21respawn_chat_listener0s0_0Bb_
FNDA:0,_RNCNCNvNtNtNtCs1oYyZhp1ftr_7mostrix2ui11key_handler11async_tasks21respawn_chat_listener0s_0Bb_
FNDA:0,_RNCNCNvNtNtNtCs1oYyZhp1ftr_7mostrix2ui11key_handler11async_tasks23spawn_key_rotation_task00Bb_
FNDA:0,_RNCNCNvNtNtNtCs1oYyZhp1ftr_7mostrix2ui11key_handler11async_tasks24apply_pending_key_reload00Bb_
FNDA:0,_RNCNCNvNtNtNtCs1oYyZhp1ftr_7mostrix2ui11key_handler11async_tasks25respawn_trade_dm_listener00Bb_
FNDA:0,_RNCNCNvNtNtNtCs1oYyZhp1ftr_7mostrix2ui11key_handler11async_tasks25respawn_trade_dm_listener0s0_0Bb_
FNDA:0,_RNCNCNvNtNtNtCs1oYyZhp1ftr_7mostrix2ui11key_handler11async_tasks25respawn_trade_dm_listener0s_0Bb_
FNDA:0,_RNCNCNvNtNtNtCs1oYyZhp1ftr_7mostrix2ui11key_handler11async_tasks36apply_pending_fetch_scheduler_reload00Bb_
FNDA:0,_RNCNCNvNtNtNtCs1oYyZhp1ftr_7mostrix2ui11key_handler11async_tasks36apply_pending_fetch_scheduler_reload0s0_0Bb_
FNDA:0,_RNCNCNvNtNtNtCs1oYyZhp1ftr_7mostrix2ui11key_handler11async_tasks36apply_pending_fetch_scheduler_reload0s_0Bb_
FNDA:0,_RNCNCNvNtNtNtCs1oYyZhp1ftr_7mostrix2ui11key_handler11async_tasks38reload_runtime_session_after_reconnect00Bb_
FNDA:0,_RNCNCNvNtNtNtCs1oYyZhp1ftr_7mostrix2ui11key_handler11async_tasks38reload_runtime_session_after_reconnect0s0_0Bb_
FNDA:0,_RNCNCNvNtNtNtCs1oYyZhp1ftr_7mostrix2ui11key_handler11async_tasks38reload_runtime_session_after_reconnect0s_0Bb_
FNDA:0,_RNCNvNtNtNtCs1oYyZhp1ftr_7mostrix2ui11key_handler11async_tasks21respawn_chat_listener0B9_
FNDA:0,_RNCNvNtNtNtCs1oYyZhp1ftr_7mostrix2ui11key_handler11async_tasks21spawn_take_order_task0B9_
FNDA:0,_RNCNvNtNtNtCs1oYyZhp1ftr_7mostrix2ui11key_handler11async_tasks23dm_transport_for_mostro0B9_
FNDA:0,_RNCNvNtNtNtCs1oYyZhp1ftr_7mostrix2ui11key_handler11async_tasks23spawn_key_rotation_task0B9_
FNDA:0,_RNCNvNtNtNtCs1oYyZhp1ftr_7mostrix2ui11key_handler11async_tasks24apply_pending_key_reload0B9_
FNDA:0,_RNCNvNtNtNtCs1oYyZhp1ftr_7mostrix2ui11key_handler11async_tasks25respawn_trade_dm_listener0B9_
FNDA:0,_RNCNvNtNtNtCs1oYyZhp1ftr_7mostrix2ui11key_handler11async_tasks25spawn_send_new_order_task0B9_
FNDA:0,_RNCNvNtNtNtCs1oYyZhp1ftr_7mostrix2ui11key_handler11async_tasks26spawn_load_seed_words_task0B9_
FNDA:0,_RNCNvNtNtNtCs1oYyZhp1ftr_7mostrix2ui11key_handler11async_tasks29apply_pending_runtime_reloads0B9_
FNDA:0,_RNCNvNtNtNtCs1oYyZhp1ftr_7mostrix2ui11key_handler11async_tasks30spawn_refresh_mostro_info_task0B9_
FNDA:0,_RNCNvNtNtNtCs1oYyZhp1ftr_7mostrix2ui11key_handler11async_tasks36apply_pending_fetch_scheduler_reload0B9_
FNDA:0,_RNCNvNtNtNtCs1oYyZhp1ftr_7mostrix2ui11key_handler11async_tasks37spawn_verify_and_save_ln_address_task0B9_
FNDA:0,_RNCNvNtNtNtCs1oYyZhp1ftr_7mostrix2ui11key_handler11async_tasks38reload_runtime_session_after_reconnect0B9_
FNDA:0,_RNCNvNtNtNtCs1oYyZhp1ftr_7mostrix2ui11key_handler11async_tasks44spawn_refresh_mostro_info_from_settings_task0B9_
FNDA:0,_RNvNtNtNtCs1oYyZhp1ftr_7mostrix2ui11key_handler11async_tasks19create_app_channels
FNDA:0,_RNvNtNtNtCs1oYyZhp1ftr_7mostrix2ui11key_handler11async_tasks21respawn_chat_listener
FNDA:0,_RNvNtNtNtCs1oYyZhp1ftr_7mostrix2ui11key_handler11async_tasks21spawn_take_order_task
FNDA:0,_RNvNtNtNtCs1oYyZhp1ftr_7mostrix2ui11key_handler11async_tasks23clear_messages_or_fatal
FNDA:0,_RNvNtNtNtCs1oYyZhp1ftr_7mostrix2ui11key_handler11async_tasks23dm_transport_for_mostro
FNDA:0,_RNvNtNtNtCs1oYyZhp1ftr_7mostrix2ui11key_handler11async_tasks23spawn_key_rotation_task
FNDA:0,_RNvNtNtNtCs1oYyZhp1ftr_7mostrix2ui11key_handler11async_tasks24apply_pending_key_reload
FNDA:0,_RNvNtNtNtCs1oYyZhp1ftr_7mostrix2ui11key_handler11async_tasks25respawn_trade_dm_listener
FNDA:0,_RNvNtNtNtCs1oYyZhp1ftr_7mostrix2ui11key_handler11async_tasks25spawn_send_new_order_task
FNDA:0,_RNvNtNtNtCs1oYyZhp1ftr_7mostrix2ui11key_handler11async_tasks26spawn_load_seed_words_task
FNDA:0,_RNvNtNtNtCs1oYyZhp1ftr_7mostrix2ui11key_handler11async_tasks27clear_runtime_session_state
FNDA:0,_RNvNtNtNtCs1oYyZhp1ftr_7mostrix2ui11key_handler11async_tasks29apply_pending_runtime_reloads
FNDA:0,_RNvNtNtNtCs1oYyZhp1ftr_7mostrix2ui11key_handler11async_tasks29apply_poisoned_mutex_ui_fatal
FNDA:0,_RNvNtNtNtCs1oYyZhp1ftr_7mostrix2ui11key_handler11async_tasks30spawn_refresh_mostro_info_task
FNDA:0,_RNvNtNtNtCs1oYyZhp1ftr_7mostrix2ui11key_handler11async_tasks35clear_active_order_indices_or_fatal
FNDA:0,_RNvNtNtNtCs1oYyZhp1ftr_7mostrix2ui11key_handler11async_tasks36apply_pending_fetch_scheduler_reload
FNDA:0,_RNvNtNtNtCs1oYyZhp1ftr_7mostrix2ui11key_handler11async_tasks36reset_pending_notifications_or_fatal
FNDA:0,_RNvNtNtNtCs1oYyZhp1ftr_7mostrix2ui11key_handler11async_tasks37spawn_verify_and_save_ln_address_task
FNDA:0,_RNvNtNtNtCs1oYyZhp1ftr_7mostrix2ui11key_handler11async_tasks38reload_runtime_session_after_reconnect
FNDA:0,_RNvNtNtNtCs1oYyZhp1ftr_7mostrix2ui11key_handler11async_tasks44spawn_refresh_mostro_info_from_settings_task
FNDA:0,_RNvNtNtNtCs1oYyZhp1ftr_7mostrix2ui11key_handler11async_tasks46clear_runtime_tracking_state_preserve_messages
FNDA:0,_RNCNvNtNtNtCs1oYyZhp1ftr_7mostrix2ui11key_handler11async_tasks20spawn_add_relay_task0B9_
FNDA:0,_RNvNtNtNtCs1oYyZhp1ftr_7mostrix2ui11key_handler11async_tasks20spawn_add_relay_task
FNDA:0,_RNCNCNCNCNvNtNtNtCsbwworP4HFOr_7mostrix2ui11key_handler11async_tasks23spawn_key_rotation_task00s0_00Bf_
FNDA:0,_RNCNCNCNvNtNtNtCsbwworP4HFOr_7mostrix2ui11key_handler11async_tasks21respawn_chat_listener0s0_00Bd_
FNDA:0,_RNCNCNCNvNtNtNtCsbwworP4HFOr_7mostrix2ui11key_handler11async_tasks23spawn_key_rotation_task000Bd_
FNDA:0,_RNCNCNCNvNtNtNtCsbwworP4HFOr_7mostrix2ui11key_handler11async_tasks23spawn_key_rotation_task00s0_0Bd_
FNDA:0,_RNCNCNCNvNtNtNtCsbwworP4HFOr_7mostrix2ui11key_handler11async_tasks23spawn_key_rotation_task00s1_0Bd_
FNDA:0,_RNCNCNCNvNtNtNtCsbwworP4HFOr_7mostrix2ui11key_handler11async_tasks23spawn_key_rotation_task00s2_0Bd_
FNDA:0,_RNCNCNCNvNtNtNtCsbwworP4HFOr_7mostrix2ui11key_handler11async_tasks23spawn_key_rotation_task00s_0Bd_
FNDA:0,_RNCNCNCNvNtNtNtCsbwworP4HFOr_7mostrix2ui11key_handler11async_tasks24apply_pending_key_reload000Bd_
FNDA:0,_RNCNCNCNvNtNtNtCsbwworP4HFOr_7mostrix2ui11key_handler11async_tasks25respawn_trade_dm_listener0s0_00Bd_
FNDA:0,_RNCNCNCNvNtNtNtCsbwworP4HFOr_7mostrix2ui11key_handler11async_tasks36apply_pending_fetch_scheduler_reload0s0_00Bd_
FNDA:0,_RNCNCNCNvNtNtNtCsbwworP4HFOr_7mostrix2ui11key_handler11async_tasks38reload_runtime_session_after_reconnect0s0_00Bd_
FNDA:0,_RNCNCNvNtNtNtCsbwworP4HFOr_7mostrix2ui11key_handler11async_tasks21respawn_chat_listener00Bb_
FNDA:0,_RNCNCNvNtNtNtCsbwworP4HFOr_7mostrix2ui11key_handler11async_tasks21respawn_chat_listener0s0_0Bb_
FNDA:0,_RNCNCNvNtNtNtCsbwworP4HFOr_7mostrix2ui11key_handler11async_tasks21respawn_chat_listener0s_0Bb_
FNDA:0,_RNCNCNvNtNtNtCsbwworP4HFOr_7mostrix2ui11key_handler11async_tasks23spawn_key_rotation_task00Bb_
FNDA:0,_RNCNCNvNtNtNtCsbwworP4HFOr_7mostrix2ui11key_handler11async_tasks24apply_pending_key_reload00Bb_
FNDA:0,_RNCNCNvNtNtNtCsbwworP4HFOr_7mostrix2ui11key_handler11async_tasks25respawn_trade_dm_listener00Bb_
FNDA:0,_RNCNCNvNtNtNtCsbwworP4HFOr_7mostrix2ui11key_handler11async_tasks25respawn_trade_dm_listener0s0_0Bb_
FNDA:0,_RNCNCNvNtNtNtCsbwworP4HFOr_7mostrix2ui11key_handler11async_tasks25respawn_trade_dm_listener0s_0Bb_
FNDA:0,_RNCNCNvNtNtNtCsbwworP4HFOr_7mostrix2ui11key_handler11async_tasks36apply_pending_fetch_scheduler_reload00Bb_
FNDA:0,_RNCNCNvNtNtNtCsbwworP4HFOr_7mostrix2ui11key_handler11async_tasks36apply_pending_fetch_scheduler_reload0s0_0Bb_
FNDA:0,_RNCNCNvNtNtNtCsbwworP4HFOr_7mostrix2ui11key_handler11async_tasks36apply_pending_fetch_scheduler_reload0s_0Bb_
FNDA:0,_RNCNCNvNtNtNtCsbwworP4HFOr_7mostrix2ui11key_handler11async_tasks38reload_runtime_session_after_reconnect00Bb_
FNDA:0,_RNCNCNvNtNtNtCsbwworP4HFOr_7mostrix2ui11key_handler11async_tasks38reload_runtime_session_after_reconnect0s0_0Bb_
FNDA:0,_RNCNCNvNtNtNtCsbwworP4HFOr_7mostrix2ui11key_handler11async_tasks38reload_runtime_session_after_reconnect0s_0Bb_
FNDA:0,_RNCNvNtNtNtCsbwworP4HFOr_7mostrix2ui11key_handler11async_tasks20spawn_add_relay_task0B9_
FNDA:0,_RNCNvNtNtNtCsbwworP4HFOr_7mostrix2ui11key_handler11async_tasks21respawn_chat_listener0B9_
FNDA:0,_RNCNvNtNtNtCsbwworP4HFOr_7mostrix2ui11key_handler11async_tasks21spawn_take_order_task0B9_
FNDA:0,_RNCNvNtNtNtCsbwworP4HFOr_7mostrix2ui11key_handler11async_tasks23dm_transport_for_mostro0B9_
FNDA:0,_RNCNvNtNtNtCsbwworP4HFOr_7mostrix2ui11key_handler11async_tasks23spawn_key_rotation_task0B9_
FNDA:0,_RNCNvNtNtNtCsbwworP4HFOr_7mostrix2ui11key_handler11async_tasks24apply_pending_key_reload0B9_
FNDA:0,_RNCNvNtNtNtCsbwworP4HFOr_7mostrix2ui11key_handler11async_tasks25respawn_trade_dm_listener0B9_
FNDA:0,_RNCNvNtNtNtCsbwworP4HFOr_7mostrix2ui11key_handler11async_tasks25spawn_send_new_order_task0B9_
FNDA:0,_RNCNvNtNtNtCsbwworP4HFOr_7mostrix2ui11key_handler11async_tasks26spawn_load_seed_words_task0B9_
FNDA:0,_RNCNvNtNtNtCsbwworP4HFOr_7mostrix2ui11key_handler11async_tasks29apply_pending_runtime_reloads0B9_
FNDA:0,_RNCNvNtNtNtCsbwworP4HFOr_7mostrix2ui11key_handler11async_tasks30spawn_refresh_mostro_info_task0B9_
FNDA:0,_RNCNvNtNtNtCsbwworP4HFOr_7mostrix2ui11key_handler11async_tasks36apply_pending_fetch_scheduler_reload0B9_
FNDA:0,_RNCNvNtNtNtCsbwworP4HFOr_7mostrix2ui11key_handler11async_tasks37spawn_verify_and_save_ln_address_task0B9_
FNDA:0,_RNCNvNtNtNtCsbwworP4HFOr_7mostrix2ui11key_handler11async_tasks38reload_runtime_session_after_reconnect0B9_
FNDA:0,_RNCNvNtNtNtCsbwworP4HFOr_7mostrix2ui11key_handler11async_tasks44spawn_refresh_mostro_info_from_settings_task0B9_
FNDA:0,_RNvNtNtNtCsbwworP4HFOr_7mostrix2ui11key_handler11async_tasks19create_app_channels
FNDA:0,_RNvNtNtNtCsbwworP4HFOr_7mostrix2ui11key_handler11async_tasks20spawn_add_relay_task
FNDA:0,_RNvNtNtNtCsbwworP4HFOr_7mostrix2ui11key_handler11async_tasks21respawn_chat_listener
FNDA:0,_RNvNtNtNtCsbwworP4HFOr_7mostrix2ui11key_handler11async_tasks21spawn_take_order_task
FNDA:0,_RNvNtNtNtCsbwworP4HFOr_7mostrix2ui11key_handler11async_tasks23clear_messages_or_fatal
FNDA:0,_RNvNtNtNtCsbwworP4HFOr_7mostrix2ui11key_handler11async_tasks23dm_transport_for_mostro
FNDA:0,_RNvNtNtNtCsbwworP4HFOr_7mostrix2ui11key_handler11async_tasks23spawn_key_rotation_task
FNDA:0,_RNvNtNtNtCsbwworP4HFOr_7mostrix2ui11key_handler11async_tasks24apply_pending_key_reload
FNDA:0,_RNvNtNtNtCsbwworP4HFOr_7mostrix2ui11key_handler11async_tasks25respawn_trade_dm_listener
FNDA:0,_RNvNtNtNtCsbwworP4HFOr_7mostrix2ui11key_handler11async_tasks25spawn_send_new_order_task
FNDA:0,_RNvNtNtNtCsbwworP4HFOr_7mostrix2ui11key_handler11async_tasks26spawn_load_seed_words_task
FNDA:0,_RNvNtNtNtCsbwworP4HFOr_7mostrix2ui11key_handler11async_tasks27clear_runtime_session_state
FNDA:0,_RNvNtNtNtCsbwworP4HFOr_7mostrix2ui11key_handler11async_tasks29apply_pending_runtime_reloads
FNDA:0,_RNvNtNtNtCsbwworP4HFOr_7mostrix2ui11key_handler11async_tasks29apply_poisoned_mutex_ui_fatal
FNDA:0,_RNvNtNtNtCsbwworP4HFOr_7mostrix2ui11key_handler11async_tasks30spawn_refresh_mostro_info_task
FNDA:0,_RNvNtNtNtCsbwworP4HFOr_7mostrix2ui11key_handler11async_tasks35clear_active_order_indices_or_fatal
FNDA:0,_RNvNtNtNtCsbwworP4HFOr_7mostrix2ui11key_handler11async_tasks36apply_pending_fetch_scheduler_reload
FNDA:0,_RNvNtNtNtCsbwworP4HFOr_7mostrix2ui11key_handler11async_tasks36reset_pending_notifications_or_fatal
FNDA:0,_RNvNtNtNtCsbwworP4HFOr_7mostrix2ui11key_handler11async_tasks37spawn_verify_and_save_ln_address_task
FNDA:0,_RNvNtNtNtCsbwworP4HFOr_7mostrix2ui11key_handler11async_tasks38reload_runtime_session_after_reconnect
FNDA:0,_RNvNtNtNtCsbwworP4HFOr_7mostrix2ui11key_handler11async_tasks44spawn_refresh_mostro_info_from_settings_task
FNDA:0,_RNvNtNtNtCsbwworP4HFOr_7mostrix2ui11key_handler11async_tasks46clear_runtime_tracking_state_preserve_messages
FNF:62
FNH:0
DA:54,0
DA:55,0
DA:56,0
DA:57,0
DA:58,0
DA:60,0
DA:61,0
DA:62,0
DA:63,0
DA:64,0
DA:65,0
DA:66,0
DA:68,0
DA:69,0
DA:70,0
DA:75,0
DA:76,0
DA:77,0
DA:80,0
DA:81,0
DA:82,0
DA:83,0
DA:84,0
DA:85,0
DA:86,0
DA:88,0
DA:89,0
DA:90,0
DA:95,0
DA:96,0
DA:97,0
DA:100,0
DA:101,0
DA:102,0
DA:103,0
DA:104,0
DA:105,0
DA:106,0
DA:108,0
DA:109,0
DA:110,0
DA:115,0
DA:116,0
DA:117,0
DA:119,0
DA:120,0
DA:121,0
DA:122,0
DA:123,0
DA:124,0
DA:125,0
DA:126,0
DA:127,0
DA:128,0
DA:129,0
DA:130,0
DA:131,0
DA:133,0
DA:134,0
DA:135,0
DA:136,0
DA:137,0
DA:138,0
DA:139,0
DA:140,0
DA:141,0
DA:142,0
DA:143,0
DA:144,0
DA:145,0
DA:148,0
DA:149,0
DA:150,0
DA:151,0
DA:152,0
DA:153,0
DA:154,0
DA:155,0
DA:156,0
DA:157,0
DA:159,0
DA:160,0
DA:161,0
DA:163,0
DA:164,0
DA:167,0
DA:171,0
DA:172,0
DA:173,0
DA:174,0
DA:175,0
DA:176,0
DA:177,0
DA:178,0
DA:179,0
DA:180,0
DA:181,0
DA:183,0
DA:184,0
DA:186,0
DA:188,0
DA:189,0
DA:190,0
DA:191,0
DA:192,0
DA:195,0
DA:196,0
DA:197,0
DA:198,0
DA:200,0
DA:201,0
DA:202,0
DA:203,0
DA:204,0
DA:205,0
DA:206,0
DA:207,0
DA:208,0
DA:209,0
DA:210,0
DA:212,0
DA:213,0
DA:214,0
DA:215,0
DA:216,0
DA:217,0
DA:218,0
DA:219,0
DA:220,0
DA:221,0
DA:222,0
DA:223,0
DA:224,0
DA:225,0
DA:226,0
DA:227,0
DA:228,0
DA:229,0
DA:230,0
DA:231,0
DA:232,0
DA:233,0
DA:239,0
DA:240,0
DA:241,0
DA:242,0
DA:243,0
DA:244,0
DA:245,0
DA:246,0
DA:247,0
DA:248,0
DA:249,0
DA:250,0
DA:251,0
DA:252,0
DA:253,0
DA:254,0
DA:255,0
DA:256,0
DA:257,0
DA:258,0
DA:259,0
DA:260,0
DA:261,0
DA:262,0
DA:263,0
DA:264,0
DA:265,0
DA:266,0
DA:267,0
DA:269,0
DA:270,0
DA:271,0
DA:272,0
DA:273,0
DA:275,0
DA:276,0
DA:277,0
DA:278,0
DA:280,0
DA:281,0
DA:282,0
DA:283,0
DA:284,0
DA:285,0
DA:286,0
DA:287,0
DA:288,0
DA:290,0
DA:291,0
DA:292,0
DA:293,0
DA:294,0
DA:295,0
DA:298,0
DA:299,0
DA:300,0
DA:302,0
DA:303,0
DA:304,0
DA:305,0
DA:306,0
DA:307,0
DA:308,0
DA:309,0
DA:310,0
DA:311,0
DA:312,0
DA:313,0
DA:315,0
DA:316,0
DA:317,0
DA:318,0
DA:319,0
DA:320,0
DA:321,0
DA:322,0
DA:325,0
DA:328,0
DA:329,0
DA:330,0
DA:331,0
DA:332,0
DA:333,0
DA:334,0
DA:335,0
DA:336,0
DA:337,0
DA:338,0
DA:339,0
DA:340,0
DA:341,0
DA:342,0
DA:343,0
DA:344,0
DA:345,0
DA:346,0
DA:347,0
DA:348,0
DA:349,0
DA:350,0
DA:351,0
DA:352,0
DA:353,0
DA:354,0
DA:355,0
DA:356,0
DA:357,0
DA:358,0
DA:359,0
DA:360,0
DA:361,0
DA:362,0
DA:363,0
DA:364,0
DA:365,0
DA:366,0
DA:367,0
DA:368,0
DA:369,0
DA:371,0
DA:372,0
DA:373,0
DA:374,0
DA:375,0
DA:376,0
DA:377,0
DA:378,0
DA:379,0
DA:381,0
DA:382,0
DA:383,0
DA:384,0
DA:385,0
DA:386,0
DA:387,0
DA:389,0
DA:390,0
DA:391,0
DA:392,0
DA:393,0
DA:394,0
DA:395,0
DA:397,0
DA:398,0
DA:399,0
DA:400,0
DA:401,0
DA:402,0
DA:403,0
DA:405,0
DA:412,0
DA:413,0
DA:414,0
DA:415,0
DA:416,0
DA:417,0
DA:418,0
DA:419,0
DA:420,0
DA:421,0
DA:422,0
DA:423,0
DA:424,0
DA:425,0
DA:426,0
DA:427,0
DA:428,0
DA:429,0
DA:430,0
DA:431,0
DA:433,0
DA:437,0
DA:438,0
DA:439,0
DA:442,0
DA:444,0
DA:445,0
DA:446,0
DA:447,0
DA:449,0
DA:450,0
DA:451,0
DA:453,0
DA:454,0
DA:455,0
DA:456,0
DA:457,0
DA:458,0
DA:459,0
DA:460,0
DA:462,0
DA:463,0
DA:464,0
DA:465,0
DA:466,0
DA:470,0
DA:471,0
DA:473,0
DA:474,0
DA:475,0
DA:476,0
DA:477,0
DA:478,0
DA:479,0
DA:480,0
DA:481,0
DA:482,0
DA:484,0
DA:485,0
DA:486,0
DA:487,0
DA:488,0
DA:489,0
DA:490,0
DA:492,0
DA:495,0
DA:496,0
DA:497,0
DA:498,0
DA:499,0
DA:500,0
DA:501,0
DA:502,0
DA:503,0
DA:504,0
DA:505,0
DA:506,0
DA:507,0
DA:508,0
DA:509,0
DA:510,0
DA:511,0
DA:512,0
DA:513,0
DA:514,0
DA:515,0
DA:516,0
DA:517,0
DA:518,0
DA:519,0
DA:520,0
DA:521,0
DA:522,0
DA:523,0
DA:524,0
DA:525,0
DA:526,0
DA:527,0
DA:528,0
DA:529,0
DA:530,0
DA:531,0
DA:532,0
DA:534,0
DA:535,0
DA:536,0
DA:537,0
DA:538,0
DA:540,0
DA:545,0
DA:546,0
DA:547,0
DA:548,0
DA:549,0
DA:550,0
DA:551,0
DA:552,0
DA:553,0
DA:554,0
DA:555,0
DA:556,0
DA:557,0
DA:558,0
DA:559,0
DA:560,0
DA:561,0
DA:562,0
DA:563,0
DA:564,0
DA:565,0
DA:566,0
DA:567,0
DA:568,0
DA:569,0
DA:570,0
DA:571,0
DA:572,0
DA:573,0
DA:574,0
DA:575,0
DA:576,0
DA:577,0
DA:578,0
DA:579,0
DA:580,0
DA:581,0
DA:582,0
DA:583,0
DA:584,0
DA:585,0
DA:586,0
DA:587,0
DA:588,0
DA:589,0
DA:590,0
DA:591,0
DA:593,0
DA:595,0
DA:596,0
DA:597,0
DA:598,0
DA:599,0
DA:603,0
DA:604,0
DA:612,0
DA:613,0
DA:614,0
DA:615,0
DA:616,0
DA:617,0
DA:619,0
DA:620,0
DA:621,0
DA:622,0
DA:624,0
DA:625,0
DA:626,0
DA:628,0
DA:629,0
DA:630,0
DA:633,0
DA:634,0
DA:635,0
DA:636,0
DA:637,0
DA:638,0
DA:639,0
DA:640,0
DA:641,0
DA:643,0
DA:647,0
DA:648,0
DA:649,0
DA:651,0
DA:652,0
DA:653,0
DA:654,0
DA:655,0
DA:656,0
DA:657,0
DA:658,0
DA:659,0
DA:660,0
DA:662,0
DA:663,0
DA:664,0
DA:665,0
DA:666,0
DA:667,0
DA:668,0
DA:671,0
DA:674,0
DA:675,0
DA:676,0
DA:677,0
DA:678,0
DA:679,0
DA:680,0
DA:681,0
DA:682,0
DA:683,0
DA:684,0
DA:685,0
DA:686,0
DA:687,0
DA:688,0
DA:689,0
DA:690,0
DA:691,0
DA:692,0
DA:693,0
DA:694,0
DA:695,0
DA:696,0
DA:697,0
DA:698,0
DA:699,0
DA:700,0
DA:701,0
DA:702,0
DA:703,0
DA:704,0
DA:705,0
DA:706,0
DA:707,0
DA:708,0
DA:709,0
DA:710,0
DA:711,0
DA:713,0
DA:714,0
DA:715,0
DA:716,0
DA:717,0
DA:719,0
DA:727,0
DA:728,0
DA:729,0
DA:730,0
DA:731,0
DA:732,0
DA:733,0
DA:734,0
DA:735,0
DA:736,0
DA:738,0
DA:739,0
DA:741,0
DA:742,0
DA:743,0
DA:745,0
DA:746,0
DA:747,0
DA:748,0
DA:749,0
DA:750,0
DA:751,0
DA:752,0
DA:753,0
DA:756,0
DA:757,0
DA:758,0
DA:791,0
DA:792,0
DA:793,0
DA:794,0
DA:795,0
DA:796,0
DA:797,0
DA:798,0
DA:799,0
DA:800,0
DA:801,0
DA:802,0
DA:803,0
DA:804,0
DA:805,0
DA:806,0
DA:807,0
DA:808,0
DA:809,0
DA:810,0
DA:811,0
DA:812,0
DA:813,0
DA:814,0
DA:815,0
DA:816,0
DA:817,0
DA:818,0
DA:820,0
DA:821,0
DA:822,0
DA:823,0
DA:824,0
DA:825,0
DA:826,0
DA:827,0
DA:828,0
DA:829,0
DA:830,0
DA:831,0
DA:832,0
DA:833,0
DA:834,0
DA:835,0
DA:836,0
DA:837,0
DA:838,0
DA:839,0
DA:840,0
DA:841,0
DA:842,0
DA:843,0
DA:844,0
DA:845,0
DA:846,0
DA:847,0
DA:848,0
DA:849,0
DA:850,0
DA:852,0
DA:853,0
DA:854,0
DA:855,0
DA:856,0
DA:857,0
DA:858,0
DA:859,0
DA:860,0
DA:861,0
DA:862,0
DA:864,0
DA:865,0
DA:867,0
DA:870,0
DA:871,0
DA:872,0
DA:873,0
DA:874,0
DA:875,0
DA:876,0
DA:878,0
DA:880,0
DA:881,0
DA:882,0
DA:883,0
DA:884,0
DA:885,0
DA:888,0
DA:889,0
DA:892,0
DA:893,0
DA:894,0
DA:895,0
DA:896,0
DA:897,0
DA:898,0
DA:899,0
DA:900,0
DA:901,0
DA:902,0
DA:903,0
DA:905,0
DA:906,0
DA:907,0
DA:908,0
DA:909,0
DA:911,0
DA:912,0
DA:913,0
DA:914,0
DA:915,0
DA:917,0
DA:918,0
DA:919,0
DA:920,0
DA:921,0
DA:922,0
DA:925,0
DA:926,0
DA:927,0
DA:928,0
DA:929,0
DA:930,0
DA:932,0
DA:933,0
DA:934,0
DA:935,0
DA:936,0
DA:937,0
DA:939,0
DA:940,0
DA:943,0
DA:944,0
DA:945,0
DA:946,0
DA:947,0
DA:948,0
DA:949,0
DA:950,0
DA:951,0
DA:952,0
DA:953,0
DA:954,0
DA:955,0
DA:956,0
DA:957,0
DA:958,0
DA:959,0
DA:960,0
DA:961,0
DA:962,0
DA:963,0
DA:965,0
DA:967,0
DA:968,0
DA:969,0
DA:970,0
DA:971,0
DA:972,0
DA:975,0
DA:976,0
DA:978,0
DA:979,0
DA:980,0
DA:981,0
DA:982,0
DA:983,0
DA:984,0
DA:985,0
DA:986,0
DA:987,0
DA:988,0
DA:989,0
DA:990,0
DA:993,0
DA:994,0
DA:995,0
DA:996,0
DA:997,0
DA:998,0
DA:999,0
DA:1000,0
DA:1003,0
DA:1004,0
DA:1005,0
DA:1006,0
DA:1007,0
DA:1008,0
DA:1009,0
DA:1010,0
DA:1011,0
DA:1012,0
DA:1013,0
DA:1014,0
DA:1017,0
DA:1018,0
DA:1019,0
DA:1023,0
DA:1024,0
DA:1025,0
DA:1026,0
DA:1027,0
DA:1028,0
DA:1029,0
DA:1030,0
DA:1031,0
DA:1032,0
DA:1033,0
DA:1035,0
DA:1037,0
DA:1038,0
DA:1041,0
DA:1042,0
DA:1043,0
DA:1044,0
DA:1045,0
DA:1046,0
DA:1047,0
DA:1048,0
DA:1049,0
DA:1050,0
DA:1051,0
DA:1052,0
DA:1053,0
DA:1054,0
DA:1055,0
DA:1058,0
DA:1061,0
DA:1062,0
DA:1063,0
DA:1065,0
DA:1066,0
DA:1067,0
DA:1068,0
DA:1069,0
DA:1070,0
DA:1071,0
DA:1073,0
DA:1074,0
DA:1075,0
DA:1076,0
DA:1077,0
DA:1078,0
DA:1079,0
DA:1080,0
DA:1081,0
DA:1082,0
DA:1083,0
DA:1084,0
DA:1085,0
DA:1086,0
DA:1087,0
DA:1089,0
DA:1090,0
DA:1091,0
DA:1092,0
DA:1094,0
DA:1095,0
DA:1096,0
DA:1097,0
DA:1098,0
DA:1099,0
DA:1100,0
DA:1101,0
DA:1102,0
DA:1103,0
DA:1104,0
DA:1105,0
DA:1107,0
DA:1108,0
DA:1109,0
DA:1110,0
DA:1111,0
DA:1112,0
DA:1113,0
DA:1114,0
DA:1116,0
DA:1117,0
DA:1118,0
DA:1119,0
DA:1120,0
DA:1121,0
DA:1122,0
DA:1123,0
DA:1124,0
DA:1125,0
DA:1126,0
DA:1128,0
DA:1129,0
DA:1130,0
DA:1132,0
DA:1133,0
DA:1134,0
DA:1136,0
DA:1137,0
DA:1138,0
DA:1139,0
DA:1140,0
DA:1141,0
DA:1142,0
DA:1145,0
DA:1146,0
DA:1148,0
DA:1149,0
DA:1150,0
DA:1151,0
DA:1152,0
DA:1153,0
DA:1154,0
DA:1155,0
DA:1156,0
DA:1157,0
DA:1158,0
DA:1159,0
DA:1160,0
DA:1161,0
DA:1162,0
DA:1164,0
DA:1165,0
BRF:0
BRH:0
LF:936
LH:0
end_of_record
SF:/home/runner/work/mostrix/mostrix/src/ui/key_handler/chat_helpers.rs
FN:163,_RNCNCNvNtNtNtCsaruqlPBEY0K_7mostrix2ui11key_handler12chat_helpers38resolve_selected_mytrades_order_status00Bb_
FN:20,_RNCNvNtNtNtCsaruqlPBEY0K_7mostrix2ui11key_handler12chat_helpers25get_visible_message_count0B9_
FN:148,_RNCNvNtNtNtCsaruqlPBEY0K_7mostrix2ui11key_handler12chat_helpers28scroll_order_chat_after_send0B9_
FN:187,_RNCNvNtNtNtCsaruqlPBEY0K_7mostrix2ui11key_handler12chat_helpers31build_rating_state_for_mytrades0B9_
FN:30,_RNCNvNtNtNtCsaruqlPBEY0K_7mostrix2ui11key_handler12chat_helpers33get_dispute_visible_message_count0B9_
FN:160,_RNCNvNtNtNtCsaruqlPBEY0K_7mostrix2ui11key_handler12chat_helpers38resolve_selected_mytrades_order_status0B9_
FN:201,_RNvMNtNtNtCsaruqlPBEY0K_7mostrix2ui11key_handler12chat_helpersNtB2_26FinalizeDisputePopupButton10from_index
FN:35,_RNvNtNtNtCsaruqlPBEY0K_7mostrix2ui11key_handler12chat_helpers15message_counter
FN:110,_RNvNtNtNtCsaruqlPBEY0K_7mostrix2ui11key_handler12chat_helpers19jump_to_chat_bottom
FN:89,_RNvNtNtNtCsaruqlPBEY0K_7mostrix2ui11key_handler12chat_helpers20scroll_chat_messages
FN:46,_RNvNtNtNtCsaruqlPBEY0K_7mostrix2ui11key_handler12chat_helpers22navigate_chat_messages
FN:14,_RNvNtNtNtCsaruqlPBEY0K_7mostrix2ui11key_handler12chat_helpers25get_visible_message_count
FN:140,_RNvNtNtNtCsaruqlPBEY0K_7mostrix2ui11key_handler12chat_helpers25jump_to_order_chat_bottom
FN:122,_RNvNtNtNtCsaruqlPBEY0K_7mostrix2ui11key_handler12chat_helpers26scroll_order_chat_messages
FN:212,_RNvNtNtNtCsaruqlPBEY0K_7mostrix2ui11key_handler12chat_helpers27handle_enter_finalize_popup
FN:146,_RNvNtNtNtCsaruqlPBEY0K_7mostrix2ui11key_handler12chat_helpers28scroll_order_chat_after_send
FN:168,_RNvNtNtNtCsaruqlPBEY0K_7mostrix2ui11key_handler12chat_helpers29build_order_action_view_state
FN:182,_RNvNtNtNtCsaruqlPBEY0K_7mostrix2ui11key_handler12chat_helpers31build_rating_state_for_mytrades
FN:27,_RNvNtNtNtCsaruqlPBEY0K_7mostrix2ui11key_handler12chat_helpers33get_dispute_visible_message_count
FN:153,_RNvNtNtNtCsaruqlPBEY0K_7mostrix2ui11key_handler12chat_helpers34resolve_selected_mytrades_order_id
FN:158,_RNvNtNtNtCsaruqlPBEY0K_7mostrix2ui11key_handler12chat_helpers38resolve_selected_mytrades_order_status
FN:163,_RNCNCNvNtNtNtCs3smmrQNj5EW_7mostrix2ui11key_handler12chat_helpers38resolve_selected_mytrades_order_status00Bb_
FN:20,_RNCNvNtNtNtCs3smmrQNj5EW_7mostrix2ui11key_handler12chat_helpers25get_visible_message_count0B9_
FN:148,_RNCNvNtNtNtCs3smmrQNj5EW_7mostrix2ui11key_handler12chat_helpers28scroll_order_chat_after_send0B9_
FN:187,_RNCNvNtNtNtCs3smmrQNj5EW_7mostrix2ui11key_handler12chat_helpers31build_rating_state_for_mytrades0B9_
FN:30,_RNCNvNtNtNtCs3smmrQNj5EW_7mostrix2ui11key_handler12chat_helpers33get_dispute_visible_message_count0B9_
FN:160,_RNCNvNtNtNtCs3smmrQNj5EW_7mostrix2ui11key_handler12chat_helpers38resolve_selected_mytrades_order_status0B9_
FN:201,_RNvMNtNtNtCs3smmrQNj5EW_7mostrix2ui11key_handler12chat_helpersNtB2_26FinalizeDisputePopupButton10from_index
FN:35,_RNvNtNtNtCs3smmrQNj5EW_7mostrix2ui11key_handler12chat_helpers15message_counter
FN:110,_RNvNtNtNtCs3smmrQNj5EW_7mostrix2ui11key_handler12chat_helpers19jump_to_chat_bottom
FN:89,_RNvNtNtNtCs3smmrQNj5EW_7mostrix2ui11key_handler12chat_helpers20scroll_chat_messages
FN:46,_RNvNtNtNtCs3smmrQNj5EW_7mostrix2ui11key_handler12chat_helpers22navigate_chat_messages
FN:14,_RNvNtNtNtCs3smmrQNj5EW_7mostrix2ui11key_handler12chat_helpers25get_visible_message_count
FN:140,_RNvNtNtNtCs3smmrQNj5EW_7mostrix2ui11key_handler12chat_helpers25jump_to_order_chat_bottom
FN:122,_RNvNtNtNtCs3smmrQNj5EW_7mostrix2ui11key_handler12chat_helpers26scroll_order_chat_messages
FN:212,_RNvNtNtNtCs3smmrQNj5EW_7mostrix2ui11key_handler12chat_helpers27handle_enter_finalize_popup
FN:146,_RNvNtNtNtCs3smmrQNj5EW_7mostrix2ui11key_handler12chat_helpers28scroll_order_chat_after_send
FN:168,_RNvNtNtNtCs3smmrQNj5EW_7mostrix2ui11key_handler12chat_helpers29build_order_action_view_state
FN:182,_RNvNtNtNtCs3smmrQNj5EW_7mostrix2ui11key_handler12chat_helpers31build_rating_state_for_mytrades
FN:27,_RNvNtNtNtCs3smmrQNj5EW_7mostrix2ui11key_handler12chat_helpers33get_dispute_visible_message_count
FN:153,_RNvNtNtNtCs3smmrQNj5EW_7mostrix2ui11key_handler12chat_helpers34resolve_selected_mytrades_order_id
FN:158,_RNvNtNtNtCs3smmrQNj5EW_7mostrix2ui11key_handler12chat_helpers38resolve_selected_mytrades_order_status
FN:163,_RNCNCNvNtNtNtCs1oYyZhp1ftr_7mostrix2ui11key_handler12chat_helpers38resolve_selected_mytrades_order_status00Bb_
FN:20,_RNCNvNtNtNtCs1oYyZhp1ftr_7mostrix2ui11key_handler12chat_helpers25get_visible_message_count0B9_
FN:148,_RNCNvNtNtNtCs1oYyZhp1ftr_7mostrix2ui11key_handler12chat_helpers28scroll_order_chat_after_send0B9_
FN:187,_RNCNvNtNtNtCs1oYyZhp1ftr_7mostrix2ui11key_handler12chat_helpers31build_rating_state_for_mytrades0B9_
FN:30,_RNCNvNtNtNtCs1oYyZhp1ftr_7mostrix2ui11key_handler12chat_helpers33get_dispute_visible_message_count0B9_
FN:160,_RNCNvNtNtNtCs1oYyZhp1ftr_7mostrix2ui11key_handler12chat_helpers38resolve_selected_mytrades_order_status0B9_
FN:201,_RNvMNtNtNtCs1oYyZhp1ftr_7mostrix2ui11key_handler12chat_helpersNtB2_26FinalizeDisputePopupButton10from_index
FN:35,_RNvNtNtNtCs1oYyZhp1ftr_7mostrix2ui11key_handler12chat_helpers15message_counter
FN:110,_RNvNtNtNtCs1oYyZhp1ftr_7mostrix2ui11key_handler12chat_helpers19jump_to_chat_bottom
FN:89,_RNvNtNtNtCs1oYyZhp1ftr_7mostrix2ui11key_handler12chat_helpers20scroll_chat_messages
FN:46,_RNvNtNtNtCs1oYyZhp1ftr_7mostrix2ui11key_handler12chat_helpers22navigate_chat_messages
FN:14,_RNvNtNtNtCs1oYyZhp1ftr_7mostrix2ui11key_handler12chat_helpers25get_visible_message_count
FN:140,_RNvNtNtNtCs1oYyZhp1ftr_7mostrix2ui11key_handler12chat_helpers25jump_to_order_chat_bottom
FN:122,_RNvNtNtNtCs1oYyZhp1ftr_7mostrix2ui11key_handler12chat_helpers26scroll_order_chat_messages
FN:212,_RNvNtNtNtCs1oYyZhp1ftr_7mostrix2ui11key_handler12chat_helpers27handle_enter_finalize_popup
FN:146,_RNvNtNtNtCs1oYyZhp1ftr_7mostrix2ui11key_handler12chat_helpers28scroll_order_chat_after_send
FN:168,_RNvNtNtNtCs1oYyZhp1ftr_7mostrix2ui11key_handler12chat_helpers29build_order_action_view_state
FN:182,_RNvNtNtNtCs1oYyZhp1ftr_7mostrix2ui11key_handler12chat_helpers31build_rating_state_for_mytrades
FN:27,_RNvNtNtNtCs1oYyZhp1ftr_7mostrix2ui11key_handler12chat_helpers33get_dispute_visible_message_count
FN:153,_RNvNtNtNtCs1oYyZhp1ftr_7mostrix2ui11key_handler12chat_helpers34resolve_selected_mytrades_order_id
FN:158,_RNvNtNtNtCs1oYyZhp1ftr_7mostrix2ui11key_handler12chat_helpers38resolve_selected_mytrades_order_status
FN:163,_RNCNCNvNtNtNtCsbwworP4HFOr_7mostrix2ui11key_handler12chat_helpers38resolve_selected_mytrades_order_status00Bb_
FN:20,_RNCNvNtNtNtCsbwworP4HFOr_7mostrix2ui11key_handler12chat_helpers25get_visible_message_count0B9_
FN:148,_RNCNvNtNtNtCsbwworP4HFOr_7mostrix2ui11key_handler12chat_helpers28scroll_order_chat_after_send0B9_
FN:187,_RNCNvNtNtNtCsbwworP4HFOr_7mostrix2ui11key_handler12chat_helpers31build_rating_state_for_mytrades0B9_
FN:30,_RNCNvNtNtNtCsbwworP4HFOr_7mostrix2ui11key_handler12chat_helpers33get_dispute_visible_message_count0B9_
FN:160,_RNCNvNtNtNtCsbwworP4HFOr_7mostrix2ui11key_handler12chat_helpers38resolve_selected_mytrades_order_status0B9_
FN:201,_RNvMNtNtNtCsbwworP4HFOr_7mostrix2ui11key_handler12chat_helpersNtB2_26FinalizeDisputePopupButton10from_index
FN:35,_RNvNtNtNtCsbwworP4HFOr_7mostrix2ui11key_handler12chat_helpers15message_counter
FN:110,_RNvNtNtNtCsbwworP4HFOr_7mostrix2ui11key_handler12chat_helpers19jump_to_chat_bottom
FN:89,_RNvNtNtNtCsbwworP4HFOr_7mostrix2ui11key_handler12chat_helpers20scroll_chat_messages
FN:46,_RNvNtNtNtCsbwworP4HFOr_7mostrix2ui11key_handler12chat_helpers22navigate_chat_messages
FN:14,_RNvNtNtNtCsbwworP4HFOr_7mostrix2ui11key_handler12chat_helpers25get_visible_message_count
FN:140,_RNvNtNtNtCsbwworP4HFOr_7mostrix2ui11key_handler12chat_helpers25jump_to_order_chat_bottom
FN:122,_RNvNtNtNtCsbwworP4HFOr_7mostrix2ui11key_handler12chat_helpers26scroll_order_chat_messages
FN:212,_RNvNtNtNtCsbwworP4HFOr_7mostrix2ui11key_handler12chat_helpers27handle_enter_finalize_popup
FN:146,_RNvNtNtNtCsbwworP4HFOr_7mostrix2ui11key_handler12chat_helpers28scroll_order_chat_after_send
FN:168,_RNvNtNtNtCsbwworP4HFOr_7mostrix2ui11key_handler12chat_helpers29build_order_action_view_state
FN:182,_RNvNtNtNtCsbwworP4HFOr_7mostrix2ui11key_handler12chat_helpers31build_rating_state_for_mytrades
FN:27,_RNvNtNtNtCsbwworP4HFOr_7mostrix2ui11key_handler12chat_helpers33get_dispute_visible_message_count
FN:153,_RNvNtNtNtCsbwworP4HFOr_7mostrix2ui11key_handler12chat_helpers34resolve_selected_mytrades_order_id
FN:158,_RNvNtNtNtCsbwworP4HFOr_7mostrix2ui11key_handler12chat_helpers38resolve_selected_mytrades_order_status
FNDA:0,_RNCNCNvNtNtNtCsaruqlPBEY0K_7mostrix2ui11key_handler12chat_helpers38resolve_selected_mytrades_order_status00Bb_
FNDA:0,_RNCNvNtNtNtCsaruqlPBEY0K_7mostrix2ui11key_handler12chat_helpers25get_visible_message_count0B9_
FNDA:0,_RNCNvNtNtNtCsaruqlPBEY0K_7mostrix2ui11key_handler12chat_helpers28scroll_order_chat_after_send0B9_
FNDA:0,_RNCNvNtNtNtCsaruqlPBEY0K_7mostrix2ui11key_handler12chat_helpers31build_rating_state_for_mytrades0B9_
FNDA:0,_RNCNvNtNtNtCsaruqlPBEY0K_7mostrix2ui11key_handler12chat_helpers33get_dispute_visible_message_count0B9_
FNDA:0,_RNCNvNtNtNtCsaruqlPBEY0K_7mostrix2ui11key_handler12chat_helpers38resolve_selected_mytrades_order_status0B9_
FNDA:0,_RNvMNtNtNtCsaruqlPBEY0K_7mostrix2ui11key_handler12chat_helpersNtB2_26FinalizeDisputePopupButton10from_index
FNDA:0,_RNvNtNtNtCsaruqlPBEY0K_7mostrix2ui11key_handler12chat_helpers15message_counter
FNDA:0,_RNvNtNtNtCsaruqlPBEY0K_7mostrix2ui11key_handler12chat_helpers19jump_to_chat_bottom
FNDA:0,_RNvNtNtNtCsaruqlPBEY0K_7mostrix2ui11key_handler12chat_helpers20scroll_chat_messages
FNDA:0,_RNvNtNtNtCsaruqlPBEY0K_7mostrix2ui11key_handler12chat_helpers22navigate_chat_messages
FNDA:0,_RNvNtNtNtCsaruqlPBEY0K_7mostrix2ui11key_handler12chat_helpers25get_visible_message_count
FNDA:0,_RNvNtNtNtCsaruqlPBEY0K_7mostrix2ui11key_handler12chat_helpers25jump_to_order_chat_bottom
FNDA:0,_RNvNtNtNtCsaruqlPBEY0K_7mostrix2ui11key_handler12chat_helpers26scroll_order_chat_messages
FNDA:0,_RNvNtNtNtCsaruqlPBEY0K_7mostrix2ui11key_handler12chat_helpers27handle_enter_finalize_popup
FNDA:0,_RNvNtNtNtCsaruqlPBEY0K_7mostrix2ui11key_handler12chat_helpers28scroll_order_chat_after_send
FNDA:0,_RNvNtNtNtCsaruqlPBEY0K_7mostrix2ui11key_handler12chat_helpers29build_order_action_view_state
FNDA:0,_RNvNtNtNtCsaruqlPBEY0K_7mostrix2ui11key_handler12chat_helpers31build_rating_state_for_mytrades
FNDA:0,_RNvNtNtNtCsaruqlPBEY0K_7mostrix2ui11key_handler12chat_helpers33get_dispute_visible_message_count
FNDA:0,_RNvNtNtNtCsaruqlPBEY0K_7mostrix2ui11key_handler12chat_helpers34resolve_selected_mytrades_order_id
FNDA:0,_RNvNtNtNtCsaruqlPBEY0K_7mostrix2ui11key_handler12chat_helpers38resolve_selected_mytrades_order_status
FNDA:0,_RNCNCNvNtNtNtCs3smmrQNj5EW_7mostrix2ui11key_handler12chat_helpers38resolve_selected_mytrades_order_status00Bb_
FNDA:0,_RNCNvNtNtNtCs3smmrQNj5EW_7mostrix2ui11key_handler12chat_helpers25get_visible_message_count0B9_
FNDA:0,_RNCNvNtNtNtCs3smmrQNj5EW_7mostrix2ui11key_handler12chat_helpers28scroll_order_chat_after_send0B9_
FNDA:0,_RNCNvNtNtNtCs3smmrQNj5EW_7mostrix2ui11key_handler12chat_helpers31build_rating_state_for_mytrades0B9_
FNDA:0,_RNCNvNtNtNtCs3smmrQNj5EW_7mostrix2ui11key_handler12chat_helpers33get_dispute_visible_message_count0B9_
FNDA:0,_RNCNvNtNtNtCs3smmrQNj5EW_7mostrix2ui11key_handler12chat_helpers38resolve_selected_mytrades_order_status0B9_
FNDA:0,_RNvMNtNtNtCs3smmrQNj5EW_7mostrix2ui11key_handler12chat_helpersNtB2_26FinalizeDisputePopupButton10from_index
FNDA:0,_RNvNtNtNtCs3smmrQNj5EW_7mostrix2ui11key_handler12chat_helpers15message_counter
FNDA:0,_RNvNtNtNtCs3smmrQNj5EW_7mostrix2ui11key_handler12chat_helpers19jump_to_chat_bottom
FNDA:0,_RNvNtNtNtCs3smmrQNj5EW_7mostrix2ui11key_handler12chat_helpers20scroll_chat_messages
FNDA:0,_RNvNtNtNtCs3smmrQNj5EW_7mostrix2ui11key_handler12chat_helpers22navigate_chat_messages
FNDA:0,_RNvNtNtNtCs3smmrQNj5EW_7mostrix2ui11key_handler12chat_helpers25get_visible_message_count
FNDA:0,_RNvNtNtNtCs3smmrQNj5EW_7mostrix2ui11key_handler12chat_helpers25jump_to_order_chat_bottom
FNDA:0,_RNvNtNtNtCs3smmrQNj5EW_7mostrix2ui11key_handler12chat_helpers26scroll_order_chat_messages
FNDA:0,_RNvNtNtNtCs3smmrQNj5EW_7mostrix2ui11key_handler12chat_helpers27handle_enter_finalize_popup
FNDA:0,_RNvNtNtNtCs3smmrQNj5EW_7mostrix2ui11key_handler12chat_helpers28scroll_order_chat_after_send
FNDA:0,_RNvNtNtNtCs3smmrQNj5EW_7mostrix2ui11key_handler12chat_helpers29build_order_action_view_state
FNDA:0,_RNvNtNtNtCs3smmrQNj5EW_7mostrix2ui11key_handler12chat_helpers31build_rating_state_for_mytrades
FNDA:0,_RNvNtNtNtCs3smmrQNj5EW_7mostrix2ui11key_handler12chat_helpers33get_dispute_visible_message_count
FNDA:0,_RNvNtNtNtCs3smmrQNj5EW_7mostrix2ui11key_handler12chat_helpers34resolve_selected_mytrades_order_id
FNDA:0,_RNvNtNtNtCs3smmrQNj5EW_7mostrix2ui11key_handler12chat_helpers38resolve_selected_mytrades_order_status
FNDA:0,_RNCNCNvNtNtNtCs1oYyZhp1ftr_7mostrix2ui11key_handler12chat_helpers38resolve_selected_mytrades_order_status00Bb_
FNDA:0,_RNCNvNtNtNtCs1oYyZhp1ftr_7mostrix2ui11key_handler12chat_helpers25get_visible_message_count0B9_
FNDA:0,_RNCNvNtNtNtCs1oYyZhp1ftr_7mostrix2ui11key_handler12chat_helpers28scroll_order_chat_after_send0B9_
FNDA:0,_RNCNvNtNtNtCs1oYyZhp1ftr_7mostrix2ui11key_handler12chat_helpers31build_rating_state_for_mytrades0B9_
FNDA:0,_RNCNvNtNtNtCs1oYyZhp1ftr_7mostrix2ui11key_handler12chat_helpers33get_dispute_visible_message_count0B9_
FNDA:0,_RNCNvNtNtNtCs1oYyZhp1ftr_7mostrix2ui11key_handler12chat_helpers38resolve_selected_mytrades_order_status0B9_
FNDA:0,_RNvMNtNtNtCs1oYyZhp1ftr_7mostrix2ui11key_handler12chat_helpersNtB2_26FinalizeDisputePopupButton10from_index
FNDA:0,_RNvNtNtNtCs1oYyZhp1ftr_7mostrix2ui11key_handler12chat_helpers15message_counter
FNDA:0,_RNvNtNtNtCs1oYyZhp1ftr_7mostrix2ui11key_handler12chat_helpers19jump_to_chat_bottom
FNDA:0,_RNvNtNtNtCs1oYyZhp1ftr_7mostrix2ui11key_handler12chat_helpers20scroll_chat_messages
FNDA:0,_RNvNtNtNtCs1oYyZhp1ftr_7mostrix2ui11key_handler12chat_helpers22navigate_chat_messages
FNDA:0,_RNvNtNtNtCs1oYyZhp1ftr_7mostrix2ui11key_handler12chat_helpers25get_visible_message_count
FNDA:0,_RNvNtNtNtCs1oYyZhp1ftr_7mostrix2ui11key_handler12chat_helpers25jump_to_order_chat_bottom
FNDA:0,_RNvNtNtNtCs1oYyZhp1ftr_7mostrix2ui11key_handler12chat_helpers26scroll_order_chat_messages
FNDA:0,_RNvNtNtNtCs1oYyZhp1ftr_7mostrix2ui11key_handler12chat_helpers27handle_enter_finalize_popup
FNDA:0,_RNvNtNtNtCs1oYyZhp1ftr_7mostrix2ui11key_handler12chat_helpers28scroll_order_chat_after_send
FNDA:0,_RNvNtNtNtCs1oYyZhp1ftr_7mostrix2ui11key_handler12chat_helpers29build_order_action_view_state
FNDA:0,_RNvNtNtNtCs1oYyZhp1ftr_7mostrix2ui11key_handler12chat_helpers31build_rating_state_for_mytrades
FNDA:0,_RNvNtNtNtCs1oYyZhp1ftr_7mostrix2ui11key_handler12chat_helpers33get_dispute_visible_message_count
FNDA:0,_RNvNtNtNtCs1oYyZhp1ftr_7mostrix2ui11key_handler12chat_helpers34resolve_selected_mytrades_order_id
FNDA:0,_RNvNtNtNtCs1oYyZhp1ftr_7mostrix2ui11key_handler12chat_helpers38resolve_selected_mytrades_order_status
FNDA:0,_RNCNCNvNtNtNtCsbwworP4HFOr_7mostrix2ui11key_handler12chat_helpers38resolve_selected_mytrades_order_status00Bb_
FNDA:0,_RNCNvNtNtNtCsbwworP4HFOr_7mostrix2ui11key_handler12chat_helpers25get_visible_message_count0B9_
FNDA:0,_RNCNvNtNtNtCsbwworP4HFOr_7mostrix2ui11key_handler12chat_helpers28scroll_order_chat_after_send0B9_
FNDA:0,_RNCNvNtNtNtCsbwworP4HFOr_7mostrix2ui11key_handler12chat_helpers31build_rating_state_for_mytrades0B9_
FNDA:0,_RNCNvNtNtNtCsbwworP4HFOr_7mostrix2ui11key_handler12chat_helpers33get_dispute_visible_message_count0B9_
FNDA:0,_RNCNvNtNtNtCsbwworP4HFOr_7mostrix2ui11key_handler12chat_helpers38resolve_selected_mytrades_order_status0B9_
FNDA:0,_RNvMNtNtNtCsbwworP4HFOr_7mostrix2ui11key_handler12chat_helpersNtB2_26FinalizeDisputePopupButton10from_index
FNDA:0,_RNvNtNtNtCsbwworP4HFOr_7mostrix2ui11key_handler12chat_helpers15message_counter
FNDA:0,_RNvNtNtNtCsbwworP4HFOr_7mostrix2ui11key_handler12chat_helpers19jump_to_chat_bottom
FNDA:0,_RNvNtNtNtCsbwworP4HFOr_7mostrix2ui11key_handler12chat_helpers20scroll_chat_messages
FNDA:0,_RNvNtNtNtCsbwworP4HFOr_7mostrix2ui11key_handler12chat_helpers22navigate_chat_messages
FNDA:0,_RNvNtNtNtCsbwworP4HFOr_7mostrix2ui11key_handler12chat_helpers25get_visible_message_count
FNDA:0,_RNvNtNtNtCsbwworP4HFOr_7mostrix2ui11key_handler12chat_helpers25jump_to_order_chat_bottom
FNDA:0,_RNvNtNtNtCsbwworP4HFOr_7mostrix2ui11key_handler12chat_helpers26scroll_order_chat_messages
FNDA:0,_RNvNtNtNtCsbwworP4HFOr_7mostrix2ui11key_handler12chat_helpers27handle_enter_finalize_popup
FNDA:0,_RNvNtNtNtCsbwworP4HFOr_7mostrix2ui11key_handler12chat_helpers28scroll_order_chat_after_send
FNDA:0,_RNvNtNtNtCsbwworP4HFOr_7mostrix2ui11key_handler12chat_helpers29build_order_action_view_state
FNDA:0,_RNvNtNtNtCsbwworP4HFOr_7mostrix2ui11key_handler12chat_helpers31build_rating_state_for_mytrades
FNDA:0,_RNvNtNtNtCsbwworP4HFOr_7mostrix2ui11key_handler12chat_helpers33get_dispute_visible_message_count
FNDA:0,_RNvNtNtNtCsbwworP4HFOr_7mostrix2ui11key_handler12chat_helpers34resolve_selected_mytrades_order_id
FNDA:0,_RNvNtNtNtCsbwworP4HFOr_7mostrix2ui11key_handler12chat_helpers38resolve_selected_mytrades_order_status
FNF:21
FNH:0
DA:14,0
DA:15,0
DA:16,0
DA:17,0
DA:18,0
DA:19,0
DA:20,0
DA:21,0
DA:22,0
DA:27,0
DA:28,0
DA:29,0
DA:30,0
DA:31,0
DA:32,0
DA:35,0
DA:36,0
DA:37,0
DA:38,0
DA:39,0
DA:40,0
DA:41,0
DA:46,0
DA:47,0
DA:48,0
DA:49,0
DA:50,0
DA:51,0
DA:52,0
DA:53,0
DA:54,0
DA:56,0
DA:57,0
DA:58,0
DA:60,0
DA:62,0
DA:63,0
DA:65,0
DA:68,0
DA:69,0
DA:72,0
DA:77,0
DA:78,0
DA:79,0
DA:80,0
DA:81,0
DA:82,0
DA:83,0
DA:84,0
DA:89,0
DA:90,0
DA:91,0
DA:92,0
DA:93,0
DA:94,0
DA:96,0
DA:97,0
DA:100,0
DA:101,0
DA:103,0
DA:105,0
DA:110,0
DA:111,0
DA:112,0
DA:113,0
DA:114,0
DA:116,0
DA:117,0
DA:118,0
DA:119,0
DA:122,0
DA:123,0
DA:124,0
DA:125,0
DA:126,0
DA:128,0
DA:129,0
DA:132,0
DA:133,0
DA:135,0
DA:137,0
DA:140,0
DA:141,0
DA:142,0
DA:143,0
DA:146,0
DA:147,0
DA:148,0
DA:149,0
DA:150,0
DA:153,0
DA:154,0
DA:155,0
DA:158,0
DA:159,0
DA:160,0
DA:161,0
DA:162,0
DA:163,0
DA:164,0
DA:165,0
DA:168,0
DA:169,0
DA:170,0
DA:171,0
DA:172,0
DA:173,0
DA:174,0
DA:175,0
DA:176,0
DA:177,0
DA:178,0
DA:179,0
DA:182,0
DA:183,0
DA:184,0
DA:185,0
DA:186,0
DA:187,0
DA:188,0
DA:189,0
DA:190,0
DA:201,0
DA:202,0
DA:203,0
DA:204,0
DA:205,0
DA:206,0
DA:208,0
DA:212,0
DA:213,0
DA:214,0
DA:215,0
DA:216,0
DA:217,0
DA:218,0
DA:219,0
DA:220,0
DA:221,0
DA:222,0
DA:223,0
DA:226,0
DA:227,0
DA:228,0
DA:229,0
DA:230,0
DA:231,0
DA:232,0
DA:233,0
DA:234,0
DA:235,0
DA:236,0
DA:237,0
DA:238,0
DA:239,0
DA:240,0
BRF:0
BRH:0
LF:161
LH:0
end_of_record
SF:/home/runner/work/mostrix/mostrix/src/ui/key_handler/confirmation.rs
FN:60,_RINvNtNtNtCsaruqlPBEY0K_7mostrix2ui11key_handler12confirmation23handle_confirmation_escNCNvB2_17handle_cancel_key0EB8_
FN:60,_RINvNtNtNtCsaruqlPBEY0K_7mostrix2ui11key_handler12confirmation23handle_confirmation_escNCNvB2_17handle_cancel_keys0_0EB8_
FN:60,_RINvNtNtNtCsaruqlPBEY0K_7mostrix2ui11key_handler12confirmation23handle_confirmation_escNCNvB2_17handle_cancel_keys1_0EB8_
FN:60,_RINvNtNtNtCsaruqlPBEY0K_7mostrix2ui11key_handler12confirmation23handle_confirmation_escNCNvB2_17handle_cancel_keys2_0EB8_
FN:60,_RINvNtNtNtCsaruqlPBEY0K_7mostrix2ui11key_handler12confirmation23handle_confirmation_escNCNvB2_17handle_cancel_keys3_0EB8_
FN:60,_RINvNtNtNtCsaruqlPBEY0K_7mostrix2ui11key_handler12confirmation23handle_confirmation_escNCNvB2_17handle_cancel_keys_0EB8_
FN:60,_RINvNtNtNtCsaruqlPBEY0K_7mostrix2ui11key_handler12confirmation23handle_confirmation_escNCNvNtB4_12esc_handlers14handle_esc_key0EB8_
FN:60,_RINvNtNtNtCsaruqlPBEY0K_7mostrix2ui11key_handler12confirmation23handle_confirmation_escNCNvNtB4_12esc_handlers14handle_esc_keys0_0EB8_
FN:60,_RINvNtNtNtCsaruqlPBEY0K_7mostrix2ui11key_handler12confirmation23handle_confirmation_escNCNvNtB4_12esc_handlers14handle_esc_keys1_0EB8_
FN:60,_RINvNtNtNtCsaruqlPBEY0K_7mostrix2ui11key_handler12confirmation23handle_confirmation_escNCNvNtB4_12esc_handlers14handle_esc_keys2_0EB8_
FN:60,_RINvNtNtNtCsaruqlPBEY0K_7mostrix2ui11key_handler12confirmation23handle_confirmation_escNCNvNtB4_12esc_handlers14handle_esc_keys3_0EB8_
FN:60,_RINvNtNtNtCsaruqlPBEY0K_7mostrix2ui11key_handler12confirmation23handle_confirmation_escNCNvNtB4_12esc_handlers14handle_esc_keys_0EB8_
FN:38,_RINvNtNtNtCsaruqlPBEY0K_7mostrix2ui11key_handler12confirmation25handle_confirmation_enterNCNvNtB4_14admin_handlers23handle_enter_admin_modes0_0NCB1r_s1_0EB8_
FN:38,_RINvNtNtNtCsaruqlPBEY0K_7mostrix2ui11key_handler12confirmation25handle_confirmation_enterNvNtB4_8settings22save_relay_to_settingsNCNvB2_18handle_confirm_keys_0EB8_
FN:38,_RINvNtNtNtCsaruqlPBEY0K_7mostrix2ui11key_handler12confirmation25handle_confirmation_enterNvNtB4_8settings22save_relay_to_settingsNCNvNtB4_14enter_handlers26handle_enter_settings_modes1_0EB8_
FN:38,_RINvNtNtNtCsaruqlPBEY0K_7mostrix2ui11key_handler12confirmation25handle_confirmation_enterNvNtB4_8settings25save_currency_to_settingsNCNvB2_18handle_confirm_keys0_0EB8_
FN:38,_RINvNtNtNtCsaruqlPBEY0K_7mostrix2ui11key_handler12confirmation25handle_confirmation_enterNvNtB4_8settings30save_mostro_pubkey_to_settingsNCNvB2_18handle_confirm_key0EB8_
FN:38,_RINvNtNtNtCsaruqlPBEY0K_7mostrix2ui11key_handler12confirmation25handle_confirmation_enterNvNtB4_8settings30save_mostro_pubkey_to_settingsNCNvNtB4_14enter_handlers26handle_enter_settings_modes_0EB8_
FN:22,_RINvNtNtNtCsaruqlPBEY0K_7mostrix2ui11key_handler12confirmation28handle_input_to_confirmationNCNvNtB4_14admin_handlers23handle_enter_admin_mode0EB8_
FN:22,_RINvNtNtNtCsaruqlPBEY0K_7mostrix2ui11key_handler12confirmation28handle_input_to_confirmationNCNvNtB4_14admin_handlers23handle_enter_admin_modes_0EB8_
FN:22,_RINvNtNtNtCsaruqlPBEY0K_7mostrix2ui11key_handler12confirmation28handle_input_to_confirmationNCNvNtB4_14enter_handlers26handle_enter_settings_mode0EB8_
FN:22,_RINvNtNtNtCsaruqlPBEY0K_7mostrix2ui11key_handler12confirmation28handle_input_to_confirmationNCNvNtB4_14enter_handlers26handle_enter_settings_modes0_0EB8_
FN:22,_RINvNtNtNtCsaruqlPBEY0K_7mostrix2ui11key_handler12confirmation28handle_input_to_confirmationNCNvNtB4_14enter_handlers26handle_enter_settings_modes3_0EB8_
FN:22,_RINvNtNtNtCsaruqlPBEY0K_7mostrix2ui11key_handler12confirmation28handle_input_to_confirmationNCNvNtB4_14enter_handlers26handle_enter_settings_modes4_0EB8_
FN:293,_RNCNvNtNtNtCsaruqlPBEY0K_7mostrix2ui11key_handler12confirmation17handle_cancel_key0B9_
FN:301,_RNCNvNtNtNtCsaruqlPBEY0K_7mostrix2ui11key_handler12confirmation17handle_cancel_keys0_0B9_
FN:310,_RNCNvNtNtNtCsaruqlPBEY0K_7mostrix2ui11key_handler12confirmation17handle_cancel_keys1_0B9_
FN:327,_RNCNvNtNtNtCsaruqlPBEY0K_7mostrix2ui11key_handler12confirmation17handle_cancel_keys2_0B9_
FN:334,_RNCNvNtNtNtCsaruqlPBEY0K_7mostrix2ui11key_handler12confirmation17handle_cancel_keys3_0B9_
FN:297,_RNCNvNtNtNtCsaruqlPBEY0K_7mostrix2ui11key_handler12confirmation17handle_cancel_keys_0B9_
FN:120,_RNCNvNtNtNtCsaruqlPBEY0K_7mostrix2ui11key_handler12confirmation18handle_confirm_key0B9_
FN:195,_RNCNvNtNtNtCsaruqlPBEY0K_7mostrix2ui11key_handler12confirmation18handle_confirm_keys0_0B9_
FN:170,_RNCNvNtNtNtCsaruqlPBEY0K_7mostrix2ui11key_handler12confirmation18handle_confirm_keys_0B9_
FN:281,_RNvNtNtNtCsaruqlPBEY0K_7mostrix2ui11key_handler12confirmation17handle_cancel_key
FN:77,_RNvNtNtNtCsaruqlPBEY0K_7mostrix2ui11key_handler12confirmation18handle_confirm_key
FN:68,_RNvNtNtNtCsaruqlPBEY0K_7mostrix2ui11key_handler12confirmation22create_key_input_state
FN:60,_RINvNtNtNtCs3smmrQNj5EW_7mostrix2ui11key_handler12confirmation23handle_confirmation_escpEB8_
FN:38,_RINvNtNtNtCs3smmrQNj5EW_7mostrix2ui11key_handler12confirmation25handle_confirmation_enterppEB8_
FN:22,_RINvNtNtNtCs3smmrQNj5EW_7mostrix2ui11key_handler12confirmation28handle_input_to_confirmationpEB8_
FN:293,_RNCNvNtNtNtCs3smmrQNj5EW_7mostrix2ui11key_handler12confirmation17handle_cancel_key0B9_
FN:301,_RNCNvNtNtNtCs3smmrQNj5EW_7mostrix2ui11key_handler12confirmation17handle_cancel_keys0_0B9_
FN:310,_RNCNvNtNtNtCs3smmrQNj5EW_7mostrix2ui11key_handler12confirmation17handle_cancel_keys1_0B9_
FN:327,_RNCNvNtNtNtCs3smmrQNj5EW_7mostrix2ui11key_handler12confirmation17handle_cancel_keys2_0B9_
FN:334,_RNCNvNtNtNtCs3smmrQNj5EW_7mostrix2ui11key_handler12confirmation17handle_cancel_keys3_0B9_
FN:297,_RNCNvNtNtNtCs3smmrQNj5EW_7mostrix2ui11key_handler12confirmation17handle_cancel_keys_0B9_
FN:120,_RNCNvNtNtNtCs3smmrQNj5EW_7mostrix2ui11key_handler12confirmation18handle_confirm_key0B9_
FN:195,_RNCNvNtNtNtCs3smmrQNj5EW_7mostrix2ui11key_handler12confirmation18handle_confirm_keys0_0B9_
FN:170,_RNCNvNtNtNtCs3smmrQNj5EW_7mostrix2ui11key_handler12confirmation18handle_confirm_keys_0B9_
FN:281,_RNvNtNtNtCs3smmrQNj5EW_7mostrix2ui11key_handler12confirmation17handle_cancel_key
FN:77,_RNvNtNtNtCs3smmrQNj5EW_7mostrix2ui11key_handler12confirmation18handle_confirm_key
FN:68,_RNvNtNtNtCs3smmrQNj5EW_7mostrix2ui11key_handler12confirmation22create_key_input_state
FN:120,_RNCNvNtNtNtCs1oYyZhp1ftr_7mostrix2ui11key_handler12confirmation18handle_confirm_key0B9_
FN:195,_RNCNvNtNtNtCs1oYyZhp1ftr_7mostrix2ui11key_handler12confirmation18handle_confirm_keys0_0B9_
FN:170,_RNCNvNtNtNtCs1oYyZhp1ftr_7mostrix2ui11key_handler12confirmation18handle_confirm_keys_0B9_
FN:77,_RNvNtNtNtCs1oYyZhp1ftr_7mostrix2ui11key_handler12confirmation18handle_confirm_key
FN:60,_RINvNtNtNtCs1oYyZhp1ftr_7mostrix2ui11key_handler12confirmation23handle_confirmation_escNCNvB2_17handle_cancel_key0EB8_
FN:60,_RINvNtNtNtCs1oYyZhp1ftr_7mostrix2ui11key_handler12confirmation23handle_confirmation_escNCNvB2_17handle_cancel_keys0_0EB8_
FN:60,_RINvNtNtNtCs1oYyZhp1ftr_7mostrix2ui11key_handler12confirmation23handle_confirmation_escNCNvB2_17handle_cancel_keys1_0EB8_
FN:60,_RINvNtNtNtCs1oYyZhp1ftr_7mostrix2ui11key_handler12confirmation23handle_confirmation_escNCNvB2_17handle_cancel_keys2_0EB8_
FN:60,_RINvNtNtNtCs1oYyZhp1ftr_7mostrix2ui11key_handler12confirmation23handle_confirmation_escNCNvB2_17handle_cancel_keys3_0EB8_
FN:60,_RINvNtNtNtCs1oYyZhp1ftr_7mostrix2ui11key_handler12confirmation23handle_confirmation_escNCNvB2_17handle_cancel_keys_0EB8_
FN:60,_RINvNtNtNtCs1oYyZhp1ftr_7mostrix2ui11key_handler12confirmation23handle_confirmation_escNCNvNtB4_12esc_handlers14handle_esc_key0EB8_
FN:60,_RINvNtNtNtCs1oYyZhp1ftr_7mostrix2ui11key_handler12confirmation23handle_confirmation_escNCNvNtB4_12esc_handlers14handle_esc_keys0_0EB8_
FN:60,_RINvNtNtNtCs1oYyZhp1ftr_7mostrix2ui11key_handler12confirmation23handle_confirmation_escNCNvNtB4_12esc_handlers14handle_esc_keys1_0EB8_
FN:60,_RINvNtNtNtCs1oYyZhp1ftr_7mostrix2ui11key_handler12confirmation23handle_confirmation_escNCNvNtB4_12esc_handlers14handle_esc_keys2_0EB8_
FN:60,_RINvNtNtNtCs1oYyZhp1ftr_7mostrix2ui11key_handler12confirmation23handle_confirmation_escNCNvNtB4_12esc_handlers14handle_esc_keys3_0EB8_
FN:60,_RINvNtNtNtCs1oYyZhp1ftr_7mostrix2ui11key_handler12confirmation23handle_confirmation_escNCNvNtB4_12esc_handlers14handle_esc_keys_0EB8_
FN:38,_RINvNtNtNtCs1oYyZhp1ftr_7mostrix2ui11key_handler12confirmation25handle_confirmation_enterNCNvNtB4_14admin_handlers23handle_enter_admin_modes0_0NCB1r_s1_0EB8_
FN:38,_RINvNtNtNtCs1oYyZhp1ftr_7mostrix2ui11key_handler12confirmation25handle_confirmation_enterNvNtB4_8settings22save_relay_to_settingsNCNvNtB4_14enter_handlers26handle_enter_settings_modes1_0EB8_
FN:38,_RINvNtNtNtCs1oYyZhp1ftr_7mostrix2ui11key_handler12confirmation25handle_confirmation_enterNvNtB4_8settings30save_mostro_pubkey_to_settingsNCNvNtB4_14enter_handlers26handle_enter_settings_modes_0EB8_
FN:22,_RINvNtNtNtCs1oYyZhp1ftr_7mostrix2ui11key_handler12confirmation28handle_input_to_confirmationNCNvNtB4_14admin_handlers23handle_enter_admin_mode0EB8_
FN:22,_RINvNtNtNtCs1oYyZhp1ftr_7mostrix2ui11key_handler12confirmation28handle_input_to_confirmationNCNvNtB4_14admin_handlers23handle_enter_admin_modes_0EB8_
FN:22,_RINvNtNtNtCs1oYyZhp1ftr_7mostrix2ui11key_handler12confirmation28handle_input_to_confirmationNCNvNtB4_14enter_handlers26handle_enter_settings_mode0EB8_
FN:22,_RINvNtNtNtCs1oYyZhp1ftr_7mostrix2ui11key_handler12confirmation28handle_input_to_confirmationNCNvNtB4_14enter_handlers26handle_enter_settings_modes0_0EB8_
FN:22,_RINvNtNtNtCs1oYyZhp1ftr_7mostrix2ui11key_handler12confirmation28handle_input_to_confirmationNCNvNtB4_14enter_handlers26handle_enter_settings_modes3_0EB8_
FN:22,_RINvNtNtNtCs1oYyZhp1ftr_7mostrix2ui11key_handler12confirmation28handle_input_to_confirmationNCNvNtB4_14enter_handlers26handle_enter_settings_modes4_0EB8_
FN:293,_RNCNvNtNtNtCs1oYyZhp1ftr_7mostrix2ui11key_handler12confirmation17handle_cancel_key0B9_
FN:301,_RNCNvNtNtNtCs1oYyZhp1ftr_7mostrix2ui11key_handler12confirmation17handle_cancel_keys0_0B9_
FN:310,_RNCNvNtNtNtCs1oYyZhp1ftr_7mostrix2ui11key_handler12confirmation17handle_cancel_keys1_0B9_
FN:327,_RNCNvNtNtNtCs1oYyZhp1ftr_7mostrix2ui11key_handler12confirmation17handle_cancel_keys2_0B9_
FN:334,_RNCNvNtNtNtCs1oYyZhp1ftr_7mostrix2ui11key_handler12confirmation17handle_cancel_keys3_0B9_
FN:297,_RNCNvNtNtNtCs1oYyZhp1ftr_7mostrix2ui11key_handler12confirmation17handle_cancel_keys_0B9_
FN:281,_RNvNtNtNtCs1oYyZhp1ftr_7mostrix2ui11key_handler12confirmation17handle_cancel_key
FN:68,_RNvNtNtNtCs1oYyZhp1ftr_7mostrix2ui11key_handler12confirmation22create_key_input_state
FN:60,_RINvNtNtNtCsbwworP4HFOr_7mostrix2ui11key_handler12confirmation23handle_confirmation_escpEB8_
FN:38,_RINvNtNtNtCsbwworP4HFOr_7mostrix2ui11key_handler12confirmation25handle_confirmation_enterppEB8_
FN:22,_RINvNtNtNtCsbwworP4HFOr_7mostrix2ui11key_handler12confirmation28handle_input_to_confirmationpEB8_
FN:293,_RNCNvNtNtNtCsbwworP4HFOr_7mostrix2ui11key_handler12confirmation17handle_cancel_key0B9_
FN:301,_RNCNvNtNtNtCsbwworP4HFOr_7mostrix2ui11key_handler12confirmation17handle_cancel_keys0_0B9_
FN:310,_RNCNvNtNtNtCsbwworP4HFOr_7mostrix2ui11key_handler12confirmation17handle_cancel_keys1_0B9_
FN:327,_RNCNvNtNtNtCsbwworP4HFOr_7mostrix2ui11key_handler12confirmation17handle_cancel_keys2_0B9_
FN:334,_RNCNvNtNtNtCsbwworP4HFOr_7mostrix2ui11key_handler12confirmation17handle_cancel_keys3_0B9_
FN:297,_RNCNvNtNtNtCsbwworP4HFOr_7mostrix2ui11key_handler12confirmation17handle_cancel_keys_0B9_
FN:120,_RNCNvNtNtNtCsbwworP4HFOr_7mostrix2ui11key_handler12confirmation18handle_confirm_key0B9_
FN:195,_RNCNvNtNtNtCsbwworP4HFOr_7mostrix2ui11key_handler12confirmation18handle_confirm_keys0_0B9_
FN:170,_RNCNvNtNtNtCsbwworP4HFOr_7mostrix2ui11key_handler12confirmation18handle_confirm_keys_0B9_
FN:281,_RNvNtNtNtCsbwworP4HFOr_7mostrix2ui11key_handler12confirmation17handle_cancel_key
FN:77,_RNvNtNtNtCsbwworP4HFOr_7mostrix2ui11key_handler12confirmation18handle_confirm_key
FN:68,_RNvNtNtNtCsbwworP4HFOr_7mostrix2ui11key_handler12confirmation22create_key_input_state
FNDA:0,_RINvNtNtNtCsaruqlPBEY0K_7mostrix2ui11key_handler12confirmation23handle_confirmation_escNCNvB2_17handle_cancel_key0EB8_
FNDA:0,_RINvNtNtNtCsaruqlPBEY0K_7mostrix2ui11key_handler12confirmation23handle_confirmation_escNCNvB2_17handle_cancel_keys0_0EB8_
FNDA:0,_RINvNtNtNtCsaruqlPBEY0K_7mostrix2ui11key_handler12confirmation23handle_confirmation_escNCNvB2_17handle_cancel_keys1_0EB8_
FNDA:0,_RINvNtNtNtCsaruqlPBEY0K_7mostrix2ui11key_handler12confirmation23handle_confirmation_escNCNvB2_17handle_cancel_keys2_0EB8_
FNDA:0,_RINvNtNtNtCsaruqlPBEY0K_7mostrix2ui11key_handler12confirmation23handle_confirmation_escNCNvB2_17handle_cancel_keys3_0EB8_
FNDA:0,_RINvNtNtNtCsaruqlPBEY0K_7mostrix2ui11key_handler12confirmation23handle_confirmation_escNCNvB2_17handle_cancel_keys_0EB8_
FNDA:0,_RINvNtNtNtCsaruqlPBEY0K_7mostrix2ui11key_handler12confirmation23handle_confirmation_escNCNvNtB4_12esc_handlers14handle_esc_key0EB8_
FNDA:0,_RINvNtNtNtCsaruqlPBEY0K_7mostrix2ui11key_handler12confirmation23handle_confirmation_escNCNvNtB4_12esc_handlers14handle_esc_keys0_0EB8_
FNDA:0,_RINvNtNtNtCsaruqlPBEY0K_7mostrix2ui11key_handler12confirmation23handle_confirmation_escNCNvNtB4_12esc_handlers14handle_esc_keys1_0EB8_
FNDA:0,_RINvNtNtNtCsaruqlPBEY0K_7mostrix2ui11key_handler12confirmation23handle_confirmation_escNCNvNtB4_12esc_handlers14handle_esc_keys2_0EB8_
FNDA:0,_RINvNtNtNtCsaruqlPBEY0K_7mostrix2ui11key_handler12confirmation23handle_confirmation_escNCNvNtB4_12esc_handlers14handle_esc_keys3_0EB8_
FNDA:0,_RINvNtNtNtCsaruqlPBEY0K_7mostrix2ui11key_handler12confirmation23handle_confirmation_escNCNvNtB4_12esc_handlers14handle_esc_keys_0EB8_
FNDA:0,_RINvNtNtNtCsaruqlPBEY0K_7mostrix2ui11key_handler12confirmation25handle_confirmation_enterNCNvNtB4_14admin_handlers23handle_enter_admin_modes0_0NCB1r_s1_0EB8_
FNDA:0,_RINvNtNtNtCsaruqlPBEY0K_7mostrix2ui11key_handler12confirmation25handle_confirmation_enterNvNtB4_8settings22save_relay_to_settingsNCNvB2_18handle_confirm_keys_0EB8_
FNDA:0,_RINvNtNtNtCsaruqlPBEY0K_7mostrix2ui11key_handler12confirmation25handle_confirmation_enterNvNtB4_8settings22save_relay_to_settingsNCNvNtB4_14enter_handlers26handle_enter_settings_modes1_0EB8_
FNDA:0,_RINvNtNtNtCsaruqlPBEY0K_7mostrix2ui11key_handler12confirmation25handle_confirmation_enterNvNtB4_8settings25save_currency_to_settingsNCNvB2_18handle_confirm_keys0_0EB8_
FNDA:0,_RINvNtNtNtCsaruqlPBEY0K_7mostrix2ui11key_handler12confirmation25handle_confirmation_enterNvNtB4_8settings30save_mostro_pubkey_to_settingsNCNvB2_18handle_confirm_key0EB8_
FNDA:0,_RINvNtNtNtCsaruqlPBEY0K_7mostrix2ui11key_handler12confirmation25handle_confirmation_enterNvNtB4_8settings30save_mostro_pubkey_to_settingsNCNvNtB4_14enter_handlers26handle_enter_settings_modes_0EB8_
FNDA:0,_RINvNtNtNtCsaruqlPBEY0K_7mostrix2ui11key_handler12confirmation28handle_input_to_confirmationNCNvNtB4_14admin_handlers23handle_enter_admin_mode0EB8_
FNDA:0,_RINvNtNtNtCsaruqlPBEY0K_7mostrix2ui11key_handler12confirmation28handle_input_to_confirmationNCNvNtB4_14admin_handlers23handle_enter_admin_modes_0EB8_
FNDA:0,_RINvNtNtNtCsaruqlPBEY0K_7mostrix2ui11key_handler12confirmation28handle_input_to_confirmationNCNvNtB4_14enter_handlers26handle_enter_settings_mode0EB8_
FNDA:0,_RINvNtNtNtCsaruqlPBEY0K_7mostrix2ui11key_handler12confirmation28handle_input_to_confirmationNCNvNtB4_14enter_handlers26handle_enter_settings_modes0_0EB8_
FNDA:0,_RINvNtNtNtCsaruqlPBEY0K_7mostrix2ui11key_handler12confirmation28handle_input_to_confirmationNCNvNtB4_14enter_handlers26handle_enter_settings_modes3_0EB8_
FNDA:0,_RINvNtNtNtCsaruqlPBEY0K_7mostrix2ui11key_handler12confirmation28handle_input_to_confirmationNCNvNtB4_14enter_handlers26handle_enter_settings_modes4_0EB8_
FNDA:0,_RNCNvNtNtNtCsaruqlPBEY0K_7mostrix2ui11key_handler12confirmation17handle_cancel_key0B9_
FNDA:0,_RNCNvNtNtNtCsaruqlPBEY0K_7mostrix2ui11key_handler12confirmation17handle_cancel_keys0_0B9_
FNDA:0,_RNCNvNtNtNtCsaruqlPBEY0K_7mostrix2ui11key_handler12confirmation17handle_cancel_keys1_0B9_
FNDA:0,_RNCNvNtNtNtCsaruqlPBEY0K_7mostrix2ui11key_handler12confirmation17handle_cancel_keys2_0B9_
FNDA:0,_RNCNvNtNtNtCsaruqlPBEY0K_7mostrix2ui11key_handler12confirmation17handle_cancel_keys3_0B9_
FNDA:0,_RNCNvNtNtNtCsaruqlPBEY0K_7mostrix2ui11key_handler12confirmation17handle_cancel_keys_0B9_
FNDA:0,_RNCNvNtNtNtCsaruqlPBEY0K_7mostrix2ui11key_handler12confirmation18handle_confirm_key0B9_
FNDA:0,_RNCNvNtNtNtCsaruqlPBEY0K_7mostrix2ui11key_handler12confirmation18handle_confirm_keys0_0B9_
FNDA:0,_RNCNvNtNtNtCsaruqlPBEY0K_7mostrix2ui11key_handler12confirmation18handle_confirm_keys_0B9_
FNDA:0,_RNvNtNtNtCsaruqlPBEY0K_7mostrix2ui11key_handler12confirmation17handle_cancel_key
FNDA:0,_RNvNtNtNtCsaruqlPBEY0K_7mostrix2ui11key_handler12confirmation18handle_confirm_key
FNDA:0,_RNvNtNtNtCsaruqlPBEY0K_7mostrix2ui11key_handler12confirmation22create_key_input_state
FNDA:0,_RINvNtNtNtCs3smmrQNj5EW_7mostrix2ui11key_handler12confirmation23handle_confirmation_escpEB8_
FNDA:0,_RINvNtNtNtCs3smmrQNj5EW_7mostrix2ui11key_handler12confirmation25handle_confirmation_enterppEB8_
FNDA:0,_RINvNtNtNtCs3smmrQNj5EW_7mostrix2ui11key_handler12confirmation28handle_input_to_confirmationpEB8_
FNDA:0,_RNCNvNtNtNtCs3smmrQNj5EW_7mostrix2ui11key_handler12confirmation17handle_cancel_key0B9_
FNDA:0,_RNCNvNtNtNtCs3smmrQNj5EW_7mostrix2ui11key_handler12confirmation17handle_cancel_keys0_0B9_
FNDA:0,_RNCNvNtNtNtCs3smmrQNj5EW_7mostrix2ui11key_handler12confirmation17handle_cancel_keys1_0B9_
FNDA:0,_RNCNvNtNtNtCs3smmrQNj5EW_7mostrix2ui11key_handler12confirmation17handle_cancel_keys2_0B9_
FNDA:0,_RNCNvNtNtNtCs3smmrQNj5EW_7mostrix2ui11key_handler12confirmation17handle_cancel_keys3_0B9_
FNDA:0,_RNCNvNtNtNtCs3smmrQNj5EW_7mostrix2ui11key_handler12confirmation17handle_cancel_keys_0B9_
FNDA:0,_RNCNvNtNtNtCs3smmrQNj5EW_7mostrix2ui11key_handler12confirmation18handle_confirm_key0B9_
FNDA:0,_RNCNvNtNtNtCs3smmrQNj5EW_7mostrix2ui11key_handler12confirmation18handle_confirm_keys0_0B9_
FNDA:0,_RNCNvNtNtNtCs3smmrQNj5EW_7mostrix2ui11key_handler12confirmation18handle_confirm_keys_0B9_
FNDA:0,_RNvNtNtNtCs3smmrQNj5EW_7mostrix2ui11key_handler12confirmation17handle_cancel_key
FNDA:0,_RNvNtNtNtCs3smmrQNj5EW_7mostrix2ui11key_handler12confirmation18handle_confirm_key
FNDA:0,_RNvNtNtNtCs3smmrQNj5EW_7mostrix2ui11key_handler12confirmation22create_key_input_state
FNDA:0,_RNCNvNtNtNtCs1oYyZhp1ftr_7mostrix2ui11key_handler12confirmation18handle_confirm_key0B9_
FNDA:0,_RNCNvNtNtNtCs1oYyZhp1ftr_7mostrix2ui11key_handler12confirmation18handle_confirm_keys0_0B9_
FNDA:0,_RNCNvNtNtNtCs1oYyZhp1ftr_7mostrix2ui11key_handler12confirmation18handle_confirm_keys_0B9_
FNDA:0,_RNvNtNtNtCs1oYyZhp1ftr_7mostrix2ui11key_handler12confirmation18handle_confirm_key
FNDA:0,_RINvNtNtNtCs1oYyZhp1ftr_7mostrix2ui11key_handler12confirmation23handle_confirmation_escNCNvB2_17handle_cancel_key0EB8_
FNDA:0,_RINvNtNtNtCs1oYyZhp1ftr_7mostrix2ui11key_handler12confirmation23handle_confirmation_escNCNvB2_17handle_cancel_keys0_0EB8_
FNDA:0,_RINvNtNtNtCs1oYyZhp1ftr_7mostrix2ui11key_handler12confirmation23handle_confirmation_escNCNvB2_17handle_cancel_keys1_0EB8_
FNDA:0,_RINvNtNtNtCs1oYyZhp1ftr_7mostrix2ui11key_handler12confirmation23handle_confirmation_escNCNvB2_17handle_cancel_keys2_0EB8_
FNDA:0,_RINvNtNtNtCs1oYyZhp1ftr_7mostrix2ui11key_handler12confirmation23handle_confirmation_escNCNvB2_17handle_cancel_keys3_0EB8_
FNDA:0,_RINvNtNtNtCs1oYyZhp1ftr_7mostrix2ui11key_handler12confirmation23handle_confirmation_escNCNvB2_17handle_cancel_keys_0EB8_
FNDA:0,_RINvNtNtNtCs1oYyZhp1ftr_7mostrix2ui11key_handler12confirmation23handle_confirmation_escNCNvNtB4_12esc_handlers14handle_esc_key0EB8_
FNDA:0,_RINvNtNtNtCs1oYyZhp1ftr_7mostrix2ui11key_handler12confirmation23handle_confirmation_escNCNvNtB4_12esc_handlers14handle_esc_keys0_0EB8_
FNDA:0,_RINvNtNtNtCs1oYyZhp1ftr_7mostrix2ui11key_handler12confirmation23handle_confirmation_escNCNvNtB4_12esc_handlers14handle_esc_keys1_0EB8_
FNDA:0,_RINvNtNtNtCs1oYyZhp1ftr_7mostrix2ui11key_handler12confirmation23handle_confirmation_escNCNvNtB4_12esc_handlers14handle_esc_keys2_0EB8_
FNDA:0,_RINvNtNtNtCs1oYyZhp1ftr_7mostrix2ui11key_handler12confirmation23handle_confirmation_escNCNvNtB4_12esc_handlers14handle_esc_keys3_0EB8_
FNDA:0,_RINvNtNtNtCs1oYyZhp1ftr_7mostrix2ui11key_handler12confirmation23handle_confirmation_escNCNvNtB4_12esc_handlers14handle_esc_keys_0EB8_
FNDA:0,_RINvNtNtNtCs1oYyZhp1ftr_7mostrix2ui11key_handler12confirmation25handle_confirmation_enterNCNvNtB4_14admin_handlers23handle_enter_admin_modes0_0NCB1r_s1_0EB8_
FNDA:0,_RINvNtNtNtCs1oYyZhp1ftr_7mostrix2ui11key_handler12confirmation25handle_confirmation_enterNvNtB4_8settings22save_relay_to_settingsNCNvNtB4_14enter_handlers26handle_enter_settings_modes1_0EB8_
FNDA:0,_RINvNtNtNtCs1oYyZhp1ftr_7mostrix2ui11key_handler12confirmation25handle_confirmation_enterNvNtB4_8settings30save_mostro_pubkey_to_settingsNCNvNtB4_14enter_handlers26handle_enter_settings_modes_0EB8_
FNDA:0,_RINvNtNtNtCs1oYyZhp1ftr_7mostrix2ui11key_handler12confirmation28handle_input_to_confirmationNCNvNtB4_14admin_handlers23handle_enter_admin_mode0EB8_
FNDA:0,_RINvNtNtNtCs1oYyZhp1ftr_7mostrix2ui11key_handler12confirmation28handle_input_to_confirmationNCNvNtB4_14admin_handlers23handle_enter_admin_modes_0EB8_
FNDA:0,_RINvNtNtNtCs1oYyZhp1ftr_7mostrix2ui11key_handler12confirmation28handle_input_to_confirmationNCNvNtB4_14enter_handlers26handle_enter_settings_mode0EB8_
FNDA:0,_RINvNtNtNtCs1oYyZhp1ftr_7mostrix2ui11key_handler12confirmation28handle_input_to_confirmationNCNvNtB4_14enter_handlers26handle_enter_settings_modes0_0EB8_
FNDA:0,_RINvNtNtNtCs1oYyZhp1ftr_7mostrix2ui11key_handler12confirmation28handle_input_to_confirmationNCNvNtB4_14enter_handlers26handle_enter_settings_modes3_0EB8_
FNDA:0,_RINvNtNtNtCs1oYyZhp1ftr_7mostrix2ui11key_handler12confirmation28handle_input_to_confirmationNCNvNtB4_14enter_handlers26handle_enter_settings_modes4_0EB8_
FNDA:0,_RNCNvNtNtNtCs1oYyZhp1ftr_7mostrix2ui11key_handler12confirmation17handle_cancel_key0B9_
FNDA:0,_RNCNvNtNtNtCs1oYyZhp1ftr_7mostrix2ui11key_handler12confirmation17handle_cancel_keys0_0B9_
FNDA:0,_RNCNvNtNtNtCs1oYyZhp1ftr_7mostrix2ui11key_handler12confirmation17handle_cancel_keys1_0B9_
FNDA:0,_RNCNvNtNtNtCs1oYyZhp1ftr_7mostrix2ui11key_handler12confirmation17handle_cancel_keys2_0B9_
FNDA:0,_RNCNvNtNtNtCs1oYyZhp1ftr_7mostrix2ui11key_handler12confirmation17handle_cancel_keys3_0B9_
FNDA:0,_RNCNvNtNtNtCs1oYyZhp1ftr_7mostrix2ui11key_handler12confirmation17handle_cancel_keys_0B9_
FNDA:0,_RNvNtNtNtCs1oYyZhp1ftr_7mostrix2ui11key_handler12confirmation17handle_cancel_key
FNDA:0,_RNvNtNtNtCs1oYyZhp1ftr_7mostrix2ui11key_handler12confirmation22create_key_input_state
FNDA:0,_RINvNtNtNtCsbwworP4HFOr_7mostrix2ui11key_handler12confirmation23handle_confirmation_escpEB8_
FNDA:0,_RINvNtNtNtCsbwworP4HFOr_7mostrix2ui11key_handler12confirmation25handle_confirmation_enterppEB8_
FNDA:0,_RINvNtNtNtCsbwworP4HFOr_7mostrix2ui11key_handler12confirmation28handle_input_to_confirmationpEB8_
FNDA:0,_RNCNvNtNtNtCsbwworP4HFOr_7mostrix2ui11key_handler12confirmation17handle_cancel_key0B9_
FNDA:0,_RNCNvNtNtNtCsbwworP4HFOr_7mostrix2ui11key_handler12confirmation17handle_cancel_keys0_0B9_
FNDA:0,_RNCNvNtNtNtCsbwworP4HFOr_7mostrix2ui11key_handler12confirmation17handle_cancel_keys1_0B9_
FNDA:0,_RNCNvNtNtNtCsbwworP4HFOr_7mostrix2ui11key_handler12confirmation17handle_cancel_keys2_0B9_
FNDA:0,_RNCNvNtNtNtCsbwworP4HFOr_7mostrix2ui11key_handler12confirmation17handle_cancel_keys3_0B9_
FNDA:0,_RNCNvNtNtNtCsbwworP4HFOr_7mostrix2ui11key_handler12confirmation17handle_cancel_keys_0B9_
FNDA:0,_RNCNvNtNtNtCsbwworP4HFOr_7mostrix2ui11key_handler12confirmation18handle_confirm_key0B9_
FNDA:0,_RNCNvNtNtNtCsbwworP4HFOr_7mostrix2ui11key_handler12confirmation18handle_confirm_keys0_0B9_
FNDA:0,_RNCNvNtNtNtCsbwworP4HFOr_7mostrix2ui11key_handler12confirmation18handle_confirm_keys_0B9_
FNDA:0,_RNvNtNtNtCsbwworP4HFOr_7mostrix2ui11key_handler12confirmation17handle_cancel_key
FNDA:0,_RNvNtNtNtCsbwworP4HFOr_7mostrix2ui11key_handler12confirmation18handle_confirm_key
FNDA:0,_RNvNtNtNtCsbwworP4HFOr_7mostrix2ui11key_handler12confirmation22create_key_input_state
FNF:15
FNH:0
DA:22,0
DA:23,0
DA:24,0
DA:25,0
DA:26,0
DA:27,0
DA:28,0
DA:30,0
DA:31,0
DA:33,0
DA:35,0
DA:38,0
DA:39,0
DA:40,0
DA:41,0
DA:42,0
DA:43,0
DA:44,0
DA:45,0
DA:46,0
DA:47,0
DA:49,0
DA:51,0
DA:52,0
DA:55,0
DA:57,0
DA:60,0
DA:61,0
DA:62,0
DA:64,0
DA:65,0
DA:68,0
DA:69,0
DA:70,0
DA:71,0
DA:72,0
DA:73,0
DA:74,0
DA:77,0
DA:78,0
DA:79,0
DA:80,0
DA:82,0
DA:83,0
DA:84,0
DA:86,0
DA:87,0
DA:90,0
DA:91,0
DA:92,0
DA:93,0
DA:94,0
DA:96,0
DA:98,0
DA:99,0
DA:100,0
DA:101,0
DA:102,0
DA:103,0
DA:104,0
DA:105,0
DA:106,0
DA:108,0
DA:110,0
DA:111,0
DA:112,0
DA:113,0
DA:115,0
DA:117,0
DA:118,0
DA:120,0
DA:125,0
DA:126,0
DA:127,0
DA:128,0
DA:129,0
DA:130,0
DA:133,0
DA:134,0
DA:135,0
DA:136,0
DA:137,0
DA:138,0
DA:139,0
DA:141,0
DA:142,0
DA:143,0
DA:144,0
DA:145,0
DA:148,0
DA:149,0
DA:150,0
DA:151,0
DA:152,0
DA:155,0
DA:156,0
DA:157,0
DA:158,0
DA:160,0
DA:161,0
DA:162,0
DA:163,0
DA:165,0
DA:167,0
DA:168,0
DA:170,0
DA:174,0
DA:175,0
DA:177,0
DA:178,0
DA:179,0
DA:180,0
DA:181,0
DA:182,0
DA:184,0
DA:185,0
DA:186,0
DA:187,0
DA:190,0
DA:192,0
DA:193,0
DA:195,0
DA:198,0
DA:199,0
DA:200,0
DA:201,0
DA:202,0
DA:203,0
DA:206,0
DA:207,0
DA:208,0
DA:211,0
DA:213,0
DA:214,0
DA:215,0
DA:216,0
DA:219,0
DA:220,0
DA:221,0
DA:223,0
DA:224,0
DA:225,0
DA:230,0
DA:233,0
DA:234,0
DA:239,0
DA:240,0
DA:241,0
DA:242,0
DA:243,0
DA:244,0
DA:245,0
DA:247,0
DA:248,0
DA:249,0
DA:250,0
DA:252,0
DA:254,0
DA:255,0
DA:256,0
DA:257,0
DA:258,0
DA:260,0
DA:261,0
DA:262,0
DA:265,0
DA:267,0
DA:270,0
DA:271,0
DA:273,0
DA:274,0
DA:275,0
DA:278,0
DA:281,0
DA:282,0
DA:283,0
DA:284,0
DA:286,0
DA:287,0
DA:288,0
DA:289,0
DA:290,0
DA:291,0
DA:292,0
DA:293,0
DA:294,0
DA:295,0
DA:296,0
DA:297,0
DA:298,0
DA:299,0
DA:300,0
DA:301,0
DA:302,0
DA:303,0
DA:304,0
DA:305,0
DA:306,0
DA:307,0
DA:308,0
DA:310,0
DA:311,0
DA:312,0
DA:313,0
DA:314,0
DA:315,0
DA:316,0
DA:317,0
DA:319,0
DA:320,0
DA:321,0
DA:322,0
DA:323,0
DA:325,0
DA:327,0
DA:328,0
DA:329,0
DA:330,0
DA:331,0
DA:332,0
DA:333,0
DA:334,0
DA:335,0
DA:336,0
DA:337,0
DA:339,0
DA:340,0
DA:341,0
DA:343,0
DA:344,0
DA:345,0
BRF:0
BRH:0
LF:237
LH:0
end_of_record
SF:/home/runner/work/mostrix/mostrix/src/ui/key_handler/enter_handlers.rs
FN:108,_RINvNtNtNtCsaruqlPBEY0K_7mostrix2ui11key_handler14enter_handlers24run_enter_chat_send_flowNtB2_15OrderChatTargetNCNvB2_28handle_enter_user_order_chat0NCB1O_s_0NCB1O_s0_0NCB1O_s1_0EB8_
FN:108,_RINvNtNtNtCsaruqlPBEY0K_7mostrix2ui11key_handler14enter_handlers24run_enter_chat_send_flowNtB2_17DisputeChatTargetNCNvB2_40handle_enter_admin_managing_dispute_chat0NCB1Q_s_0NCB1Q_s0_0NCB1Q_s1_0EB8_
FN:253,_RNCNCNCNvNtNtNtCsaruqlPBEY0K_7mostrix2ui11key_handler14enter_handlers31spawn_bulk_history_cleanup_task000Bd_
FN:259,_RNCNCNCNvNtNtNtCsaruqlPBEY0K_7mostrix2ui11key_handler14enter_handlers31spawn_bulk_history_cleanup_task0s_00Bd_
FN:991,_RNCNCNvNtNtNtCsaruqlPBEY0K_7mostrix2ui11key_handler14enter_handlers24handle_enter_normal_mode00Bb_
FN:250,_RNCNCNvNtNtNtCsaruqlPBEY0K_7mostrix2ui11key_handler14enter_handlers31spawn_bulk_history_cleanup_task00Bb_
FN:256,_RNCNCNvNtNtNtCsaruqlPBEY0K_7mostrix2ui11key_handler14enter_handlers31spawn_bulk_history_cleanup_task0s_0Bb_
FN:179,_RNCNCNvNtNtNtCsaruqlPBEY0K_7mostrix2ui11key_handler14enter_handlers31spawn_user_order_chat_send_task00Bb_
FN:189,_RNCNCNvNtNtNtCsaruqlPBEY0K_7mostrix2ui11key_handler14enter_handlers31spawn_user_order_chat_send_task0s_0Bb_
FN:304,_RNCNCNvNtNtNtCsaruqlPBEY0K_7mostrix2ui11key_handler14enter_handlers40handle_enter_admin_managing_dispute_chat00Bb_
FN:675,_RNCNvNtNtNtCsaruqlPBEY0K_7mostrix2ui11key_handler14enter_handlers16handle_enter_key0B9_
FN:677,_RNCNvNtNtNtCsaruqlPBEY0K_7mostrix2ui11key_handler14enter_handlers16handle_enter_keys0_0B9_
FN:678,_RNCNvNtNtNtCsaruqlPBEY0K_7mostrix2ui11key_handler14enter_handlers16handle_enter_keys1_0B9_
FN:676,_RNCNvNtNtNtCsaruqlPBEY0K_7mostrix2ui11key_handler14enter_handlers16handle_enter_keys_0B9_
FN:989,_RNCNvNtNtNtCsaruqlPBEY0K_7mostrix2ui11key_handler14enter_handlers24handle_enter_normal_mode0B9_
FN:1158,_RNCNvNtNtNtCsaruqlPBEY0K_7mostrix2ui11key_handler14enter_handlers24handle_enter_normal_modes0_0B9_
FN:1155,_RNCNvNtNtNtCsaruqlPBEY0K_7mostrix2ui11key_handler14enter_handlers24handle_enter_normal_modes_0B9_
FN:74,_RNCNvNtNtNtCsaruqlPBEY0K_7mostrix2ui11key_handler14enter_handlers26generate_mnemonic_12_words0B9_
FN:75,_RNCNvNtNtNtCsaruqlPBEY0K_7mostrix2ui11key_handler14enter_handlers26generate_mnemonic_12_wordss_0B9_
FN:767,_RNCNvNtNtNtCsaruqlPBEY0K_7mostrix2ui11key_handler14enter_handlers26handle_enter_settings_mode0B9_
FN:824,_RNCNvNtNtNtCsaruqlPBEY0K_7mostrix2ui11key_handler14enter_handlers26handle_enter_settings_modes0_0B9_
FN:840,_RNCNvNtNtNtCsaruqlPBEY0K_7mostrix2ui11key_handler14enter_handlers26handle_enter_settings_modes1_0B9_
FN:847,_RNCNvNtNtNtCsaruqlPBEY0K_7mostrix2ui11key_handler14enter_handlers26handle_enter_settings_modes2_0B9_
FN:857,_RNCNvNtNtNtCsaruqlPBEY0K_7mostrix2ui11key_handler14enter_handlers26handle_enter_settings_modes3_0B9_
FN:887,_RNCNvNtNtNtCsaruqlPBEY0K_7mostrix2ui11key_handler14enter_handlers26handle_enter_settings_modes4_0B9_
FN:783,_RNCNvNtNtNtCsaruqlPBEY0K_7mostrix2ui11key_handler14enter_handlers26handle_enter_settings_modes_0B9_
FN:347,_RNCNvNtNtNtCsaruqlPBEY0K_7mostrix2ui11key_handler14enter_handlers28handle_enter_user_order_chat0B9_
FN:362,_RNCNvNtNtNtCsaruqlPBEY0K_7mostrix2ui11key_handler14enter_handlers28handle_enter_user_order_chats0_0B9_
FN:365,_RNCNvNtNtNtCsaruqlPBEY0K_7mostrix2ui11key_handler14enter_handlers28handle_enter_user_order_chats1_0B9_
FN:348,_RNCNvNtNtNtCsaruqlPBEY0K_7mostrix2ui11key_handler14enter_handlers28handle_enter_user_order_chats_0B9_
FN:244,_RNCNvNtNtNtCsaruqlPBEY0K_7mostrix2ui11key_handler14enter_handlers31spawn_bulk_history_cleanup_task0B9_
FN:168,_RNCNvNtNtNtCsaruqlPBEY0K_7mostrix2ui11key_handler14enter_handlers31spawn_user_order_chat_send_task0B9_
FN:82,_RNCNvNtNtNtCsaruqlPBEY0K_7mostrix2ui11key_handler14enter_handlers34derive_identity_nsec_from_mnemonic0B9_
FN:87,_RNCNvNtNtNtCsaruqlPBEY0K_7mostrix2ui11key_handler14enter_handlers34derive_identity_nsec_from_mnemonics_0B9_
FN:156,_RNCNvNtNtNtCsaruqlPBEY0K_7mostrix2ui11key_handler14enter_handlers34resolve_selected_order_chat_target0B9_
FN:216,_RNCNvNtNtNtCsaruqlPBEY0K_7mostrix2ui11key_handler14enter_handlers39spawn_delete_single_terminal_order_task0B9_
FN:301,_RNCNvNtNtNtCsaruqlPBEY0K_7mostrix2ui11key_handler14enter_handlers40handle_enter_admin_managing_dispute_chat0B9_
FN:319,_RNCNvNtNtNtCsaruqlPBEY0K_7mostrix2ui11key_handler14enter_handlers40handle_enter_admin_managing_dispute_chats0_0B9_
FN:329,_RNCNvNtNtNtCsaruqlPBEY0K_7mostrix2ui11key_handler14enter_handlers40handle_enter_admin_managing_dispute_chats1_0B9_
FN:315,_RNCNvNtNtNtCsaruqlPBEY0K_7mostrix2ui11key_handler14enter_handlers40handle_enter_admin_managing_dispute_chats_0B9_
FN:373,_RNvNtNtNtCsaruqlPBEY0K_7mostrix2ui11key_handler14enter_handlers16handle_enter_key
FN:937,_RNvNtNtNtCsaruqlPBEY0K_7mostrix2ui11key_handler14enter_handlers24handle_enter_normal_mode
FN:72,_RNvNtNtNtCsaruqlPBEY0K_7mostrix2ui11key_handler14enter_handlers26generate_mnemonic_12_words
FN:755,_RNvNtNtNtCsaruqlPBEY0K_7mostrix2ui11key_handler14enter_handlers26handle_enter_settings_mode
FN:336,_RNvNtNtNtCsaruqlPBEY0K_7mostrix2ui11key_handler14enter_handlers28handle_enter_user_order_chat
FN:240,_RNvNtNtNtCsaruqlPBEY0K_7mostrix2ui11key_handler14enter_handlers31spawn_bulk_history_cleanup_task
FN:160,_RNvNtNtNtCsaruqlPBEY0K_7mostrix2ui11key_handler14enter_handlers31spawn_user_order_chat_send_task
FN:78,_RNvNtNtNtCsaruqlPBEY0K_7mostrix2ui11key_handler14enter_handlers34derive_identity_nsec_from_mnemonic
FN:142,_RNvNtNtNtCsaruqlPBEY0K_7mostrix2ui11key_handler14enter_handlers34resolve_selected_order_chat_target
FN:62,_RNvNtNtNtCsaruqlPBEY0K_7mostrix2ui11key_handler14enter_handlers39invoice_popup_action_for_message_action
FN:211,_RNvNtNtNtCsaruqlPBEY0K_7mostrix2ui11key_handler14enter_handlers39spawn_delete_single_terminal_order_task
FN:285,_RNvNtNtNtCsaruqlPBEY0K_7mostrix2ui11key_handler14enter_handlers40handle_enter_admin_managing_dispute_chat
FN:108,_RINvNtNtNtCs3smmrQNj5EW_7mostrix2ui11key_handler14enter_handlers24run_enter_chat_send_flowpppppEB8_
FN:253,_RNCNCNCNvNtNtNtCs3smmrQNj5EW_7mostrix2ui11key_handler14enter_handlers31spawn_bulk_history_cleanup_task000Bd_
FN:259,_RNCNCNCNvNtNtNtCs3smmrQNj5EW_7mostrix2ui11key_handler14enter_handlers31spawn_bulk_history_cleanup_task0s_00Bd_
FN:991,_RNCNCNvNtNtNtCs3smmrQNj5EW_7mostrix2ui11key_handler14enter_handlers24handle_enter_normal_mode00Bb_
FN:250,_RNCNCNvNtNtNtCs3smmrQNj5EW_7mostrix2ui11key_handler14enter_handlers31spawn_bulk_history_cleanup_task00Bb_
FN:256,_RNCNCNvNtNtNtCs3smmrQNj5EW_7mostrix2ui11key_handler14enter_handlers31spawn_bulk_history_cleanup_task0s_0Bb_
FN:179,_RNCNCNvNtNtNtCs3smmrQNj5EW_7mostrix2ui11key_handler14enter_handlers31spawn_user_order_chat_send_task00Bb_
FN:189,_RNCNCNvNtNtNtCs3smmrQNj5EW_7mostrix2ui11key_handler14enter_handlers31spawn_user_order_chat_send_task0s_0Bb_
FN:304,_RNCNCNvNtNtNtCs3smmrQNj5EW_7mostrix2ui11key_handler14enter_handlers40handle_enter_admin_managing_dispute_chat00Bb_
FN:675,_RNCNvNtNtNtCs3smmrQNj5EW_7mostrix2ui11key_handler14enter_handlers16handle_enter_key0B9_
FN:677,_RNCNvNtNtNtCs3smmrQNj5EW_7mostrix2ui11key_handler14enter_handlers16handle_enter_keys0_0B9_
FN:678,_RNCNvNtNtNtCs3smmrQNj5EW_7mostrix2ui11key_handler14enter_handlers16handle_enter_keys1_0B9_
FN:676,_RNCNvNtNtNtCs3smmrQNj5EW_7mostrix2ui11key_handler14enter_handlers16handle_enter_keys_0B9_
FN:989,_RNCNvNtNtNtCs3smmrQNj5EW_7mostrix2ui11key_handler14enter_handlers24handle_enter_normal_mode0B9_
FN:1158,_RNCNvNtNtNtCs3smmrQNj5EW_7mostrix2ui11key_handler14enter_handlers24handle_enter_normal_modes0_0B9_
FN:1155,_RNCNvNtNtNtCs3smmrQNj5EW_7mostrix2ui11key_handler14enter_handlers24handle_enter_normal_modes_0B9_
FN:74,_RNCNvNtNtNtCs3smmrQNj5EW_7mostrix2ui11key_handler14enter_handlers26generate_mnemonic_12_words0B9_
FN:75,_RNCNvNtNtNtCs3smmrQNj5EW_7mostrix2ui11key_handler14enter_handlers26generate_mnemonic_12_wordss_0B9_
FN:767,_RNCNvNtNtNtCs3smmrQNj5EW_7mostrix2ui11key_handler14enter_handlers26handle_enter_settings_mode0B9_
FN:824,_RNCNvNtNtNtCs3smmrQNj5EW_7mostrix2ui11key_handler14enter_handlers26handle_enter_settings_modes0_0B9_
FN:840,_RNCNvNtNtNtCs3smmrQNj5EW_7mostrix2ui11key_handler14enter_handlers26handle_enter_settings_modes1_0B9_
FN:847,_RNCNvNtNtNtCs3smmrQNj5EW_7mostrix2ui11key_handler14enter_handlers26handle_enter_settings_modes2_0B9_
FN:857,_RNCNvNtNtNtCs3smmrQNj5EW_7mostrix2ui11key_handler14enter_handlers26handle_enter_settings_modes3_0B9_
FN:887,_RNCNvNtNtNtCs3smmrQNj5EW_7mostrix2ui11key_handler14enter_handlers26handle_enter_settings_modes4_0B9_
FN:783,_RNCNvNtNtNtCs3smmrQNj5EW_7mostrix2ui11key_handler14enter_handlers26handle_enter_settings_modes_0B9_
FN:347,_RNCNvNtNtNtCs3smmrQNj5EW_7mostrix2ui11key_handler14enter_handlers28handle_enter_user_order_chat0B9_
FN:362,_RNCNvNtNtNtCs3smmrQNj5EW_7mostrix2ui11key_handler14enter_handlers28handle_enter_user_order_chats0_0B9_
FN:365,_RNCNvNtNtNtCs3smmrQNj5EW_7mostrix2ui11key_handler14enter_handlers28handle_enter_user_order_chats1_0B9_
FN:348,_RNCNvNtNtNtCs3smmrQNj5EW_7mostrix2ui11key_handler14enter_handlers28handle_enter_user_order_chats_0B9_
FN:244,_RNCNvNtNtNtCs3smmrQNj5EW_7mostrix2ui11key_handler14enter_handlers31spawn_bulk_history_cleanup_task0B9_
FN:168,_RNCNvNtNtNtCs3smmrQNj5EW_7mostrix2ui11key_handler14enter_handlers31spawn_user_order_chat_send_task0B9_
FN:82,_RNCNvNtNtNtCs3smmrQNj5EW_7mostrix2ui11key_handler14enter_handlers34derive_identity_nsec_from_mnemonic0B9_
FN:87,_RNCNvNtNtNtCs3smmrQNj5EW_7mostrix2ui11key_handler14enter_handlers34derive_identity_nsec_from_mnemonics_0B9_
FN:156,_RNCNvNtNtNtCs3smmrQNj5EW_7mostrix2ui11key_handler14enter_handlers34resolve_selected_order_chat_target0B9_
FN:216,_RNCNvNtNtNtCs3smmrQNj5EW_7mostrix2ui11key_handler14enter_handlers39spawn_delete_single_terminal_order_task0B9_
FN:301,_RNCNvNtNtNtCs3smmrQNj5EW_7mostrix2ui11key_handler14enter_handlers40handle_enter_admin_managing_dispute_chat0B9_
FN:319,_RNCNvNtNtNtCs3smmrQNj5EW_7mostrix2ui11key_handler14enter_handlers40handle_enter_admin_managing_dispute_chats0_0B9_
FN:329,_RNCNvNtNtNtCs3smmrQNj5EW_7mostrix2ui11key_handler14enter_handlers40handle_enter_admin_managing_dispute_chats1_0B9_
FN:315,_RNCNvNtNtNtCs3smmrQNj5EW_7mostrix2ui11key_handler14enter_handlers40handle_enter_admin_managing_dispute_chats_0B9_
FN:373,_RNvNtNtNtCs3smmrQNj5EW_7mostrix2ui11key_handler14enter_handlers16handle_enter_key
FN:937,_RNvNtNtNtCs3smmrQNj5EW_7mostrix2ui11key_handler14enter_handlers24handle_enter_normal_mode
FN:72,_RNvNtNtNtCs3smmrQNj5EW_7mostrix2ui11key_handler14enter_handlers26generate_mnemonic_12_words
FN:755,_RNvNtNtNtCs3smmrQNj5EW_7mostrix2ui11key_handler14enter_handlers26handle_enter_settings_mode
FN:336,_RNvNtNtNtCs3smmrQNj5EW_7mostrix2ui11key_handler14enter_handlers28handle_enter_user_order_chat
FN:240,_RNvNtNtNtCs3smmrQNj5EW_7mostrix2ui11key_handler14enter_handlers31spawn_bulk_history_cleanup_task
FN:160,_RNvNtNtNtCs3smmrQNj5EW_7mostrix2ui11key_handler14enter_handlers31spawn_user_order_chat_send_task
FN:78,_RNvNtNtNtCs3smmrQNj5EW_7mostrix2ui11key_handler14enter_handlers34derive_identity_nsec_from_mnemonic
FN:142,_RNvNtNtNtCs3smmrQNj5EW_7mostrix2ui11key_handler14enter_handlers34resolve_selected_order_chat_target
FN:62,_RNvNtNtNtCs3smmrQNj5EW_7mostrix2ui11key_handler14enter_handlers39invoice_popup_action_for_message_action
FN:211,_RNvNtNtNtCs3smmrQNj5EW_7mostrix2ui11key_handler14enter_handlers39spawn_delete_single_terminal_order_task
FN:285,_RNvNtNtNtCs3smmrQNj5EW_7mostrix2ui11key_handler14enter_handlers40handle_enter_admin_managing_dispute_chat
FN:108,_RINvNtNtNtCs1oYyZhp1ftr_7mostrix2ui11key_handler14enter_handlers24run_enter_chat_send_flowNtB2_15OrderChatTargetNCNvB2_28handle_enter_user_order_chat0NCB1O_s_0NCB1O_s0_0NCB1O_s1_0EB8_
FN:108,_RINvNtNtNtCs1oYyZhp1ftr_7mostrix2ui11key_handler14enter_handlers24run_enter_chat_send_flowNtB2_17DisputeChatTargetNCNvB2_40handle_enter_admin_managing_dispute_chat0NCB1Q_s_0NCB1Q_s0_0NCB1Q_s1_0EB8_
FN:253,_RNCNCNCNvNtNtNtCs1oYyZhp1ftr_7mostrix2ui11key_handler14enter_handlers31spawn_bulk_history_cleanup_task000Bd_
FN:259,_RNCNCNCNvNtNtNtCs1oYyZhp1ftr_7mostrix2ui11key_handler14enter_handlers31spawn_bulk_history_cleanup_task0s_00Bd_
FN:991,_RNCNCNvNtNtNtCs1oYyZhp1ftr_7mostrix2ui11key_handler14enter_handlers24handle_enter_normal_mode00Bb_
FN:250,_RNCNCNvNtNtNtCs1oYyZhp1ftr_7mostrix2ui11key_handler14enter_handlers31spawn_bulk_history_cleanup_task00Bb_
FN:256,_RNCNCNvNtNtNtCs1oYyZhp1ftr_7mostrix2ui11key_handler14enter_handlers31spawn_bulk_history_cleanup_task0s_0Bb_
FN:179,_RNCNCNvNtNtNtCs1oYyZhp1ftr_7mostrix2ui11key_handler14enter_handlers31spawn_user_order_chat_send_task00Bb_
FN:189,_RNCNCNvNtNtNtCs1oYyZhp1ftr_7mostrix2ui11key_handler14enter_handlers31spawn_user_order_chat_send_task0s_0Bb_
FN:304,_RNCNCNvNtNtNtCs1oYyZhp1ftr_7mostrix2ui11key_handler14enter_handlers40handle_enter_admin_managing_dispute_chat00Bb_
FN:675,_RNCNvNtNtNtCs1oYyZhp1ftr_7mostrix2ui11key_handler14enter_handlers16handle_enter_key0B9_
FN:677,_RNCNvNtNtNtCs1oYyZhp1ftr_7mostrix2ui11key_handler14enter_handlers16handle_enter_keys0_0B9_
FN:678,_RNCNvNtNtNtCs1oYyZhp1ftr_7mostrix2ui11key_handler14enter_handlers16handle_enter_keys1_0B9_
FN:676,_RNCNvNtNtNtCs1oYyZhp1ftr_7mostrix2ui11key_handler14enter_handlers16handle_enter_keys_0B9_
FN:989,_RNCNvNtNtNtCs1oYyZhp1ftr_7mostrix2ui11key_handler14enter_handlers24handle_enter_normal_mode0B9_
FN:1158,_RNCNvNtNtNtCs1oYyZhp1ftr_7mostrix2ui11key_handler14enter_handlers24handle_enter_normal_modes0_0B9_
FN:1155,_RNCNvNtNtNtCs1oYyZhp1ftr_7mostrix2ui11key_handler14enter_handlers24handle_enter_normal_modes_0B9_
FN:74,_RNCNvNtNtNtCs1oYyZhp1ftr_7mostrix2ui11key_handler14enter_handlers26generate_mnemonic_12_words0B9_
FN:75,_RNCNvNtNtNtCs1oYyZhp1ftr_7mostrix2ui11key_handler14enter_handlers26generate_mnemonic_12_wordss_0B9_
FN:767,_RNCNvNtNtNtCs1oYyZhp1ftr_7mostrix2ui11key_handler14enter_handlers26handle_enter_settings_mode0B9_
FN:824,_RNCNvNtNtNtCs1oYyZhp1ftr_7mostrix2ui11key_handler14enter_handlers26handle_enter_settings_modes0_0B9_
FN:840,_RNCNvNtNtNtCs1oYyZhp1ftr_7mostrix2ui11key_handler14enter_handlers26handle_enter_settings_modes1_0B9_
FN:847,_RNCNvNtNtNtCs1oYyZhp1ftr_7mostrix2ui11key_handler14enter_handlers26handle_enter_settings_modes2_0B9_
FN:857,_RNCNvNtNtNtCs1oYyZhp1ftr_7mostrix2ui11key_handler14enter_handlers26handle_enter_settings_modes3_0B9_
FN:887,_RNCNvNtNtNtCs1oYyZhp1ftr_7mostrix2ui11key_handler14enter_handlers26handle_enter_settings_modes4_0B9_
FN:783,_RNCNvNtNtNtCs1oYyZhp1ftr_7mostrix2ui11key_handler14enter_handlers26handle_enter_settings_modes_0B9_
FN:347,_RNCNvNtNtNtCs1oYyZhp1ftr_7mostrix2ui11key_handler14enter_handlers28handle_enter_user_order_chat0B9_
FN:362,_RNCNvNtNtNtCs1oYyZhp1ftr_7mostrix2ui11key_handler14enter_handlers28handle_enter_user_order_chats0_0B9_
FN:365,_RNCNvNtNtNtCs1oYyZhp1ftr_7mostrix2ui11key_handler14enter_handlers28handle_enter_user_order_chats1_0B9_
FN:348,_RNCNvNtNtNtCs1oYyZhp1ftr_7mostrix2ui11key_handler14enter_handlers28handle_enter_user_order_chats_0B9_
FN:244,_RNCNvNtNtNtCs1oYyZhp1ftr_7mostrix2ui11key_handler14enter_handlers31spawn_bulk_history_cleanup_task0B9_
FN:168,_RNCNvNtNtNtCs1oYyZhp1ftr_7mostrix2ui11key_handler14enter_handlers31spawn_user_order_chat_send_task0B9_
FN:82,_RNCNvNtNtNtCs1oYyZhp1ftr_7mostrix2ui11key_handler14enter_handlers34derive_identity_nsec_from_mnemonic0B9_
FN:87,_RNCNvNtNtNtCs1oYyZhp1ftr_7mostrix2ui11key_handler14enter_handlers34derive_identity_nsec_from_mnemonics_0B9_
FN:156,_RNCNvNtNtNtCs1oYyZhp1ftr_7mostrix2ui11key_handler14enter_handlers34resolve_selected_order_chat_target0B9_
FN:216,_RNCNvNtNtNtCs1oYyZhp1ftr_7mostrix2ui11key_handler14enter_handlers39spawn_delete_single_terminal_order_task0B9_
FN:301,_RNCNvNtNtNtCs1oYyZhp1ftr_7mostrix2ui11key_handler14enter_handlers40handle_enter_admin_managing_dispute_chat0B9_
FN:319,_RNCNvNtNtNtCs1oYyZhp1ftr_7mostrix2ui11key_handler14enter_handlers40handle_enter_admin_managing_dispute_chats0_0B9_
FN:329,_RNCNvNtNtNtCs1oYyZhp1ftr_7mostrix2ui11key_handler14enter_handlers40handle_enter_admin_managing_dispute_chats1_0B9_
FN:315,_RNCNvNtNtNtCs1oYyZhp1ftr_7mostrix2ui11key_handler14enter_handlers40handle_enter_admin_managing_dispute_chats_0B9_
FN:373,_RNvNtNtNtCs1oYyZhp1ftr_7mostrix2ui11key_handler14enter_handlers16handle_enter_key
FN:937,_RNvNtNtNtCs1oYyZhp1ftr_7mostrix2ui11key_handler14enter_handlers24handle_enter_normal_mode
FN:72,_RNvNtNtNtCs1oYyZhp1ftr_7mostrix2ui11key_handler14enter_handlers26generate_mnemonic_12_words
FN:755,_RNvNtNtNtCs1oYyZhp1ftr_7mostrix2ui11key_handler14enter_handlers26handle_enter_settings_mode
FN:336,_RNvNtNtNtCs1oYyZhp1ftr_7mostrix2ui11key_handler14enter_handlers28handle_enter_user_order_chat
FN:240,_RNvNtNtNtCs1oYyZhp1ftr_7mostrix2ui11key_handler14enter_handlers31spawn_bulk_history_cleanup_task
FN:160,_RNvNtNtNtCs1oYyZhp1ftr_7mostrix2ui11key_handler14enter_handlers31spawn_user_order_chat_send_task
FN:78,_RNvNtNtNtCs1oYyZhp1ftr_7mostrix2ui11key_handler14enter_handlers34derive_identity_nsec_from_mnemonic
FN:142,_RNvNtNtNtCs1oYyZhp1ftr_7mostrix2ui11key_handler14enter_handlers34resolve_selected_order_chat_target
FN:62,_RNvNtNtNtCs1oYyZhp1ftr_7mostrix2ui11key_handler14enter_handlers39invoice_popup_action_for_message_action
FN:211,_RNvNtNtNtCs1oYyZhp1ftr_7mostrix2ui11key_handler14enter_handlers39spawn_delete_single_terminal_order_task
FN:285,_RNvNtNtNtCs1oYyZhp1ftr_7mostrix2ui11key_handler14enter_handlers40handle_enter_admin_managing_dispute_chat
FN:108,_RINvNtNtNtCsbwworP4HFOr_7mostrix2ui11key_handler14enter_handlers24run_enter_chat_send_flowpppppEB8_
FN:253,_RNCNCNCNvNtNtNtCsbwworP4HFOr_7mostrix2ui11key_handler14enter_handlers31spawn_bulk_history_cleanup_task000Bd_
FN:259,_RNCNCNCNvNtNtNtCsbwworP4HFOr_7mostrix2ui11key_handler14enter_handlers31spawn_bulk_history_cleanup_task0s_00Bd_
FN:991,_RNCNCNvNtNtNtCsbwworP4HFOr_7mostrix2ui11key_handler14enter_handlers24handle_enter_normal_mode00Bb_
FN:250,_RNCNCNvNtNtNtCsbwworP4HFOr_7mostrix2ui11key_handler14enter_handlers31spawn_bulk_history_cleanup_task00Bb_
FN:256,_RNCNCNvNtNtNtCsbwworP4HFOr_7mostrix2ui11key_handler14enter_handlers31spawn_bulk_history_cleanup_task0s_0Bb_
FN:179,_RNCNCNvNtNtNtCsbwworP4HFOr_7mostrix2ui11key_handler14enter_handlers31spawn_user_order_chat_send_task00Bb_
FN:189,_RNCNCNvNtNtNtCsbwworP4HFOr_7mostrix2ui11key_handler14enter_handlers31spawn_user_order_chat_send_task0s_0Bb_
FN:304,_RNCNCNvNtNtNtCsbwworP4HFOr_7mostrix2ui11key_handler14enter_handlers40handle_enter_admin_managing_dispute_chat00Bb_
FN:675,_RNCNvNtNtNtCsbwworP4HFOr_7mostrix2ui11key_handler14enter_handlers16handle_enter_key0B9_
FN:677,_RNCNvNtNtNtCsbwworP4HFOr_7mostrix2ui11key_handler14enter_handlers16handle_enter_keys0_0B9_
FN:678,_RNCNvNtNtNtCsbwworP4HFOr_7mostrix2ui11key_handler14enter_handlers16handle_enter_keys1_0B9_
FN:676,_RNCNvNtNtNtCsbwworP4HFOr_7mostrix2ui11key_handler14enter_handlers16handle_enter_keys_0B9_
FN:989,_RNCNvNtNtNtCsbwworP4HFOr_7mostrix2ui11key_handler14enter_handlers24handle_enter_normal_mode0B9_
FN:1158,_RNCNvNtNtNtCsbwworP4HFOr_7mostrix2ui11key_handler14enter_handlers24handle_enter_normal_modes0_0B9_
FN:1155,_RNCNvNtNtNtCsbwworP4HFOr_7mostrix2ui11key_handler14enter_handlers24handle_enter_normal_modes_0B9_
FN:74,_RNCNvNtNtNtCsbwworP4HFOr_7mostrix2ui11key_handler14enter_handlers26generate_mnemonic_12_words0B9_
FN:75,_RNCNvNtNtNtCsbwworP4HFOr_7mostrix2ui11key_handler14enter_handlers26generate_mnemonic_12_wordss_0B9_
FN:767,_RNCNvNtNtNtCsbwworP4HFOr_7mostrix2ui11key_handler14enter_handlers26handle_enter_settings_mode0B9_
FN:824,_RNCNvNtNtNtCsbwworP4HFOr_7mostrix2ui11key_handler14enter_handlers26handle_enter_settings_modes0_0B9_
FN:840,_RNCNvNtNtNtCsbwworP4HFOr_7mostrix2ui11key_handler14enter_handlers26handle_enter_settings_modes1_0B9_
FN:847,_RNCNvNtNtNtCsbwworP4HFOr_7mostrix2ui11key_handler14enter_handlers26handle_enter_settings_modes2_0B9_
FN:857,_RNCNvNtNtNtCsbwworP4HFOr_7mostrix2ui11key_handler14enter_handlers26handle_enter_settings_modes3_0B9_
FN:887,_RNCNvNtNtNtCsbwworP4HFOr_7mostrix2ui11key_handler14enter_handlers26handle_enter_settings_modes4_0B9_
FN:783,_RNCNvNtNtNtCsbwworP4HFOr_7mostrix2ui11key_handler14enter_handlers26handle_enter_settings_modes_0B9_
FN:347,_RNCNvNtNtNtCsbwworP4HFOr_7mostrix2ui11key_handler14enter_handlers28handle_enter_user_order_chat0B9_
FN:362,_RNCNvNtNtNtCsbwworP4HFOr_7mostrix2ui11key_handler14enter_handlers28handle_enter_user_order_chats0_0B9_
FN:365,_RNCNvNtNtNtCsbwworP4HFOr_7mostrix2ui11key_handler14enter_handlers28handle_enter_user_order_chats1_0B9_
FN:348,_RNCNvNtNtNtCsbwworP4HFOr_7mostrix2ui11key_handler14enter_handlers28handle_enter_user_order_chats_0B9_
FN:244,_RNCNvNtNtNtCsbwworP4HFOr_7mostrix2ui11key_handler14enter_handlers31spawn_bulk_history_cleanup_task0B9_
FN:168,_RNCNvNtNtNtCsbwworP4HFOr_7mostrix2ui11key_handler14enter_handlers31spawn_user_order_chat_send_task0B9_
FN:82,_RNCNvNtNtNtCsbwworP4HFOr_7mostrix2ui11key_handler14enter_handlers34derive_identity_nsec_from_mnemonic0B9_
FN:87,_RNCNvNtNtNtCsbwworP4HFOr_7mostrix2ui11key_handler14enter_handlers34derive_identity_nsec_from_mnemonics_0B9_
FN:156,_RNCNvNtNtNtCsbwworP4HFOr_7mostrix2ui11key_handler14enter_handlers34resolve_selected_order_chat_target0B9_
FN:216,_RNCNvNtNtNtCsbwworP4HFOr_7mostrix2ui11key_handler14enter_handlers39spawn_delete_single_terminal_order_task0B9_
FN:301,_RNCNvNtNtNtCsbwworP4HFOr_7mostrix2ui11key_handler14enter_handlers40handle_enter_admin_managing_dispute_chat0B9_
FN:319,_RNCNvNtNtNtCsbwworP4HFOr_7mostrix2ui11key_handler14enter_handlers40handle_enter_admin_managing_dispute_chats0_0B9_
FN:329,_RNCNvNtNtNtCsbwworP4HFOr_7mostrix2ui11key_handler14enter_handlers40handle_enter_admin_managing_dispute_chats1_0B9_
FN:315,_RNCNvNtNtNtCsbwworP4HFOr_7mostrix2ui11key_handler14enter_handlers40handle_enter_admin_managing_dispute_chats_0B9_
FN:373,_RNvNtNtNtCsbwworP4HFOr_7mostrix2ui11key_handler14enter_handlers16handle_enter_key
FN:937,_RNvNtNtNtCsbwworP4HFOr_7mostrix2ui11key_handler14enter_handlers24handle_enter_normal_mode
FN:72,_RNvNtNtNtCsbwworP4HFOr_7mostrix2ui11key_handler14enter_handlers26generate_mnemonic_12_words
FN:755,_RNvNtNtNtCsbwworP4HFOr_7mostrix2ui11key_handler14enter_handlers26handle_enter_settings_mode
FN:336,_RNvNtNtNtCsbwworP4HFOr_7mostrix2ui11key_handler14enter_handlers28handle_enter_user_order_chat
FN:240,_RNvNtNtNtCsbwworP4HFOr_7mostrix2ui11key_handler14enter_handlers31spawn_bulk_history_cleanup_task
FN:160,_RNvNtNtNtCsbwworP4HFOr_7mostrix2ui11key_handler14enter_handlers31spawn_user_order_chat_send_task
FN:78,_RNvNtNtNtCsbwworP4HFOr_7mostrix2ui11key_handler14enter_handlers34derive_identity_nsec_from_mnemonic
FN:142,_RNvNtNtNtCsbwworP4HFOr_7mostrix2ui11key_handler14enter_handlers34resolve_selected_order_chat_target
FN:62,_RNvNtNtNtCsbwworP4HFOr_7mostrix2ui11key_handler14enter_handlers39invoice_popup_action_for_message_action
FN:211,_RNvNtNtNtCsbwworP4HFOr_7mostrix2ui11key_handler14enter_handlers39spawn_delete_single_terminal_order_task
FN:285,_RNvNtNtNtCsbwworP4HFOr_7mostrix2ui11key_handler14enter_handlers40handle_enter_admin_managing_dispute_chat
FNDA:0,_RINvNtNtNtCsaruqlPBEY0K_7mostrix2ui11key_handler14enter_handlers24run_enter_chat_send_flowNtB2_15OrderChatTargetNCNvB2_28handle_enter_user_order_chat0NCB1O_s_0NCB1O_s0_0NCB1O_s1_0EB8_
FNDA:0,_RINvNtNtNtCsaruqlPBEY0K_7mostrix2ui11key_handler14enter_handlers24run_enter_chat_send_flowNtB2_17DisputeChatTargetNCNvB2_40handle_enter_admin_managing_dispute_chat0NCB1Q_s_0NCB1Q_s0_0NCB1Q_s1_0EB8_
FNDA:0,_RNCNCNCNvNtNtNtCsaruqlPBEY0K_7mostrix2ui11key_handler14enter_handlers31spawn_bulk_history_cleanup_task000Bd_
FNDA:0,_RNCNCNCNvNtNtNtCsaruqlPBEY0K_7mostrix2ui11key_handler14enter_handlers31spawn_bulk_history_cleanup_task0s_00Bd_
FNDA:0,_RNCNCNvNtNtNtCsaruqlPBEY0K_7mostrix2ui11key_handler14enter_handlers24handle_enter_normal_mode00Bb_
FNDA:0,_RNCNCNvNtNtNtCsaruqlPBEY0K_7mostrix2ui11key_handler14enter_handlers31spawn_bulk_history_cleanup_task00Bb_
FNDA:0,_RNCNCNvNtNtNtCsaruqlPBEY0K_7mostrix2ui11key_handler14enter_handlers31spawn_bulk_history_cleanup_task0s_0Bb_
FNDA:0,_RNCNCNvNtNtNtCsaruqlPBEY0K_7mostrix2ui11key_handler14enter_handlers31spawn_user_order_chat_send_task00Bb_
FNDA:0,_RNCNCNvNtNtNtCsaruqlPBEY0K_7mostrix2ui11key_handler14enter_handlers31spawn_user_order_chat_send_task0s_0Bb_
FNDA:0,_RNCNCNvNtNtNtCsaruqlPBEY0K_7mostrix2ui11key_handler14enter_handlers40handle_enter_admin_managing_dispute_chat00Bb_
FNDA:0,_RNCNvNtNtNtCsaruqlPBEY0K_7mostrix2ui11key_handler14enter_handlers16handle_enter_key0B9_
FNDA:0,_RNCNvNtNtNtCsaruqlPBEY0K_7mostrix2ui11key_handler14enter_handlers16handle_enter_keys0_0B9_
FNDA:0,_RNCNvNtNtNtCsaruqlPBEY0K_7mostrix2ui11key_handler14enter_handlers16handle_enter_keys1_0B9_
FNDA:0,_RNCNvNtNtNtCsaruqlPBEY0K_7mostrix2ui11key_handler14enter_handlers16handle_enter_keys_0B9_
FNDA:0,_RNCNvNtNtNtCsaruqlPBEY0K_7mostrix2ui11key_handler14enter_handlers24handle_enter_normal_mode0B9_
FNDA:0,_RNCNvNtNtNtCsaruqlPBEY0K_7mostrix2ui11key_handler14enter_handlers24handle_enter_normal_modes0_0B9_
FNDA:0,_RNCNvNtNtNtCsaruqlPBEY0K_7mostrix2ui11key_handler14enter_handlers24handle_enter_normal_modes_0B9_
FNDA:0,_RNCNvNtNtNtCsaruqlPBEY0K_7mostrix2ui11key_handler14enter_handlers26generate_mnemonic_12_words0B9_
FNDA:0,_RNCNvNtNtNtCsaruqlPBEY0K_7mostrix2ui11key_handler14enter_handlers26generate_mnemonic_12_wordss_0B9_
FNDA:0,_RNCNvNtNtNtCsaruqlPBEY0K_7mostrix2ui11key_handler14enter_handlers26handle_enter_settings_mode0B9_
FNDA:0,_RNCNvNtNtNtCsaruqlPBEY0K_7mostrix2ui11key_handler14enter_handlers26handle_enter_settings_modes0_0B9_
FNDA:0,_RNCNvNtNtNtCsaruqlPBEY0K_7mostrix2ui11key_handler14enter_handlers26handle_enter_settings_modes1_0B9_
FNDA:0,_RNCNvNtNtNtCsaruqlPBEY0K_7mostrix2ui11key_handler14enter_handlers26handle_enter_settings_modes2_0B9_
FNDA:0,_RNCNvNtNtNtCsaruqlPBEY0K_7mostrix2ui11key_handler14enter_handlers26handle_enter_settings_modes3_0B9_
FNDA:0,_RNCNvNtNtNtCsaruqlPBEY0K_7mostrix2ui11key_handler14enter_handlers26handle_enter_settings_modes4_0B9_
FNDA:0,_RNCNvNtNtNtCsaruqlPBEY0K_7mostrix2ui11key_handler14enter_handlers26handle_enter_settings_modes_0B9_
FNDA:0,_RNCNvNtNtNtCsaruqlPBEY0K_7mostrix2ui11key_handler14enter_handlers28handle_enter_user_order_chat0B9_
FNDA:0,_RNCNvNtNtNtCsaruqlPBEY0K_7mostrix2ui11key_handler14enter_handlers28handle_enter_user_order_chats0_0B9_
FNDA:0,_RNCNvNtNtNtCsaruqlPBEY0K_7mostrix2ui11key_handler14enter_handlers28handle_enter_user_order_chats1_0B9_
FNDA:0,_RNCNvNtNtNtCsaruqlPBEY0K_7mostrix2ui11key_handler14enter_handlers28handle_enter_user_order_chats_0B9_
FNDA:0,_RNCNvNtNtNtCsaruqlPBEY0K_7mostrix2ui11key_handler14enter_handlers31spawn_bulk_history_cleanup_task0B9_
FNDA:0,_RNCNvNtNtNtCsaruqlPBEY0K_7mostrix2ui11key_handler14enter_handlers31spawn_user_order_chat_send_task0B9_
FNDA:0,_RNCNvNtNtNtCsaruqlPBEY0K_7mostrix2ui11key_handler14enter_handlers34derive_identity_nsec_from_mnemonic0B9_
FNDA:0,_RNCNvNtNtNtCsaruqlPBEY0K_7mostrix2ui11key_handler14enter_handlers34derive_identity_nsec_from_mnemonics_0B9_
FNDA:0,_RNCNvNtNtNtCsaruqlPBEY0K_7mostrix2ui11key_handler14enter_handlers34resolve_selected_order_chat_target0B9_
FNDA:0,_RNCNvNtNtNtCsaruqlPBEY0K_7mostrix2ui11key_handler14enter_handlers39spawn_delete_single_terminal_order_task0B9_
FNDA:0,_RNCNvNtNtNtCsaruqlPBEY0K_7mostrix2ui11key_handler14enter_handlers40handle_enter_admin_managing_dispute_chat0B9_
FNDA:0,_RNCNvNtNtNtCsaruqlPBEY0K_7mostrix2ui11key_handler14enter_handlers40handle_enter_admin_managing_dispute_chats0_0B9_
FNDA:0,_RNCNvNtNtNtCsaruqlPBEY0K_7mostrix2ui11key_handler14enter_handlers40handle_enter_admin_managing_dispute_chats1_0B9_
FNDA:0,_RNCNvNtNtNtCsaruqlPBEY0K_7mostrix2ui11key_handler14enter_handlers40handle_enter_admin_managing_dispute_chats_0B9_
FNDA:0,_RNvNtNtNtCsaruqlPBEY0K_7mostrix2ui11key_handler14enter_handlers16handle_enter_key
FNDA:0,_RNvNtNtNtCsaruqlPBEY0K_7mostrix2ui11key_handler14enter_handlers24handle_enter_normal_mode
FNDA:0,_RNvNtNtNtCsaruqlPBEY0K_7mostrix2ui11key_handler14enter_handlers26generate_mnemonic_12_words
FNDA:0,_RNvNtNtNtCsaruqlPBEY0K_7mostrix2ui11key_handler14enter_handlers26handle_enter_settings_mode
FNDA:0,_RNvNtNtNtCsaruqlPBEY0K_7mostrix2ui11key_handler14enter_handlers28handle_enter_user_order_chat
FNDA:0,_RNvNtNtNtCsaruqlPBEY0K_7mostrix2ui11key_handler14enter_handlers31spawn_bulk_history_cleanup_task
FNDA:0,_RNvNtNtNtCsaruqlPBEY0K_7mostrix2ui11key_handler14enter_handlers31spawn_user_order_chat_send_task
FNDA:0,_RNvNtNtNtCsaruqlPBEY0K_7mostrix2ui11key_handler14enter_handlers34derive_identity_nsec_from_mnemonic
FNDA:0,_RNvNtNtNtCsaruqlPBEY0K_7mostrix2ui11key_handler14enter_handlers34resolve_selected_order_chat_target
FNDA:0,_RNvNtNtNtCsaruqlPBEY0K_7mostrix2ui11key_handler14enter_handlers39invoice_popup_action_for_message_action
FNDA:0,_RNvNtNtNtCsaruqlPBEY0K_7mostrix2ui11key_handler14enter_handlers39spawn_delete_single_terminal_order_task
FNDA:0,_RNvNtNtNtCsaruqlPBEY0K_7mostrix2ui11key_handler14enter_handlers40handle_enter_admin_managing_dispute_chat
FNDA:0,_RINvNtNtNtCs3smmrQNj5EW_7mostrix2ui11key_handler14enter_handlers24run_enter_chat_send_flowpppppEB8_
FNDA:0,_RNCNCNCNvNtNtNtCs3smmrQNj5EW_7mostrix2ui11key_handler14enter_handlers31spawn_bulk_history_cleanup_task000Bd_
FNDA:0,_RNCNCNCNvNtNtNtCs3smmrQNj5EW_7mostrix2ui11key_handler14enter_handlers31spawn_bulk_history_cleanup_task0s_00Bd_
FNDA:0,_RNCNCNvNtNtNtCs3smmrQNj5EW_7mostrix2ui11key_handler14enter_handlers24handle_enter_normal_mode00Bb_
FNDA:0,_RNCNCNvNtNtNtCs3smmrQNj5EW_7mostrix2ui11key_handler14enter_handlers31spawn_bulk_history_cleanup_task00Bb_
FNDA:0,_RNCNCNvNtNtNtCs3smmrQNj5EW_7mostrix2ui11key_handler14enter_handlers31spawn_bulk_history_cleanup_task0s_0Bb_
FNDA:0,_RNCNCNvNtNtNtCs3smmrQNj5EW_7mostrix2ui11key_handler14enter_handlers31spawn_user_order_chat_send_task00Bb_
FNDA:0,_RNCNCNvNtNtNtCs3smmrQNj5EW_7mostrix2ui11key_handler14enter_handlers31spawn_user_order_chat_send_task0s_0Bb_
FNDA:0,_RNCNCNvNtNtNtCs3smmrQNj5EW_7mostrix2ui11key_handler14enter_handlers40handle_enter_admin_managing_dispute_chat00Bb_
FNDA:0,_RNCNvNtNtNtCs3smmrQNj5EW_7mostrix2ui11key_handler14enter_handlers16handle_enter_key0B9_
FNDA:0,_RNCNvNtNtNtCs3smmrQNj5EW_7mostrix2ui11key_handler14enter_handlers16handle_enter_keys0_0B9_
FNDA:0,_RNCNvNtNtNtCs3smmrQNj5EW_7mostrix2ui11key_handler14enter_handlers16handle_enter_keys1_0B9_
FNDA:0,_RNCNvNtNtNtCs3smmrQNj5EW_7mostrix2ui11key_handler14enter_handlers16handle_enter_keys_0B9_
FNDA:0,_RNCNvNtNtNtCs3smmrQNj5EW_7mostrix2ui11key_handler14enter_handlers24handle_enter_normal_mode0B9_
FNDA:0,_RNCNvNtNtNtCs3smmrQNj5EW_7mostrix2ui11key_handler14enter_handlers24handle_enter_normal_modes0_0B9_
FNDA:0,_RNCNvNtNtNtCs3smmrQNj5EW_7mostrix2ui11key_handler14enter_handlers24handle_enter_normal_modes_0B9_
FNDA:0,_RNCNvNtNtNtCs3smmrQNj5EW_7mostrix2ui11key_handler14enter_handlers26generate_mnemonic_12_words0B9_
FNDA:0,_RNCNvNtNtNtCs3smmrQNj5EW_7mostrix2ui11key_handler14enter_handlers26generate_mnemonic_12_wordss_0B9_
FNDA:0,_RNCNvNtNtNtCs3smmrQNj5EW_7mostrix2ui11key_handler14enter_handlers26handle_enter_settings_mode0B9_
FNDA:0,_RNCNvNtNtNtCs3smmrQNj5EW_7mostrix2ui11key_handler14enter_handlers26handle_enter_settings_modes0_0B9_
FNDA:0,_RNCNvNtNtNtCs3smmrQNj5EW_7mostrix2ui11key_handler14enter_handlers26handle_enter_settings_modes1_0B9_
FNDA:0,_RNCNvNtNtNtCs3smmrQNj5EW_7mostrix2ui11key_handler14enter_handlers26handle_enter_settings_modes2_0B9_
FNDA:0,_RNCNvNtNtNtCs3smmrQNj5EW_7mostrix2ui11key_handler14enter_handlers26handle_enter_settings_modes3_0B9_
FNDA:0,_RNCNvNtNtNtCs3smmrQNj5EW_7mostrix2ui11key_handler14enter_handlers26handle_enter_settings_modes4_0B9_
FNDA:0,_RNCNvNtNtNtCs3smmrQNj5EW_7mostrix2ui11key_handler14enter_handlers26handle_enter_settings_modes_0B9_
FNDA:0,_RNCNvNtNtNtCs3smmrQNj5EW_7mostrix2ui11key_handler14enter_handlers28handle_enter_user_order_chat0B9_
FNDA:0,_RNCNvNtNtNtCs3smmrQNj5EW_7mostrix2ui11key_handler14enter_handlers28handle_enter_user_order_chats0_0B9_
FNDA:0,_RNCNvNtNtNtCs3smmrQNj5EW_7mostrix2ui11key_handler14enter_handlers28handle_enter_user_order_chats1_0B9_
FNDA:0,_RNCNvNtNtNtCs3smmrQNj5EW_7mostrix2ui11key_handler14enter_handlers28handle_enter_user_order_chats_0B9_
FNDA:0,_RNCNvNtNtNtCs3smmrQNj5EW_7mostrix2ui11key_handler14enter_handlers31spawn_bulk_history_cleanup_task0B9_
FNDA:0,_RNCNvNtNtNtCs3smmrQNj5EW_7mostrix2ui11key_handler14enter_handlers31spawn_user_order_chat_send_task0B9_
FNDA:0,_RNCNvNtNtNtCs3smmrQNj5EW_7mostrix2ui11key_handler14enter_handlers34derive_identity_nsec_from_mnemonic0B9_
FNDA:0,_RNCNvNtNtNtCs3smmrQNj5EW_7mostrix2ui11key_handler14enter_handlers34derive_identity_nsec_from_mnemonics_0B9_
FNDA:0,_RNCNvNtNtNtCs3smmrQNj5EW_7mostrix2ui11key_handler14enter_handlers34resolve_selected_order_chat_target0B9_
FNDA:0,_RNCNvNtNtNtCs3smmrQNj5EW_7mostrix2ui11key_handler14enter_handlers39spawn_delete_single_terminal_order_task0B9_
FNDA:0,_RNCNvNtNtNtCs3smmrQNj5EW_7mostrix2ui11key_handler14enter_handlers40handle_enter_admin_managing_dispute_chat0B9_
FNDA:0,_RNCNvNtNtNtCs3smmrQNj5EW_7mostrix2ui11key_handler14enter_handlers40handle_enter_admin_managing_dispute_chats0_0B9_
FNDA:0,_RNCNvNtNtNtCs3smmrQNj5EW_7mostrix2ui11key_handler14enter_handlers40handle_enter_admin_managing_dispute_chats1_0B9_
FNDA:0,_RNCNvNtNtNtCs3smmrQNj5EW_7mostrix2ui11key_handler14enter_handlers40handle_enter_admin_managing_dispute_chats_0B9_
FNDA:0,_RNvNtNtNtCs3smmrQNj5EW_7mostrix2ui11key_handler14enter_handlers16handle_enter_key
FNDA:0,_RNvNtNtNtCs3smmrQNj5EW_7mostrix2ui11key_handler14enter_handlers24handle_enter_normal_mode
FNDA:0,_RNvNtNtNtCs3smmrQNj5EW_7mostrix2ui11key_handler14enter_handlers26generate_mnemonic_12_words
FNDA:0,_RNvNtNtNtCs3smmrQNj5EW_7mostrix2ui11key_handler14enter_handlers26handle_enter_settings_mode
FNDA:0,_RNvNtNtNtCs3smmrQNj5EW_7mostrix2ui11key_handler14enter_handlers28handle_enter_user_order_chat
FNDA:0,_RNvNtNtNtCs3smmrQNj5EW_7mostrix2ui11key_handler14enter_handlers31spawn_bulk_history_cleanup_task
FNDA:0,_RNvNtNtNtCs3smmrQNj5EW_7mostrix2ui11key_handler14enter_handlers31spawn_user_order_chat_send_task
FNDA:0,_RNvNtNtNtCs3smmrQNj5EW_7mostrix2ui11key_handler14enter_handlers34derive_identity_nsec_from_mnemonic
FNDA:0,_RNvNtNtNtCs3smmrQNj5EW_7mostrix2ui11key_handler14enter_handlers34resolve_selected_order_chat_target
FNDA:0,_RNvNtNtNtCs3smmrQNj5EW_7mostrix2ui11key_handler14enter_handlers39invoice_popup_action_for_message_action
FNDA:0,_RNvNtNtNtCs3smmrQNj5EW_7mostrix2ui11key_handler14enter_handlers39spawn_delete_single_terminal_order_task
FNDA:0,_RNvNtNtNtCs3smmrQNj5EW_7mostrix2ui11key_handler14enter_handlers40handle_enter_admin_managing_dispute_chat
FNDA:0,_RINvNtNtNtCs1oYyZhp1ftr_7mostrix2ui11key_handler14enter_handlers24run_enter_chat_send_flowNtB2_15OrderChatTargetNCNvB2_28handle_enter_user_order_chat0NCB1O_s_0NCB1O_s0_0NCB1O_s1_0EB8_
FNDA:0,_RINvNtNtNtCs1oYyZhp1ftr_7mostrix2ui11key_handler14enter_handlers24run_enter_chat_send_flowNtB2_17DisputeChatTargetNCNvB2_40handle_enter_admin_managing_dispute_chat0NCB1Q_s_0NCB1Q_s0_0NCB1Q_s1_0EB8_
FNDA:0,_RNCNCNCNvNtNtNtCs1oYyZhp1ftr_7mostrix2ui11key_handler14enter_handlers31spawn_bulk_history_cleanup_task000Bd_
FNDA:0,_RNCNCNCNvNtNtNtCs1oYyZhp1ftr_7mostrix2ui11key_handler14enter_handlers31spawn_bulk_history_cleanup_task0s_00Bd_
FNDA:0,_RNCNCNvNtNtNtCs1oYyZhp1ftr_7mostrix2ui11key_handler14enter_handlers24handle_enter_normal_mode00Bb_
FNDA:0,_RNCNCNvNtNtNtCs1oYyZhp1ftr_7mostrix2ui11key_handler14enter_handlers31spawn_bulk_history_cleanup_task00Bb_
FNDA:0,_RNCNCNvNtNtNtCs1oYyZhp1ftr_7mostrix2ui11key_handler14enter_handlers31spawn_bulk_history_cleanup_task0s_0Bb_
FNDA:0,_RNCNCNvNtNtNtCs1oYyZhp1ftr_7mostrix2ui11key_handler14enter_handlers31spawn_user_order_chat_send_task00Bb_
FNDA:0,_RNCNCNvNtNtNtCs1oYyZhp1ftr_7mostrix2ui11key_handler14enter_handlers31spawn_user_order_chat_send_task0s_0Bb_
FNDA:0,_RNCNCNvNtNtNtCs1oYyZhp1ftr_7mostrix2ui11key_handler14enter_handlers40handle_enter_admin_managing_dispute_chat00Bb_
FNDA:0,_RNCNvNtNtNtCs1oYyZhp1ftr_7mostrix2ui11key_handler14enter_handlers16handle_enter_key0B9_
FNDA:0,_RNCNvNtNtNtCs1oYyZhp1ftr_7mostrix2ui11key_handler14enter_handlers16handle_enter_keys0_0B9_
FNDA:0,_RNCNvNtNtNtCs1oYyZhp1ftr_7mostrix2ui11key_handler14enter_handlers16handle_enter_keys1_0B9_
FNDA:0,_RNCNvNtNtNtCs1oYyZhp1ftr_7mostrix2ui11key_handler14enter_handlers16handle_enter_keys_0B9_
FNDA:0,_RNCNvNtNtNtCs1oYyZhp1ftr_7mostrix2ui11key_handler14enter_handlers24handle_enter_normal_mode0B9_
FNDA:0,_RNCNvNtNtNtCs1oYyZhp1ftr_7mostrix2ui11key_handler14enter_handlers24handle_enter_normal_modes0_0B9_
FNDA:0,_RNCNvNtNtNtCs1oYyZhp1ftr_7mostrix2ui11key_handler14enter_handlers24handle_enter_normal_modes_0B9_
FNDA:0,_RNCNvNtNtNtCs1oYyZhp1ftr_7mostrix2ui11key_handler14enter_handlers26generate_mnemonic_12_words0B9_
FNDA:0,_RNCNvNtNtNtCs1oYyZhp1ftr_7mostrix2ui11key_handler14enter_handlers26generate_mnemonic_12_wordss_0B9_
FNDA:0,_RNCNvNtNtNtCs1oYyZhp1ftr_7mostrix2ui11key_handler14enter_handlers26handle_enter_settings_mode0B9_
FNDA:0,_RNCNvNtNtNtCs1oYyZhp1ftr_7mostrix2ui11key_handler14enter_handlers26handle_enter_settings_modes0_0B9_
FNDA:0,_RNCNvNtNtNtCs1oYyZhp1ftr_7mostrix2ui11key_handler14enter_handlers26handle_enter_settings_modes1_0B9_
FNDA:0,_RNCNvNtNtNtCs1oYyZhp1ftr_7mostrix2ui11key_handler14enter_handlers26handle_enter_settings_modes2_0B9_
FNDA:0,_RNCNvNtNtNtCs1oYyZhp1ftr_7mostrix2ui11key_handler14enter_handlers26handle_enter_settings_modes3_0B9_
FNDA:0,_RNCNvNtNtNtCs1oYyZhp1ftr_7mostrix2ui11key_handler14enter_handlers26handle_enter_settings_modes4_0B9_
FNDA:0,_RNCNvNtNtNtCs1oYyZhp1ftr_7mostrix2ui11key_handler14enter_handlers26handle_enter_settings_modes_0B9_
FNDA:0,_RNCNvNtNtNtCs1oYyZhp1ftr_7mostrix2ui11key_handler14enter_handlers28handle_enter_user_order_chat0B9_
FNDA:0,_RNCNvNtNtNtCs1oYyZhp1ftr_7mostrix2ui11key_handler14enter_handlers28handle_enter_user_order_chats0_0B9_
FNDA:0,_RNCNvNtNtNtCs1oYyZhp1ftr_7mostrix2ui11key_handler14enter_handlers28handle_enter_user_order_chats1_0B9_
FNDA:0,_RNCNvNtNtNtCs1oYyZhp1ftr_7mostrix2ui11key_handler14enter_handlers28handle_enter_user_order_chats_0B9_
FNDA:0,_RNCNvNtNtNtCs1oYyZhp1ftr_7mostrix2ui11key_handler14enter_handlers31spawn_bulk_history_cleanup_task0B9_
FNDA:0,_RNCNvNtNtNtCs1oYyZhp1ftr_7mostrix2ui11key_handler14enter_handlers31spawn_user_order_chat_send_task0B9_
FNDA:0,_RNCNvNtNtNtCs1oYyZhp1ftr_7mostrix2ui11key_handler14enter_handlers34derive_identity_nsec_from_mnemonic0B9_
FNDA:0,_RNCNvNtNtNtCs1oYyZhp1ftr_7mostrix2ui11key_handler14enter_handlers34derive_identity_nsec_from_mnemonics_0B9_
FNDA:0,_RNCNvNtNtNtCs1oYyZhp1ftr_7mostrix2ui11key_handler14enter_handlers34resolve_selected_order_chat_target0B9_
FNDA:0,_RNCNvNtNtNtCs1oYyZhp1ftr_7mostrix2ui11key_handler14enter_handlers39spawn_delete_single_terminal_order_task0B9_
FNDA:0,_RNCNvNtNtNtCs1oYyZhp1ftr_7mostrix2ui11key_handler14enter_handlers40handle_enter_admin_managing_dispute_chat0B9_
FNDA:0,_RNCNvNtNtNtCs1oYyZhp1ftr_7mostrix2ui11key_handler14enter_handlers40handle_enter_admin_managing_dispute_chats0_0B9_
FNDA:0,_RNCNvNtNtNtCs1oYyZhp1ftr_7mostrix2ui11key_handler14enter_handlers40handle_enter_admin_managing_dispute_chats1_0B9_
FNDA:0,_RNCNvNtNtNtCs1oYyZhp1ftr_7mostrix2ui11key_handler14enter_handlers40handle_enter_admin_managing_dispute_chats_0B9_
FNDA:0,_RNvNtNtNtCs1oYyZhp1ftr_7mostrix2ui11key_handler14enter_handlers16handle_enter_key
FNDA:0,_RNvNtNtNtCs1oYyZhp1ftr_7mostrix2ui11key_handler14enter_handlers24handle_enter_normal_mode
FNDA:0,_RNvNtNtNtCs1oYyZhp1ftr_7mostrix2ui11key_handler14enter_handlers26generate_mnemonic_12_words
FNDA:0,_RNvNtNtNtCs1oYyZhp1ftr_7mostrix2ui11key_handler14enter_handlers26handle_enter_settings_mode
FNDA:0,_RNvNtNtNtCs1oYyZhp1ftr_7mostrix2ui11key_handler14enter_handlers28handle_enter_user_order_chat
FNDA:0,_RNvNtNtNtCs1oYyZhp1ftr_7mostrix2ui11key_handler14enter_handlers31spawn_bulk_history_cleanup_task
FNDA:0,_RNvNtNtNtCs1oYyZhp1ftr_7mostrix2ui11key_handler14enter_handlers31spawn_user_order_chat_send_task
FNDA:0,_RNvNtNtNtCs1oYyZhp1ftr_7mostrix2ui11key_handler14enter_handlers34derive_identity_nsec_from_mnemonic
FNDA:0,_RNvNtNtNtCs1oYyZhp1ftr_7mostrix2ui11key_handler14enter_handlers34resolve_selected_order_chat_target
FNDA:0,_RNvNtNtNtCs1oYyZhp1ftr_7mostrix2ui11key_handler14enter_handlers39invoice_popup_action_for_message_action
FNDA:0,_RNvNtNtNtCs1oYyZhp1ftr_7mostrix2ui11key_handler14enter_handlers39spawn_delete_single_terminal_order_task
FNDA:0,_RNvNtNtNtCs1oYyZhp1ftr_7mostrix2ui11key_handler14enter_handlers40handle_enter_admin_managing_dispute_chat
FNDA:0,_RINvNtNtNtCsbwworP4HFOr_7mostrix2ui11key_handler14enter_handlers24run_enter_chat_send_flowpppppEB8_
FNDA:0,_RNCNCNCNvNtNtNtCsbwworP4HFOr_7mostrix2ui11key_handler14enter_handlers31spawn_bulk_history_cleanup_task000Bd_
FNDA:0,_RNCNCNCNvNtNtNtCsbwworP4HFOr_7mostrix2ui11key_handler14enter_handlers31spawn_bulk_history_cleanup_task0s_00Bd_
FNDA:0,_RNCNCNvNtNtNtCsbwworP4HFOr_7mostrix2ui11key_handler14enter_handlers24handle_enter_normal_mode00Bb_
FNDA:0,_RNCNCNvNtNtNtCsbwworP4HFOr_7mostrix2ui11key_handler14enter_handlers31spawn_bulk_history_cleanup_task00Bb_
FNDA:0,_RNCNCNvNtNtNtCsbwworP4HFOr_7mostrix2ui11key_handler14enter_handlers31spawn_bulk_history_cleanup_task0s_0Bb_
FNDA:0,_RNCNCNvNtNtNtCsbwworP4HFOr_7mostrix2ui11key_handler14enter_handlers31spawn_user_order_chat_send_task00Bb_
FNDA:0,_RNCNCNvNtNtNtCsbwworP4HFOr_7mostrix2ui11key_handler14enter_handlers31spawn_user_order_chat_send_task0s_0Bb_
FNDA:0,_RNCNCNvNtNtNtCsbwworP4HFOr_7mostrix2ui11key_handler14enter_handlers40handle_enter_admin_managing_dispute_chat00Bb_
FNDA:0,_RNCNvNtNtNtCsbwworP4HFOr_7mostrix2ui11key_handler14enter_handlers16handle_enter_key0B9_
FNDA:0,_RNCNvNtNtNtCsbwworP4HFOr_7mostrix2ui11key_handler14enter_handlers16handle_enter_keys0_0B9_
FNDA:0,_RNCNvNtNtNtCsbwworP4HFOr_7mostrix2ui11key_handler14enter_handlers16handle_enter_keys1_0B9_
FNDA:0,_RNCNvNtNtNtCsbwworP4HFOr_7mostrix2ui11key_handler14enter_handlers16handle_enter_keys_0B9_
FNDA:0,_RNCNvNtNtNtCsbwworP4HFOr_7mostrix2ui11key_handler14enter_handlers24handle_enter_normal_mode0B9_
FNDA:0,_RNCNvNtNtNtCsbwworP4HFOr_7mostrix2ui11key_handler14enter_handlers24handle_enter_normal_modes0_0B9_
FNDA:0,_RNCNvNtNtNtCsbwworP4HFOr_7mostrix2ui11key_handler14enter_handlers24handle_enter_normal_modes_0B9_
FNDA:0,_RNCNvNtNtNtCsbwworP4HFOr_7mostrix2ui11key_handler14enter_handlers26generate_mnemonic_12_words0B9_
FNDA:0,_RNCNvNtNtNtCsbwworP4HFOr_7mostrix2ui11key_handler14enter_handlers26generate_mnemonic_12_wordss_0B9_
FNDA:0,_RNCNvNtNtNtCsbwworP4HFOr_7mostrix2ui11key_handler14enter_handlers26handle_enter_settings_mode0B9_
FNDA:0,_RNCNvNtNtNtCsbwworP4HFOr_7mostrix2ui11key_handler14enter_handlers26handle_enter_settings_modes0_0B9_
FNDA:0,_RNCNvNtNtNtCsbwworP4HFOr_7mostrix2ui11key_handler14enter_handlers26handle_enter_settings_modes1_0B9_
FNDA:0,_RNCNvNtNtNtCsbwworP4HFOr_7mostrix2ui11key_handler14enter_handlers26handle_enter_settings_modes2_0B9_
FNDA:0,_RNCNvNtNtNtCsbwworP4HFOr_7mostrix2ui11key_handler14enter_handlers26handle_enter_settings_modes3_0B9_
FNDA:0,_RNCNvNtNtNtCsbwworP4HFOr_7mostrix2ui11key_handler14enter_handlers26handle_enter_settings_modes4_0B9_
FNDA:0,_RNCNvNtNtNtCsbwworP4HFOr_7mostrix2ui11key_handler14enter_handlers26handle_enter_settings_modes_0B9_
FNDA:0,_RNCNvNtNtNtCsbwworP4HFOr_7mostrix2ui11key_handler14enter_handlers28handle_enter_user_order_chat0B9_
FNDA:0,_RNCNvNtNtNtCsbwworP4HFOr_7mostrix2ui11key_handler14enter_handlers28handle_enter_user_order_chats0_0B9_
FNDA:0,_RNCNvNtNtNtCsbwworP4HFOr_7mostrix2ui11key_handler14enter_handlers28handle_enter_user_order_chats1_0B9_
FNDA:0,_RNCNvNtNtNtCsbwworP4HFOr_7mostrix2ui11key_handler14enter_handlers28handle_enter_user_order_chats_0B9_
FNDA:0,_RNCNvNtNtNtCsbwworP4HFOr_7mostrix2ui11key_handler14enter_handlers31spawn_bulk_history_cleanup_task0B9_
FNDA:0,_RNCNvNtNtNtCsbwworP4HFOr_7mostrix2ui11key_handler14enter_handlers31spawn_user_order_chat_send_task0B9_
FNDA:0,_RNCNvNtNtNtCsbwworP4HFOr_7mostrix2ui11key_handler14enter_handlers34derive_identity_nsec_from_mnemonic0B9_
FNDA:0,_RNCNvNtNtNtCsbwworP4HFOr_7mostrix2ui11key_handler14enter_handlers34derive_identity_nsec_from_mnemonics_0B9_
FNDA:0,_RNCNvNtNtNtCsbwworP4HFOr_7mostrix2ui11key_handler14enter_handlers34resolve_selected_order_chat_target0B9_
FNDA:0,_RNCNvNtNtNtCsbwworP4HFOr_7mostrix2ui11key_handler14enter_handlers39spawn_delete_single_terminal_order_task0B9_
FNDA:0,_RNCNvNtNtNtCsbwworP4HFOr_7mostrix2ui11key_handler14enter_handlers40handle_enter_admin_managing_dispute_chat0B9_
FNDA:0,_RNCNvNtNtNtCsbwworP4HFOr_7mostrix2ui11key_handler14enter_handlers40handle_enter_admin_managing_dispute_chats0_0B9_
FNDA:0,_RNCNvNtNtNtCsbwworP4HFOr_7mostrix2ui11key_handler14enter_handlers40handle_enter_admin_managing_dispute_chats1_0B9_
FNDA:0,_RNCNvNtNtNtCsbwworP4HFOr_7mostrix2ui11key_handler14enter_handlers40handle_enter_admin_managing_dispute_chats_0B9_
FNDA:0,_RNvNtNtNtCsbwworP4HFOr_7mostrix2ui11key_handler14enter_handlers16handle_enter_key
FNDA:0,_RNvNtNtNtCsbwworP4HFOr_7mostrix2ui11key_handler14enter_handlers24handle_enter_normal_mode
FNDA:0,_RNvNtNtNtCsbwworP4HFOr_7mostrix2ui11key_handler14enter_handlers26generate_mnemonic_12_words
FNDA:0,_RNvNtNtNtCsbwworP4HFOr_7mostrix2ui11key_handler14enter_handlers26handle_enter_settings_mode
FNDA:0,_RNvNtNtNtCsbwworP4HFOr_7mostrix2ui11key_handler14enter_handlers28handle_enter_user_order_chat
FNDA:0,_RNvNtNtNtCsbwworP4HFOr_7mostrix2ui11key_handler14enter_handlers31spawn_bulk_history_cleanup_task
FNDA:0,_RNvNtNtNtCsbwworP4HFOr_7mostrix2ui11key_handler14enter_handlers31spawn_user_order_chat_send_task
FNDA:0,_RNvNtNtNtCsbwworP4HFOr_7mostrix2ui11key_handler14enter_handlers34derive_identity_nsec_from_mnemonic
FNDA:0,_RNvNtNtNtCsbwworP4HFOr_7mostrix2ui11key_handler14enter_handlers34resolve_selected_order_chat_target
FNDA:0,_RNvNtNtNtCsbwworP4HFOr_7mostrix2ui11key_handler14enter_handlers39invoice_popup_action_for_message_action
FNDA:0,_RNvNtNtNtCsbwworP4HFOr_7mostrix2ui11key_handler14enter_handlers39spawn_delete_single_terminal_order_task
FNDA:0,_RNvNtNtNtCsbwworP4HFOr_7mostrix2ui11key_handler14enter_handlers40handle_enter_admin_managing_dispute_chat
FNF:51
FNH:0
DA:62,0
DA:63,0
DA:64,0
DA:65,0
DA:66,0
DA:67,0
DA:68,0
DA:70,0
DA:72,0
DA:73,0
DA:74,0
DA:75,0
DA:76,0
DA:78,0
DA:79,0
DA:80,0
DA:81,0
DA:82,0
DA:84,0
DA:85,0
DA:86,0
DA:87,0
DA:88,0
DA:108,0
DA:109,0
DA:110,0
DA:111,0
DA:112,0
DA:113,0
DA:114,0
DA:115,0
DA:116,0
DA:117,0
DA:118,0
DA:119,0
DA:122,0
DA:123,0
DA:124,0
DA:125,0
DA:127,0
DA:128,0
DA:129,0
DA:130,0
DA:132,0
DA:133,0
DA:136,0
DA:137,0
DA:138,0
DA:139,0
DA:140,0
DA:142,0
DA:143,0
DA:144,0
DA:145,0
DA:146,0
DA:147,0
DA:149,0
DA:153,0
DA:154,0
DA:155,0
DA:156,0
DA:157,0
DA:158,0
DA:160,0
DA:161,0
DA:162,0
DA:163,0
DA:164,0
DA:165,0
DA:166,0
DA:167,0
DA:168,0
DA:169,0
DA:170,0
DA:171,0
DA:172,0
DA:173,0
DA:176,0
DA:177,0
DA:178,0
DA:179,0
DA:181,0
DA:182,0
DA:184,0
DA:185,0
DA:186,0
DA:187,0
DA:188,0
DA:189,0
DA:190,0
DA:191,0
DA:192,0
DA:193,0
DA:194,0
DA:195,0
DA:197,0
DA:198,0
DA:199,0
DA:200,0
DA:201,0
DA:202,0
DA:204,0
DA:206,0
DA:207,0
DA:208,0
DA:209,0
DA:211,0
DA:212,0
DA:213,0
DA:214,0
DA:215,0
DA:216,0
DA:217,0
DA:218,0
DA:219,0
DA:220,0
DA:221,0
DA:222,0
DA:223,0
DA:224,0
DA:225,0
DA:226,0
DA:227,0
DA:228,0
DA:229,0
DA:230,0
DA:231,0
DA:232,0
DA:233,0
DA:234,0
DA:235,0
DA:237,0
DA:238,0
DA:240,0
DA:241,0
DA:242,0
DA:243,0
DA:244,0
DA:245,0
DA:246,0
DA:247,0
DA:248,0
DA:249,0
DA:250,0
DA:251,0
DA:252,0
DA:253,0
DA:254,0
DA:255,0
DA:256,0
DA:257,0
DA:258,0
DA:259,0
DA:260,0
DA:261,0
DA:262,0
DA:264,0
DA:265,0
DA:266,0
DA:267,0
DA:268,0
DA:269,0
DA:270,0
DA:271,0
DA:272,0
DA:273,0
DA:274,0
DA:275,0
DA:276,0
DA:277,0
DA:278,0
DA:279,0
DA:280,0
DA:282,0
DA:283,0
DA:285,0
DA:286,0
DA:287,0
DA:288,0
DA:289,0
DA:290,0
DA:292,0
DA:293,0
DA:294,0
DA:295,0
DA:296,0
DA:297,0
DA:298,0
DA:299,0
DA:300,0
DA:301,0
DA:302,0
DA:303,0
DA:304,0
DA:305,0
DA:306,0
DA:307,0
DA:309,0
DA:310,0
DA:311,0
DA:312,0
DA:313,0
DA:314,0
DA:315,0
DA:316,0
DA:317,0
DA:318,0
DA:319,0
DA:320,0
DA:321,0
DA:322,0
DA:323,0
DA:324,0
DA:325,0
DA:326,0
DA:328,0
DA:329,0
DA:330,0
DA:331,0
DA:332,0
DA:334,0
DA:336,0
DA:337,0
DA:338,0
DA:339,0
DA:340,0
DA:341,0
DA:342,0
DA:343,0
DA:344,0
DA:345,0
DA:346,0
DA:347,0
DA:348,0
DA:349,0
DA:350,0
DA:351,0
DA:352,0
DA:353,0
DA:354,0
DA:355,0
DA:356,0
DA:357,0
DA:358,0
DA:359,0
DA:360,0
DA:361,0
DA:362,0
DA:363,0
DA:364,0
DA:365,0
DA:366,0
DA:367,0
DA:368,0
DA:370,0
DA:373,0
DA:374,0
DA:375,0
DA:376,0
DA:378,0
DA:379,0
DA:383,0
DA:384,0
DA:386,0
DA:387,0
DA:388,0
DA:391,0
DA:392,0
DA:394,0
DA:395,0
DA:396,0
DA:397,0
DA:398,0
DA:399,0
DA:400,0
DA:401,0
DA:402,0
DA:403,0
DA:404,0
DA:405,0
DA:406,0
DA:408,0
DA:409,0
DA:410,0
DA:412,0
DA:417,0
DA:418,0
DA:420,0
DA:421,0
DA:422,0
DA:423,0
DA:424,0
DA:425,0
DA:426,0
DA:429,0
DA:430,0
DA:431,0
DA:432,0
DA:433,0
DA:434,0
DA:435,0
DA:436,0
DA:437,0
DA:440,0
DA:441,0
DA:442,0
DA:443,0
DA:444,0
DA:445,0
DA:449,0
DA:450,0
DA:451,0
DA:452,0
DA:453,0
DA:457,0
DA:461,0
DA:462,0
DA:466,0
DA:467,0
DA:470,0
DA:471,0
DA:475,0
DA:478,0
DA:479,0
DA:480,0
DA:482,0
DA:483,0
DA:484,0
DA:485,0
DA:493,0
DA:494,0
DA:495,0
DA:496,0
DA:498,0
DA:499,0
DA:500,0
DA:501,0
DA:502,0
DA:503,0
DA:504,0
DA:507,0
DA:509,0
DA:511,0
DA:513,0
DA:515,0
DA:516,0
DA:517,0
DA:523,0
DA:524,0
DA:537,0
DA:538,0
DA:539,0
DA:540,0
DA:541,0
DA:543,0
DA:544,0
DA:545,0
DA:546,0
DA:547,0
DA:548,0
DA:549,0
DA:550,0
DA:551,0
DA:552,0
DA:553,0
DA:554,0
DA:555,0
DA:556,0
DA:558,0
DA:559,0
DA:560,0
DA:561,0
DA:562,0
DA:563,0
DA:564,0
DA:565,0
DA:566,0
DA:567,0
DA:569,0
DA:570,0
DA:572,0
DA:573,0
DA:574,0
DA:577,0
DA:578,0
DA:579,0
DA:580,0
DA:581,0
DA:582,0
DA:583,0
DA:584,0
DA:588,0
DA:589,0
DA:590,0
DA:591,0
DA:592,0
DA:593,0
DA:594,0
DA:595,0
DA:599,0
DA:603,0
DA:604,0
DA:605,0
DA:606,0
DA:607,0
DA:608,0
DA:611,0
DA:612,0
DA:613,0
DA:616,0
DA:618,0
DA:619,0
DA:620,0
DA:621,0
DA:622,0
DA:625,0
DA:626,0
DA:629,0
DA:630,0
DA:631,0
DA:632,0
DA:633,0
DA:634,0
DA:635,0
DA:636,0
DA:637,0
DA:641,0
DA:642,0
DA:646,0
DA:649,0
DA:650,0
DA:653,0
DA:654,0
DA:655,0
DA:656,0
DA:657,0
DA:659,0
DA:660,0
DA:661,0
DA:662,0
DA:663,0
DA:664,0
DA:665,0
DA:666,0
DA:667,0
DA:668,0
DA:669,0
DA:672,0
DA:673,0
DA:674,0
DA:675,0
DA:676,0
DA:677,0
DA:678,0
DA:679,0
DA:680,0
DA:685,0
DA:686,0
DA:688,0
DA:689,0
DA:690,0
DA:691,0
DA:692,0
DA:693,0
DA:695,0
DA:697,0
DA:698,0
DA:699,0
DA:700,0
DA:701,0
DA:702,0
DA:703,0
DA:704,0
DA:705,0
DA:706,0
DA:707,0
DA:708,0
DA:709,0
DA:710,0
DA:711,0
DA:713,0
DA:714,0
DA:715,0
DA:716,0
DA:717,0
DA:718,0
DA:719,0
DA:722,0
DA:723,0
DA:728,0
DA:729,0
DA:730,0
DA:731,0
DA:733,0
DA:734,0
DA:735,0
DA:736,0
DA:737,0
DA:738,0
DA:739,0
DA:741,0
DA:744,0
DA:748,0
DA:749,0
DA:752,0
DA:755,0
DA:756,0
DA:757,0
DA:758,0
DA:759,0
DA:760,0
DA:761,0
DA:762,0
DA:764,0
DA:766,0
DA:767,0
DA:768,0
DA:769,0
DA:771,0
DA:772,0
DA:773,0
DA:774,0
DA:777,0
DA:778,0
DA:779,0
DA:780,0
DA:781,0
DA:783,0
DA:788,0
DA:789,0
DA:790,0
DA:791,0
DA:792,0
DA:793,0
DA:796,0
DA:797,0
DA:798,0
DA:799,0
DA:800,0
DA:801,0
DA:802,0
DA:804,0
DA:807,0
DA:808,0
DA:809,0
DA:810,0
DA:811,0
DA:814,0
DA:815,0
DA:816,0
DA:817,0
DA:819,0
DA:821,0
DA:823,0
DA:824,0
DA:825,0
DA:826,0
DA:828,0
DA:829,0
DA:830,0
DA:831,0
DA:834,0
DA:835,0
DA:836,0
DA:837,0
DA:838,0
DA:840,0
DA:844,0
DA:845,0
DA:846,0
DA:847,0
DA:848,0
DA:849,0
DA:850,0
DA:851,0
DA:852,0
DA:854,0
DA:856,0
DA:857,0
DA:858,0
DA:859,0
DA:861,0
DA:862,0
DA:863,0
DA:865,0
DA:866,0
DA:867,0
DA:868,0
DA:869,0
DA:870,0
DA:871,0
DA:872,0
DA:873,0
DA:874,0
DA:876,0
DA:877,0
DA:878,0
DA:879,0
DA:880,0
DA:882,0
DA:884,0
DA:886,0
DA:887,0
DA:888,0
DA:889,0
DA:891,0
DA:892,0
DA:893,0
DA:894,0
DA:897,0
DA:898,0
DA:900,0
DA:901,0
DA:902,0
DA:903,0
DA:904,0
DA:905,0
DA:906,0
DA:907,0
DA:909,0
DA:910,0
DA:911,0
DA:912,0
DA:913,0
DA:914,0
DA:915,0
DA:916,0
DA:918,0
DA:919,0
DA:922,0
DA:925,0
DA:926,0
DA:929,0
DA:930,0
DA:931,0
DA:932,0
DA:934,0
DA:935,0
DA:937,0
DA:939,0
DA:940,0
DA:942,0
DA:943,0
DA:944,0
DA:945,0
DA:946,0
DA:947,0
DA:948,0
DA:949,0
DA:950,0
DA:951,0
DA:952,0
DA:954,0
DA:955,0
DA:956,0
DA:957,0
DA:958,0
DA:960,0
DA:963,0
DA:964,0
DA:965,0
DA:966,0
DA:967,0
DA:968,0
DA:969,0
DA:970,0
DA:971,0
DA:972,0
DA:973,0
DA:974,0
DA:976,0
DA:977,0
DA:978,0
DA:979,0
DA:980,0
DA:982,0
DA:986,0
DA:987,0
DA:988,0
DA:989,0
DA:990,0
DA:991,0
DA:992,0
DA:993,0
DA:994,0
DA:996,0
DA:997,0
DA:998,0
DA:999,0
DA:1000,0
DA:1001,0
DA:1002,0
DA:1003,0
DA:1004,0
DA:1005,0
DA:1006,0
DA:1007,0
DA:1009,0
DA:1012,0
DA:1013,0
DA:1014,0
DA:1016,0
DA:1017,0
DA:1018,0
DA:1019,0
DA:1020,0
DA:1021,0
DA:1022,0
DA:1023,0
DA:1024,0
DA:1025,0
DA:1026,0
DA:1027,0
DA:1028,0
DA:1030,0
DA:1031,0
DA:1032,0
DA:1033,0
DA:1034,0
DA:1035,0
DA:1036,0
DA:1037,0
DA:1038,0
DA:1039,0
DA:1040,0
DA:1041,0
DA:1042,0
DA:1043,0
DA:1044,0
DA:1045,0
DA:1046,0
DA:1047,0
DA:1048,0
DA:1049,0
DA:1050,0
DA:1051,0
DA:1052,0
DA:1053,0
DA:1054,0
DA:1055,0
DA:1056,0
DA:1057,0
DA:1058,0
DA:1059,0
DA:1060,0
DA:1069,0
DA:1070,0
DA:1071,0
DA:1074,0
DA:1075,0
DA:1077,0
DA:1079,0
DA:1080,0
DA:1081,0
DA:1082,0
DA:1089,0
DA:1090,0
DA:1091,0
DA:1092,0
DA:1093,0
DA:1098,0
DA:1099,0
DA:1100,0
DA:1102,0
DA:1104,0
DA:1105,0
DA:1106,0
DA:1107,0
DA:1108,0
DA:1109,0
DA:1110,0
DA:1111,0
DA:1112,0
DA:1113,0
DA:1114,0
DA:1115,0
DA:1116,0
DA:1117,0
DA:1118,0
DA:1119,0
DA:1120,0
DA:1121,0
DA:1122,0
DA:1123,0
DA:1124,0
DA:1125,0
DA:1126,0
DA:1127,0
DA:1128,0
DA:1130,0
DA:1131,0
DA:1132,0
DA:1133,0
DA:1134,0
DA:1135,0
DA:1136,0
DA:1138,0
DA:1139,0
DA:1140,0
DA:1141,0
DA:1142,0
DA:1143,0
DA:1146,0
DA:1147,0
DA:1148,0
DA:1149,0
DA:1150,0
DA:1151,0
DA:1154,0
DA:1155,0
DA:1156,0
DA:1158,0
DA:1159,0
DA:1160,0
DA:1161,0
DA:1162,0
DA:1164,0
DA:1166,0
DA:1167,0
DA:1168,0
DA:1169,0
DA:1170,0
DA:1171,0
DA:1173,0
DA:1174,0
DA:1175,0
DA:1177,0
DA:1178,0
DA:1179,0
DA:1180,0
DA:1181,0
DA:1185,0
DA:1186,0
DA:1187,0
DA:1188,0
DA:1189,0
DA:1190,0
DA:1191,0
DA:1193,0
DA:1195,0
DA:1196,0
DA:1197,0
DA:1199,0
DA:1201,0
DA:1202,0
DA:1203,0
DA:1204,0
DA:1205,0
DA:1206,0
DA:1207,0
DA:1208,0
DA:1209,0
DA:1210,0
DA:1211,0
DA:1212,0
DA:1213,0
DA:1214,0
DA:1215,0
DA:1216,0
DA:1217,0
DA:1218,0
DA:1219,0
DA:1220,0
DA:1221,0
DA:1222,0
DA:1224,0
DA:1225,0
BRF:0
BRH:0
LF:894
LH:0
end_of_record
SF:/home/runner/work/mostrix/mostrix/src/ui/key_handler/esc_handlers.rs
FN:118,_RNCNvNtNtNtCsaruqlPBEY0K_7mostrix2ui11key_handler12esc_handlers14handle_esc_key0B9_
FN:133,_RNCNvNtNtNtCsaruqlPBEY0K_7mostrix2ui11key_handler12esc_handlers14handle_esc_keys0_0B9_
FN:139,_RNCNvNtNtNtCsaruqlPBEY0K_7mostrix2ui11key_handler12esc_handlers14handle_esc_keys1_0B9_
FN:145,_RNCNvNtNtNtCsaruqlPBEY0K_7mostrix2ui11key_handler12esc_handlers14handle_esc_keys2_0B9_
FN:155,_RNCNvNtNtNtCsaruqlPBEY0K_7mostrix2ui11key_handler12esc_handlers14handle_esc_keys3_0B9_
FN:127,_RNCNvNtNtNtCsaruqlPBEY0K_7mostrix2ui11key_handler12esc_handlers14handle_esc_keys_0B9_
FN:5,_RNvNtNtNtCsaruqlPBEY0K_7mostrix2ui11key_handler12esc_handlers14handle_esc_key
FN:118,_RNCNvNtNtNtCs3smmrQNj5EW_7mostrix2ui11key_handler12esc_handlers14handle_esc_key0B9_
FN:133,_RNCNvNtNtNtCs3smmrQNj5EW_7mostrix2ui11key_handler12esc_handlers14handle_esc_keys0_0B9_
FN:139,_RNCNvNtNtNtCs3smmrQNj5EW_7mostrix2ui11key_handler12esc_handlers14handle_esc_keys1_0B9_
FN:145,_RNCNvNtNtNtCs3smmrQNj5EW_7mostrix2ui11key_handler12esc_handlers14handle_esc_keys2_0B9_
FN:155,_RNCNvNtNtNtCs3smmrQNj5EW_7mostrix2ui11key_handler12esc_handlers14handle_esc_keys3_0B9_
FN:127,_RNCNvNtNtNtCs3smmrQNj5EW_7mostrix2ui11key_handler12esc_handlers14handle_esc_keys_0B9_
FN:5,_RNvNtNtNtCs3smmrQNj5EW_7mostrix2ui11key_handler12esc_handlers14handle_esc_key
FN:118,_RNCNvNtNtNtCs1oYyZhp1ftr_7mostrix2ui11key_handler12esc_handlers14handle_esc_key0B9_
FN:133,_RNCNvNtNtNtCs1oYyZhp1ftr_7mostrix2ui11key_handler12esc_handlers14handle_esc_keys0_0B9_
FN:139,_RNCNvNtNtNtCs1oYyZhp1ftr_7mostrix2ui11key_handler12esc_handlers14handle_esc_keys1_0B9_
FN:145,_RNCNvNtNtNtCs1oYyZhp1ftr_7mostrix2ui11key_handler12esc_handlers14handle_esc_keys2_0B9_
FN:155,_RNCNvNtNtNtCs1oYyZhp1ftr_7mostrix2ui11key_handler12esc_handlers14handle_esc_keys3_0B9_
FN:127,_RNCNvNtNtNtCs1oYyZhp1ftr_7mostrix2ui11key_handler12esc_handlers14handle_esc_keys_0B9_
FN:5,_RNvNtNtNtCs1oYyZhp1ftr_7mostrix2ui11key_handler12esc_handlers14handle_esc_key
FN:118,_RNCNvNtNtNtCsbwworP4HFOr_7mostrix2ui11key_handler12esc_handlers14handle_esc_key0B9_
FN:133,_RNCNvNtNtNtCsbwworP4HFOr_7mostrix2ui11key_handler12esc_handlers14handle_esc_keys0_0B9_
FN:139,_RNCNvNtNtNtCsbwworP4HFOr_7mostrix2ui11key_handler12esc_handlers14handle_esc_keys1_0B9_
FN:145,_RNCNvNtNtNtCsbwworP4HFOr_7mostrix2ui11key_handler12esc_handlers14handle_esc_keys2_0B9_
FN:155,_RNCNvNtNtNtCsbwworP4HFOr_7mostrix2ui11key_handler12esc_handlers14handle_esc_keys3_0B9_
FN:127,_RNCNvNtNtNtCsbwworP4HFOr_7mostrix2ui11key_handler12esc_handlers14handle_esc_keys_0B9_
FN:5,_RNvNtNtNtCsbwworP4HFOr_7mostrix2ui11key_handler12esc_handlers14handle_esc_key
FNDA:0,_RNCNvNtNtNtCsaruqlPBEY0K_7mostrix2ui11key_handler12esc_handlers14handle_esc_key0B9_
FNDA:0,_RNCNvNtNtNtCsaruqlPBEY0K_7mostrix2ui11key_handler12esc_handlers14handle_esc_keys0_0B9_
FNDA:0,_RNCNvNtNtNtCsaruqlPBEY0K_7mostrix2ui11key_handler12esc_handlers14handle_esc_keys1_0B9_
FNDA:0,_RNCNvNtNtNtCsaruqlPBEY0K_7mostrix2ui11key_handler12esc_handlers14handle_esc_keys2_0B9_
FNDA:0,_RNCNvNtNtNtCsaruqlPBEY0K_7mostrix2ui11key_handler12esc_handlers14handle_esc_keys3_0B9_
FNDA:0,_RNCNvNtNtNtCsaruqlPBEY0K_7mostrix2ui11key_handler12esc_handlers14handle_esc_keys_0B9_
FNDA:0,_RNvNtNtNtCsaruqlPBEY0K_7mostrix2ui11key_handler12esc_handlers14handle_esc_key
FNDA:0,_RNCNvNtNtNtCs3smmrQNj5EW_7mostrix2ui11key_handler12esc_handlers14handle_esc_key0B9_
FNDA:0,_RNCNvNtNtNtCs3smmrQNj5EW_7mostrix2ui11key_handler12esc_handlers14handle_esc_keys0_0B9_
FNDA:0,_RNCNvNtNtNtCs3smmrQNj5EW_7mostrix2ui11key_handler12esc_handlers14handle_esc_keys1_0B9_
FNDA:0,_RNCNvNtNtNtCs3smmrQNj5EW_7mostrix2ui11key_handler12esc_handlers14handle_esc_keys2_0B9_
FNDA:0,_RNCNvNtNtNtCs3smmrQNj5EW_7mostrix2ui11key_handler12esc_handlers14handle_esc_keys3_0B9_
FNDA:0,_RNCNvNtNtNtCs3smmrQNj5EW_7mostrix2ui11key_handler12esc_handlers14handle_esc_keys_0B9_
FNDA:0,_RNvNtNtNtCs3smmrQNj5EW_7mostrix2ui11key_handler12esc_handlers14handle_esc_key
FNDA:0,_RNCNvNtNtNtCs1oYyZhp1ftr_7mostrix2ui11key_handler12esc_handlers14handle_esc_key0B9_
FNDA:0,_RNCNvNtNtNtCs1oYyZhp1ftr_7mostrix2ui11key_handler12esc_handlers14handle_esc_keys0_0B9_
FNDA:0,_RNCNvNtNtNtCs1oYyZhp1ftr_7mostrix2ui11key_handler12esc_handlers14handle_esc_keys1_0B9_
FNDA:0,_RNCNvNtNtNtCs1oYyZhp1ftr_7mostrix2ui11key_handler12esc_handlers14handle_esc_keys2_0B9_
FNDA:0,_RNCNvNtNtNtCs1oYyZhp1ftr_7mostrix2ui11key_handler12esc_handlers14handle_esc_keys3_0B9_
FNDA:0,_RNCNvNtNtNtCs1oYyZhp1ftr_7mostrix2ui11key_handler12esc_handlers14handle_esc_keys_0B9_
FNDA:0,_RNvNtNtNtCs1oYyZhp1ftr_7mostrix2ui11key_handler12esc_handlers14handle_esc_key
FNDA:0,_RNCNvNtNtNtCsbwworP4HFOr_7mostrix2ui11key_handler12esc_handlers14handle_esc_key0B9_
FNDA:0,_RNCNvNtNtNtCsbwworP4HFOr_7mostrix2ui11key_handler12esc_handlers14handle_esc_keys0_0B9_
FNDA:0,_RNCNvNtNtNtCsbwworP4HFOr_7mostrix2ui11key_handler12esc_handlers14handle_esc_keys1_0B9_
FNDA:0,_RNCNvNtNtNtCsbwworP4HFOr_7mostrix2ui11key_handler12esc_handlers14handle_esc_keys2_0B9_
FNDA:0,_RNCNvNtNtNtCsbwworP4HFOr_7mostrix2ui11key_handler12esc_handlers14handle_esc_keys3_0B9_
FNDA:0,_RNCNvNtNtNtCsbwworP4HFOr_7mostrix2ui11key_handler12esc_handlers14handle_esc_keys_0B9_
FNDA:0,_RNvNtNtNtCsbwworP4HFOr_7mostrix2ui11key_handler12esc_handlers14handle_esc_key
FNF:7
FNH:0
DA:5,0
DA:7,0
DA:8,0
DA:9,0
DA:11,0
DA:14,0
DA:15,0
DA:16,0
DA:18,0
DA:20,0
DA:21,0
DA:25,0
DA:26,0
DA:32,0
DA:34,0
DA:35,0
DA:36,0
DA:37,0
DA:40,0
DA:41,0
DA:44,0
DA:45,0
DA:48,0
DA:49,0
DA:52,0
DA:53,0
DA:56,0
DA:57,0
DA:58,0
DA:60,0
DA:61,0
DA:62,0
DA:63,0
DA:68,0
DA:69,0
DA:70,0
DA:71,0
DA:72,0
DA:73,0
DA:74,0
DA:78,0
DA:79,0
DA:81,0
DA:83,0
DA:86,0
DA:87,0
DA:89,0
DA:91,0
DA:95,0
DA:96,0
DA:99,0
DA:100,0
DA:109,0
DA:110,0
DA:113,0
DA:114,0
DA:118,0
DA:119,0
DA:120,0
DA:121,0
DA:122,0
DA:123,0
DA:124,0
DA:126,0
DA:127,0
DA:128,0
DA:129,0
DA:130,0
DA:132,0
DA:133,0
DA:134,0
DA:135,0
DA:136,0
DA:138,0
DA:139,0
DA:140,0
DA:141,0
DA:142,0
DA:144,0
DA:145,0
DA:146,0
DA:147,0
DA:148,0
DA:151,0
DA:152,0
DA:154,0
DA:155,0
DA:156,0
DA:157,0
DA:158,0
DA:162,0
DA:163,0
DA:166,0
DA:167,0
DA:171,0
DA:172,0
DA:175,0
DA:177,0
DA:178,0
DA:179,0
DA:180,0
DA:181,0
DA:184,0
DA:185,0
DA:190,0
DA:191,0
DA:194,0
DA:195,0
DA:196,0
DA:197,0
DA:198,0
DA:201,0
DA:202,0
DA:203,0
DA:204,0
DA:205,0
DA:206,0
DA:207,0
DA:208,0
DA:209,0
DA:210,0
DA:211,0
DA:212,0
DA:215,0
DA:216,0
DA:217,0
DA:220,0
DA:221,0
DA:222,0
DA:223,0
DA:225,0
DA:227,0
DA:231,0
DA:235,0
DA:240,0
DA:243,0
BRF:0
BRH:0
LF:142
LH:0
end_of_record
SF:/home/runner/work/mostrix/mostrix/src/ui/key_handler/form_input.rs
FN:139,_RNCNvNtNtNtCsaruqlPBEY0K_7mostrix2ui11key_handler10form_input20custom_currency_code0B9_
FN:123,_RNCNvNtNtNtCsaruqlPBEY0K_7mostrix2ui11key_handler10form_input20open_currency_picker0B9_
FN:35,_RNCNvNtNtNtCsaruqlPBEY0K_7mostrix2ui11key_handler10form_input26handle_currency_picker_key0B9_
FN:86,_RNCNvNtNtNtCsaruqlPBEY0K_7mostrix2ui11key_handler10form_input26handle_currency_picker_keys_0B9_
FN:217,_RNvNtNtNtCsaruqlPBEY0K_7mostrix2ui11key_handler10form_input16handle_backspace
FN:147,_RNvNtNtNtCsaruqlPBEY0K_7mostrix2ui11key_handler10form_input17handle_char_input
FN:137,_RNvNtNtNtCsaruqlPBEY0K_7mostrix2ui11key_handler10form_input20custom_currency_code
FN:120,_RNvNtNtNtCsaruqlPBEY0K_7mostrix2ui11key_handler10form_input20open_currency_picker
FN:129,_RNvNtNtNtCsaruqlPBEY0K_7mostrix2ui11key_handler10form_input21close_currency_picker
FN:19,_RNvNtNtNtCsaruqlPBEY0K_7mostrix2ui11key_handler10form_input26handle_currency_picker_key
FN:7,_RNvNtNtNtCsaruqlPBEY0K_7mostrix2ui11key_handler10form_input28is_creating_order_text_input
